libosgEarth.so.0:_Z10TiXmlFOpenPKcS0_
libosgEarth.so.0:_Z11buildSpheredjjRKN3osg5Vec4fE
libosgEarth.so.0:_Z11randomColorv
libosgEarth.so.0:_Z12makeCatenaryN3osg5Vec3dES0_RKNS_7MatrixdEddRSt6vectorIS0_SaIS0_EEf
libosgEarth.so.0:_Z15getLocalToWorldRKN3osg5Vec3dEPKN8osgEarth16SpatialReferenceES6_
libosgEarth.so.0:_Z16chooseAttachmentRKN3osg7MatrixdES2_RKNS_5Vec3dES5_S5_
libosgEarth.so.0:_Z30wrapper_propfunc_osgEarth_TextPN5osgDB13ObjectWrapperE
libosgEarth.so.0:_ZN12TiXmlPrinter10VisitEnterERKN8osgEarth12TiXmlElementEPKNS0_14TiXmlAttributeE
libosgEarth.so.0:_ZN12TiXmlPrinter10VisitEnterERKN8osgEarth13TiXmlDocumentE
libosgEarth.so.0:_ZN12TiXmlPrinter5VisitERKN8osgEarth12TiXmlCommentE
libosgEarth.so.0:_ZN12TiXmlPrinter5VisitERKN8osgEarth12TiXmlUnknownE
libosgEarth.so.0:_ZN12TiXmlPrinter5VisitERKN8osgEarth16TiXmlDeclarationE
libosgEarth.so.0:_ZN12TiXmlPrinter5VisitERKN8osgEarth9TiXmlTextE
libosgEarth.so.0:_ZN12TiXmlPrinter9VisitExitERKN8osgEarth12TiXmlElementE
libosgEarth.so.0:_ZN12TiXmlPrinter9VisitExitERKN8osgEarth13TiXmlDocumentE
libosgEarth.so.0:_ZN16TiXmlParsingData5StampEPKc13TiXmlEncoding
libosgEarth.so.0:_ZN27PowerlineFeatureNodeFactory17makeCableFeaturesERNSt7__cxx114listIN3osg7ref_ptrIN8osgEarth7FeatureEEESaIS6_EEES9_RKNS4_4Util13FilterContextERKNS4_5QueryERKNS4_5StyleE
libosgEarth.so.0:_ZN27PowerlineFeatureNodeFactory18createOrUpdateNodeEPN8osgEarth13FeatureCursorERKNS0_5StyleERKNS0_4Util13FilterContextERN3osg7ref_ptrINSA_4NodeEEERKNS0_5QueryE
libosgEarth.so.0:_ZN27PowerlineFeatureNodeFactoryC1ERKN8osgEarth14PowerlineLayer7OptionsEPNS0_10StyleSheetE
libosgEarth.so.0:_ZN27PowerlineFeatureNodeFactoryC2ERKN8osgEarth14PowerlineLayer7OptionsEPNS0_10StyleSheetE
libosgEarth.so.0:_ZN3osg28wrapper_propfunc_DummyObjectEPN5osgDB13ObjectWrapperE
libosgEarth.so.0:_ZN6google8protobuf5Arena18CreateMaybeMessageIN6mapnik6vector10tile_layerEJEEEPT_PS1_DpOT0_
libosgEarth.so.0:_ZN6google8protobuf5Arena18CreateMaybeMessageIN6mapnik6vector10tile_valueEJEEEPT_PS1_DpOT0_
libosgEarth.so.0:_ZN6google8protobuf5Arena18CreateMaybeMessageIN6mapnik6vector12tile_featureEJEEEPT_PS1_DpOT0_
libosgEarth.so.0:_ZN6google8protobuf5Arena18CreateMaybeMessageIN6mapnik6vector4tileEJEEEPT_PS1_DpOT0_
libosgEarth.so.0:_ZN6mapnik6vector10tile_layer12InternalSwapEPS1_
libosgEarth.so.0:_ZN6mapnik6vector10tile_layer14_InternalParseEPKcPN6google8protobuf8internal12ParseContextE
libosgEarth.so.0:_ZN6mapnik6vector10tile_layer16default_instanceEv
libosgEarth.so.0:_ZN6mapnik6vector10tile_layer21CheckTypeAndMergeFromERKN6google8protobuf11MessageLiteE
libosgEarth.so.0:_ZN6mapnik6vector10tile_layer21InitAsDefaultInstanceEv
libosgEarth.so.0:_ZN6mapnik6vector10tile_layer5ClearEv
libosgEarth.so.0:_ZN6mapnik6vector10tile_layer8CopyFromERKS1_
libosgEarth.so.0:_ZN6mapnik6vector10tile_layer9ArenaDtorEPv
libosgEarth.so.0:_ZN6mapnik6vector10tile_layer9MergeFromERKS1_
libosgEarth.so.0:_ZN6mapnik6vector10tile_layerC1EPN6google8protobuf5ArenaE
libosgEarth.so.0:_ZN6mapnik6vector10tile_layerC1ERKS1_
libosgEarth.so.0:_ZN6mapnik6vector10tile_layerC2EPN6google8protobuf5ArenaE
libosgEarth.so.0:_ZN6mapnik6vector10tile_layerC2ERKS1_
libosgEarth.so.0:_ZN6mapnik6vector10tile_layerD0Ev
libosgEarth.so.0:_ZN6mapnik6vector10tile_layerD1Ev
libosgEarth.so.0:_ZN6mapnik6vector10tile_layerD2Ev
libosgEarth.so.0:_ZN6mapnik6vector10tile_value12InternalSwapEPS1_
libosgEarth.so.0:_ZN6mapnik6vector10tile_value14_InternalParseEPKcPN6google8protobuf8internal12ParseContextE
libosgEarth.so.0:_ZN6mapnik6vector10tile_value16default_instanceEv
libosgEarth.so.0:_ZN6mapnik6vector10tile_value21CheckTypeAndMergeFromERKN6google8protobuf11MessageLiteE
libosgEarth.so.0:_ZN6mapnik6vector10tile_value21InitAsDefaultInstanceEv
libosgEarth.so.0:_ZN6mapnik6vector10tile_value5ClearEv
libosgEarth.so.0:_ZN6mapnik6vector10tile_value8CopyFromERKS1_
libosgEarth.so.0:_ZN6mapnik6vector10tile_value9ArenaDtorEPv
libosgEarth.so.0:_ZN6mapnik6vector10tile_value9MergeFromERKS1_
libosgEarth.so.0:_ZN6mapnik6vector10tile_valueC1EPN6google8protobuf5ArenaE
libosgEarth.so.0:_ZN6mapnik6vector10tile_valueC1ERKS1_
libosgEarth.so.0:_ZN6mapnik6vector10tile_valueC2EPN6google8protobuf5ArenaE
libosgEarth.so.0:_ZN6mapnik6vector10tile_valueC2ERKS1_
libosgEarth.so.0:_ZN6mapnik6vector10tile_valueD0Ev
libosgEarth.so.0:_ZN6mapnik6vector10tile_valueD1Ev
libosgEarth.so.0:_ZN6mapnik6vector10tile_valueD2Ev
libosgEarth.so.0:_ZN6mapnik6vector12tile_feature12InternalSwapEPS1_
libosgEarth.so.0:_ZN6mapnik6vector12tile_feature14_InternalParseEPKcPN6google8protobuf8internal12ParseContextE
libosgEarth.so.0:_ZN6mapnik6vector12tile_feature16default_instanceEv
libosgEarth.so.0:_ZN6mapnik6vector12tile_feature21CheckTypeAndMergeFromERKN6google8protobuf11MessageLiteE
libosgEarth.so.0:_ZN6mapnik6vector12tile_feature21InitAsDefaultInstanceEv
libosgEarth.so.0:_ZN6mapnik6vector12tile_feature5ClearEv
libosgEarth.so.0:_ZN6mapnik6vector12tile_feature8CopyFromERKS1_
libosgEarth.so.0:_ZN6mapnik6vector12tile_feature9ArenaDtorEPv
libosgEarth.so.0:_ZN6mapnik6vector12tile_feature9MergeFromERKS1_
libosgEarth.so.0:_ZN6mapnik6vector12tile_featureC1EPN6google8protobuf5ArenaE
libosgEarth.so.0:_ZN6mapnik6vector12tile_featureC1ERKS1_
libosgEarth.so.0:_ZN6mapnik6vector12tile_featureC2EPN6google8protobuf5ArenaE
libosgEarth.so.0:_ZN6mapnik6vector12tile_featureC2ERKS1_
libosgEarth.so.0:_ZN6mapnik6vector12tile_featureD0Ev
libosgEarth.so.0:_ZN6mapnik6vector12tile_featureD1Ev
libosgEarth.so.0:_ZN6mapnik6vector12tile_featureD2Ev
libosgEarth.so.0:_ZN6mapnik6vector18tile_GeomType_NameB5cxx11ENS0_13tile_GeomTypeE
libosgEarth.so.0:_ZN6mapnik6vector19tile_GeomType_ParseERKNSt7__cxx1112basic_stringIcSt11char_traitsIcESaIcEEEPNS0_13tile_GeomTypeE
libosgEarth.so.0:_ZN6mapnik6vector21tile_GeomType_IsValidEi
libosgEarth.so.0:_ZN6mapnik6vector4tile12InternalSwapEPS1_
libosgEarth.so.0:_ZN6mapnik6vector4tile14_InternalParseEPKcPN6google8protobuf8internal12ParseContextE
libosgEarth.so.0:_ZN6mapnik6vector4tile16default_instanceEv
libosgEarth.so.0:_ZN6mapnik6vector4tile21CheckTypeAndMergeFromERKN6google8protobuf11MessageLiteE
libosgEarth.so.0:_ZN6mapnik6vector4tile21InitAsDefaultInstanceEv
libosgEarth.so.0:_ZN6mapnik6vector4tile5ClearEv
libosgEarth.so.0:_ZN6mapnik6vector4tile8CopyFromERKS1_
libosgEarth.so.0:_ZN6mapnik6vector4tile9ArenaDtorEPv
libosgEarth.so.0:_ZN6mapnik6vector4tile9MergeFromERKS1_
libosgEarth.so.0:_ZN6mapnik6vector4tileC1EPN6google8protobuf5ArenaE
libosgEarth.so.0:_ZN6mapnik6vector4tileC1ERKS1_
libosgEarth.so.0:_ZN6mapnik6vector4tileC2EPN6google8protobuf5ArenaE
libosgEarth.so.0:_ZN6mapnik6vector4tileC2ERKS1_
libosgEarth.so.0:_ZN6mapnik6vector4tileD0Ev
libosgEarth.so.0:_ZN6mapnik6vector4tileD1Ev
libosgEarth.so.0:_ZN6mapnik6vector4tileD2Ev
libosgEarth.so.0:_ZN8osgEarth10BBoxSymbol11mergeConfigERKNS_6ConfigE
libosgEarth.so.0:_ZN8osgEarth10BBoxSymbol8parseSLDERKNS_6ConfigERNS_5StyleE
libosgEarth.so.0:_ZN8osgEarth10BBoxSymbolC1ERKNS_6ConfigE
libosgEarth.so.0:_ZN8osgEarth10BBoxSymbolC1ERKS0_RKN3osg6CopyOpE
libosgEarth.so.0:_ZN8osgEarth10BBoxSymbolC2ERKNS_6ConfigE
libosgEarth.so.0:_ZN8osgEarth10BBoxSymbolC2ERKS0_RKN3osg6CopyOpE
libosgEarth.so.0:_ZN8osgEarth10CircleNode11setArcStartERKNS_5AngleE
libosgEarth.so.0:_ZN8osgEarth10CircleNode13buildGeometryEv
libosgEarth.so.0:_ZN8osgEarth10CircleNode14setNumSegmentsEj
libosgEarth.so.0:_ZN8osgEarth10CircleNode3setERKNS_8GeoPointERKNS_8DistanceERKNS_5StyleERKNS_5AngleESC_b
libosgEarth.so.0:_ZN8osgEarth10CircleNode6setPieERKb
libosgEarth.so.0:_ZN8osgEarth10CircleNode9constructEv
libosgEarth.so.0:_ZN8osgEarth10CircleNode9setArcEndERKNS_5AngleE
libosgEarth.so.0:_ZN8osgEarth10CircleNode9setRadiusERKNS_8DistanceE
libosgEarth.so.0:_ZN8osgEarth10CircleNodeC1ERKNS_6ConfigEPKN5osgDB7OptionsE
libosgEarth.so.0:_ZN8osgEarth10CircleNodeC1Ev
libosgEarth.so.0:_ZN8osgEarth10CircleNodeC2ERKNS_6ConfigEPKN5osgDB7OptionsE
libosgEarth.so.0:_ZN8osgEarth10CircleNodeC2Ev
libosgEarth.so.0:_ZN8osgEarth10CropFilter4pushERNSt7__cxx114listIN3osg7ref_ptrINS_7FeatureEEESaIS6_EEERNS_4Util13FilterContextE
libosgEarth.so.0:_ZN8osgEarth10CropFilterC1ENS0_6MethodE
libosgEarth.so.0:_ZN8osgEarth10CropFilterC2ENS0_6MethodE
libosgEarth.so.0:_ZN8osgEarth10DataExtentC1ERKNS_9GeoExtentE
libosgEarth.so.0:_ZN8osgEarth10DataExtentC1ERKNS_9GeoExtentERKNSt7__cxx1112basic_stringIcSt11char_traitsIcESaIcEEE
libosgEarth.so.0:_ZN8osgEarth10DataExtentC1ERKNS_9GeoExtentEj
libosgEarth.so.0:_ZN8osgEarth10DataExtentC1ERKNS_9GeoExtentEjRKNSt7__cxx1112basic_stringIcSt11char_traitsIcESaIcEEE
libosgEarth.so.0:_ZN8osgEarth10DataExtentC1ERKNS_9GeoExtentEjj
libosgEarth.so.0:_ZN8osgEarth10DataExtentC1ERKNS_9GeoExtentEjjRKNSt7__cxx1112basic_stringIcSt11char_traitsIcESaIcEEE
libosgEarth.so.0:_ZN8osgEarth10DataExtentC1Ev
libosgEarth.so.0:_ZN8osgEarth10DataExtentC2ERKNS_9GeoExtentE
libosgEarth.so.0:_ZN8osgEarth10DataExtentC2ERKNS_9GeoExtentERKNSt7__cxx1112basic_stringIcSt11char_traitsIcESaIcEEE
libosgEarth.so.0:_ZN8osgEarth10DataExtentC2ERKNS_9GeoExtentEj
libosgEarth.so.0:_ZN8osgEarth10DataExtentC2ERKNS_9GeoExtentEjRKNSt7__cxx1112basic_stringIcSt11char_traitsIcESaIcEEE
libosgEarth.so.0:_ZN8osgEarth10DataExtentC2ERKNS_9GeoExtentEjj
libosgEarth.so.0:_ZN8osgEarth10DataExtentC2ERKNS_9GeoExtentEjjRKNSt7__cxx1112basic_stringIcSt11char_traitsIcESaIcEEE
libosgEarth.so.0:_ZN8osgEarth10DataExtentC2Ev
libosgEarth.so.0:_ZN8osgEarth10IconSymbol11mergeConfigERKNS_6ConfigE
libosgEarth.so.0:_ZN8osgEarth10IconSymbol8parseSLDERKNS_6ConfigERNS_5StyleE
libosgEarth.so.0:_ZN8osgEarth10IconSymbolC1ERKNS_6ConfigE
libosgEarth.so.0:_ZN8osgEarth10IconSymbolC1ERKS0_RKN3osg6CopyOpE
libosgEarth.so.0:_ZN8osgEarth10IconSymbolC2ERKNS_6ConfigE
libosgEarth.so.0:_ZN8osgEarth10IconSymbolC2ERKS0_RKN3osg6CopyOpE
libosgEarth.so.0:_ZN8osgEarth10ImageLayer10writeImageERKNS_7TileKeyEPKN3osg5ImageEPNS_16ProgressCallbackE
libosgEarth.so.0:_ZN8osgEarth10ImageLayer11addCallbackEPNS0_8CallbackE
libosgEarth.so.0:_ZN8osgEarth10ImageLayer11createImageERKNS_7TileKeyEPNS_16ProgressCallbackE
libosgEarth.so.0:_ZN8osgEarth10ImageLayer11setAltitudeERKNS_8DistanceE
libosgEarth.so.0:_ZN8osgEarth10ImageLayer11setCoverageEb
libosgEarth.so.0:_ZN8osgEarth10ImageLayer13assembleImageERKNS_7TileKeyEPNS_16ProgressCallbackE
libosgEarth.so.0:_ZN8osgEarth10ImageLayer14addColorFilterEPNS_11ColorFilterE
libosgEarth.so.0:_ZN8osgEarth10ImageLayer14removeCallbackEPNS0_8CallbackE
libosgEarth.so.0:_ZN8osgEarth10ImageLayer15invoke_onCreateERKNS_7TileKeyERNS_8GeoImageE
libosgEarth.so.0:_ZN8osgEarth10ImageLayer17removeColorFilterEPNS_11ColorFilterE
libosgEarth.so.0:_ZN8osgEarth10ImageLayer18openImplementationEv
libosgEarth.so.0:_ZN8osgEarth10ImageLayer19setUseCreateTextureEv
libosgEarth.so.0:_ZN8osgEarth10ImageLayer23createImageInKeyProfileERKNS_7TileKeyEPNS_16ProgressCallbackE
libosgEarth.so.0:_ZN8osgEarth10ImageLayer27setSharedTextureUniformNameERKNSt7__cxx1112basic_stringIcSt11char_traitsIcESaIcEEE
libosgEarth.so.0:_ZN8osgEarth10ImageLayer33setSharedTextureMatrixUniformNameERKNSt7__cxx1112basic_stringIcSt11char_traitsIcESaIcEEE
libosgEarth.so.0:_ZN8osgEarth10ImageLayer4initEv
libosgEarth.so.0:_ZN8osgEarth10ImageLayer6createERKNS_13ConfigOptionsE
libosgEarth.so.0:_ZN8osgEarth10ImageLayer7Options10fromConfigERKNS_6ConfigE
libosgEarth.so.0:_ZN8osgEarth10ImageLayer9setSharedEb
libosgEarth.so.0:_ZN8osgEarth10LineString10getSegmentEdRN3osg5Vec3dES3_
libosgEarth.so.0:_ZN8osgEarth10LineString5closeEv
libosgEarth.so.0:_ZN8osgEarth10LineStringC1EPKSt6vectorIN3osg5Vec3dESaIS3_EE
libosgEarth.so.0:_ZN8osgEarth10LineStringC1ERKS0_
libosgEarth.so.0:_ZN8osgEarth10LineStringC2EPKSt6vectorIN3osg5Vec3dESaIS3_EE
libosgEarth.so.0:_ZN8osgEarth10LineStringC2ERKS0_
libosgEarth.so.0:_ZN8osgEarth10LineStringD0Ev
libosgEarth.so.0:_ZN8osgEarth10LineStringD1Ev
libosgEarth.so.0:_ZN8osgEarth10LineStringD2Ev
libosgEarth.so.0:_ZN8osgEarth10LineSymbol11mergeConfigERKNS_6ConfigE
libosgEarth.so.0:_ZN8osgEarth10LineSymbol8parseSLDERKNS_6ConfigERNS_5StyleE
libosgEarth.so.0:_ZN8osgEarth10LineSymbolC1ERKNS_6ConfigE
libosgEarth.so.0:_ZN8osgEarth10LineSymbolC1ERKS0_RKN3osg6CopyOpE
libosgEarth.so.0:_ZN8osgEarth10LineSymbolC2ERKNS_6ConfigE
libosgEarth.so.0:_ZN8osgEarth10LineSymbolC2ERKS0_RKN3osg6CopyOpE
libosgEarth.so.0:_ZN8osgEarth10MaskSource4openEPKN5osgDB7OptionsE
libosgEarth.so.0:_ZN8osgEarth10MaskSourceC1ERKNS_17MaskSourceOptionsE
libosgEarth.so.0:_ZN8osgEarth10MaskSourceC2ERKNS_17MaskSourceOptionsE
libosgEarth.so.0:_ZN8osgEarth10MaskSourceD0Ev
libosgEarth.so.0:_ZN8osgEarth10MaskSourceD1Ev
libosgEarth.so.0:_ZN8osgEarth10MaskSourceD2Ev
libosgEarth.so.0:_ZN8osgEarth10ModelLayer10addedToMapEPKNS_3MapE
libosgEarth.so.0:_ZN8osgEarth10ModelLayer11setLODScaleERKf
libosgEarth.so.0:_ZN8osgEarth10ModelLayer11setLocationERKNS_8GeoPointE
libosgEarth.so.0:_ZN8osgEarth10ModelLayer12fireCallbackEMNS_18ModelLayerCallbackEFvPS0_E
libosgEarth.so.0:_ZN8osgEarth10ModelLayer14removedFromMapEPKNS_3MapE
libosgEarth.so.0:_ZN8osgEarth10ModelLayer14setOrientationERKN3osg5Vec3fE
libosgEarth.so.0:_ZN8osgEarth10ModelLayer15setMaskMinLevelERKj
libosgEarth.so.0:_ZN8osgEarth10ModelLayer15setShaderPolicyERKNS_12ShaderPolicyE
libosgEarth.so.0:_ZN8osgEarth10ModelLayer18openImplementationEv
libosgEarth.so.0:_ZN8osgEarth10ModelLayer18setLightingEnabledEb
libosgEarth.so.0:_ZN8osgEarth10ModelLayer23getOrCreateMaskBoundaryEfPKNS_16SpatialReferenceEPNS_16ProgressCallbackE
libosgEarth.so.0:_ZN8osgEarth10ModelLayer4initEv
libosgEarth.so.0:_ZN8osgEarth10ModelLayer6setURLERKNS_3URIE
libosgEarth.so.0:_ZN8osgEarth10ModelLayer7Options10fromConfigERKNS_6ConfigE
libosgEarth.so.0:_ZN8osgEarth10ModelLayer7setNodeEPN3osg4NodeE
libosgEarth.so.0:_ZN8osgEarth10ModelLayer8setPagedERKb
libosgEarth.so.0:_ZN8osgEarth10ModelLayerD0Ev
libosgEarth.so.0:_ZN8osgEarth10ModelLayerD1Ev
libosgEarth.so.0:_ZN8osgEarth10ModelLayerD2Ev
libosgEarth.so.0:_ZN8osgEarth10PatchLayer10createNodeERKNS_7TileKeyEPNS_16ProgressCallbackE
libosgEarth.so.0:_ZN8osgEarth10PatchLayer4initEv
libosgEarth.so.0:_ZN8osgEarth10PatchLayer7Options10fromConfigERKNS_6ConfigE
libosgEarth.so.0:_ZN8osgEarth10PointGroup16getPointDrawableEj
libosgEarth.so.0:_ZN8osgEarth10PointGroup6importEPN3osg4NodeEb
libosgEarth.so.0:_ZN8osgEarth10PointGroup8optimizeEv
libosgEarth.so.0:_ZN8osgEarth10PointGroupC1ERKS0_RKN3osg6CopyOpE
libosgEarth.so.0:_ZN8osgEarth10PointGroupC1Ev
libosgEarth.so.0:_ZN8osgEarth10PointGroupC2ERKS0_RKN3osg6CopyOpE
libosgEarth.so.0:_ZN8osgEarth10PointGroupC2Ev
libosgEarth.so.0:_ZN8osgEarth10PointGroupD0Ev
libosgEarth.so.0:_ZN8osgEarth10PointGroupD1Ev
libosgEarth.so.0:_ZN8osgEarth10PointGroupD2Ev
libosgEarth.so.0:_ZN8osgEarth10StyleSheet11removeStyleERKNSt7__cxx1112basic_stringIcSt11char_traitsIcESaIcEEE
libosgEarth.so.0:_ZN8osgEarth10StyleSheet12getSelectorsB5cxx11Ev
libosgEarth.so.0:_ZN8osgEarth10StyleSheet15getDefaultStyleEv
libosgEarth.so.0:_ZN8osgEarth10StyleSheet18addResourceLibraryEPNS_4Util15ResourceLibraryE
libosgEarth.so.0:_ZN8osgEarth10StyleSheet7Options10fromConfigERKNS_6ConfigE
libosgEarth.so.0:_ZN8osgEarth10StyleSheet8addStyleERKNS_5StyleE
libosgEarth.so.0:_ZN8osgEarth10StyleSheet8getStyleERKNSt7__cxx1112basic_stringIcSt11char_traitsIcESaIcEEEb
libosgEarth.so.0:_ZN8osgEarth10StyleSheet9getStylesB5cxx11Ev
libosgEarth.so.0:_ZN8osgEarth10StyleSheet9setScriptEPNS0_9ScriptDefE
libosgEarth.so.0:_ZN8osgEarth10TextSymbol11mergeConfigERKNS_6ConfigE
libosgEarth.so.0:_ZN8osgEarth10TextSymbol8parseSLDERKNS_6ConfigERNS_5StyleE
libosgEarth.so.0:_ZN8osgEarth10TextSymbolC1ERKNS_6ConfigE
libosgEarth.so.0:_ZN8osgEarth10TextSymbolC1ERKS0_RKN3osg6CopyOpE
libosgEarth.so.0:_ZN8osgEarth10TextSymbolC2ERKNS_6ConfigE
libosgEarth.so.0:_ZN8osgEarth10TextSymbolC2ERKS0_RKN3osg6CopyOpE
libosgEarth.so.0:_ZN8osgEarth10URIContext10getHeadersB5cxx11Ev
libosgEarth.so.0:_ZN8osgEarth10URIContext5storeEPN5osgDB7OptionsE
libosgEarth.so.0:_ZN8osgEarth10URIContext9addHeaderERKNSt7__cxx1112basic_stringIcSt11char_traitsIcESaIcEEES8_
libosgEarth.so.0:_ZN8osgEarth10URIContextC1EPKN5osgDB7OptionsE
libosgEarth.so.0:_ZN8osgEarth10URIContextC1ERKNSt7__cxx1112basic_stringIcSt11char_traitsIcESaIcEEE
libosgEarth.so.0:_ZN8osgEarth10URIContextC1ERKS0_
libosgEarth.so.0:_ZN8osgEarth10URIContextC1Ev
libosgEarth.so.0:_ZN8osgEarth10URIContextC2EPKN5osgDB7OptionsE
libosgEarth.so.0:_ZN8osgEarth10URIContextC2ERKNSt7__cxx1112basic_stringIcSt11char_traitsIcESaIcEEE
libosgEarth.so.0:_ZN8osgEarth10URIContextC2ERKS0_
libosgEarth.so.0:_ZN8osgEarth10URIContextC2Ev
libosgEarth.so.0:_ZN8osgEarth10VideoLayer18openImplementationEv
libosgEarth.so.0:_ZN8osgEarth10VideoLayer4initEv
libosgEarth.so.0:_ZN8osgEarth10VideoLayer6setURLERKNS_3URIE
libosgEarth.so.0:_ZN8osgEarth10VideoLayer7Options10fromConfigERKNS_6ConfigE
libosgEarth.so.0:_ZN8osgEarth10initializeEv
libosgEarth.so.0:_ZN8osgEarth11CachePolicy10fromConfigERKNS_6ConfigE
libosgEarth.so.0:_ZN8osgEarth11CachePolicy16mergeAndOverrideERKNS_8optionalIS0_EE
libosgEarth.so.0:_ZN8osgEarth11CachePolicy16mergeAndOverrideERKS0_
libosgEarth.so.0:_ZN8osgEarth11CachePolicyC1ERKNS0_5UsageE
libosgEarth.so.0:_ZN8osgEarth11CachePolicyC1ERKNS_6ConfigE
libosgEarth.so.0:_ZN8osgEarth11CachePolicyC1ERKS0_
libosgEarth.so.0:_ZN8osgEarth11CachePolicyC1Ev
libosgEarth.so.0:_ZN8osgEarth11CachePolicyC2ERKNS0_5UsageE
libosgEarth.so.0:_ZN8osgEarth11CachePolicyC2ERKNS_6ConfigE
libosgEarth.so.0:_ZN8osgEarth11CachePolicyC2ERKS0_
libosgEarth.so.0:_ZN8osgEarth11CachePolicyC2Ev
libosgEarth.so.0:_ZN8osgEarth11CachePolicyaSERKS0_
libosgEarth.so.0:_ZN8osgEarth11EllipseNode11setArcStartERKNS_5AngleE
libosgEarth.so.0:_ZN8osgEarth11EllipseNode13buildGeometryEv
libosgEarth.so.0:_ZN8osgEarth11EllipseNode14setNumSegmentsEj
libosgEarth.so.0:_ZN8osgEarth11EllipseNode14setRadiusMajorERKNS_8DistanceE
libosgEarth.so.0:_ZN8osgEarth11EllipseNode14setRadiusMinorERKNS_8DistanceE
libosgEarth.so.0:_ZN8osgEarth11EllipseNode16setRotationAngleERKNS_5AngleE
libosgEarth.so.0:_ZN8osgEarth11EllipseNode3setERKNS_8GeoPointERKNS_8DistanceES6_RKNS_5AngleERKNS_5StyleES9_S9_b
libosgEarth.so.0:_ZN8osgEarth11EllipseNode6setPieERKb
libosgEarth.so.0:_ZN8osgEarth11EllipseNode8setRadiiERKNS_8DistanceES3_
libosgEarth.so.0:_ZN8osgEarth11EllipseNode9constructEv
libosgEarth.so.0:_ZN8osgEarth11EllipseNode9setArcEndERKNS_5AngleE
libosgEarth.so.0:_ZN8osgEarth11EllipseNodeC1ERKNS_6ConfigEPKN5osgDB7OptionsE
libosgEarth.so.0:_ZN8osgEarth11EllipseNodeC1Ev
libosgEarth.so.0:_ZN8osgEarth11EllipseNodeC2ERKNS_6ConfigEPKN5osgDB7OptionsE
libosgEarth.so.0:_ZN8osgEarth11EllipseNodeC2Ev
libosgEarth.so.0:_ZN8osgEarth11FadeOptionsC1ERKNS_6ConfigE
libosgEarth.so.0:_ZN8osgEarth11FadeOptionsC2ERKNS_6ConfigE
libosgEarth.so.0:_ZN8osgEarth11FeatureNode10getFeatureEv
libosgEarth.so.0:_ZN8osgEarth11FeatureNode10setFeatureEPNS_7FeatureE
libosgEarth.so.0:_ZN8osgEarth11FeatureNode10setMapNodeEPNS_7MapNodeE
libosgEarth.so.0:_ZN8osgEarth11FeatureNode12onTileUpdateERKNS_7TileKeyEPN3osg4NodeERNS_22TerrainCallbackContextE
libosgEarth.so.0:_ZN8osgEarth11FeatureNode13setStyleSheetEPNS_10StyleSheetE
libosgEarth.so.0:_ZN8osgEarth11FeatureNode5buildEv
libosgEarth.so.0:_ZN8osgEarth11FeatureNode5clampEPN3osg4NodeEPKNS_7TerrainE
libosgEarth.so.0:_ZN8osgEarth11FeatureNode5dirtyEv
libosgEarth.so.0:_ZN8osgEarth11FeatureNode8getIndexEv
libosgEarth.so.0:_ZN8osgEarth11FeatureNode8setIndexEPNS_19FeatureIndexBuilderE
libosgEarth.so.0:_ZN8osgEarth11FeatureNode8setStyleERKNS_5StyleE
libosgEarth.so.0:_ZN8osgEarth11FeatureNode8traverseERN3osg11NodeVisitorE
libosgEarth.so.0:_ZN8osgEarth11FeatureNodeC1EPNS_7FeatureERKNS_5StyleERKNS_23GeometryCompilerOptionsEPNS_10StyleSheetE
libosgEarth.so.0:_ZN8osgEarth11FeatureNodeC1ERKNS_6ConfigEPKN5osgDB7OptionsE
libosgEarth.so.0:_ZN8osgEarth11FeatureNodeC1ERKNSt7__cxx114listIN3osg7ref_ptrINS_7FeatureEEESaIS6_EEERKNS_5StyleERKNS_23GeometryCompilerOptionsEPNS_10StyleSheetE
libosgEarth.so.0:_ZN8osgEarth11FeatureNodeC2EPNS_7FeatureERKNS_5StyleERKNS_23GeometryCompilerOptionsEPNS_10StyleSheetE
libosgEarth.so.0:_ZN8osgEarth11FeatureNodeC2ERKNS_6ConfigEPKN5osgDB7OptionsE
libosgEarth.so.0:_ZN8osgEarth11FeatureNodeC2ERKNSt7__cxx114listIN3osg7ref_ptrINS_7FeatureEEESaIS6_EEERKNS_5StyleERKNS_23GeometryCompilerOptionsEPNS_10StyleSheetE
libosgEarth.so.0:_ZN8osgEarth11HorizonNode8traverseERN3osg11NodeVisitorE
libosgEarth.so.0:_ZN8osgEarth11HorizonNodeC1Ev
libosgEarth.so.0:_ZN8osgEarth11HorizonNodeC2Ev
libosgEarth.so.0:_ZN8osgEarth11MapCallback17onMapModelChangedERKNS_14MapModelChangeE
libosgEarth.so.0:_ZN8osgEarth11MapCallback18invokeOnLayerAddedEPKNS_3MapE
libosgEarth.so.0:_ZN8osgEarth11MapCallback20invokeOnLayerRemovedEPKNS_3MapE
libosgEarth.so.0:_ZN8osgEarth11ModelSource10createNodeEPKNS_3MapEPNS_16ProgressCallbackE
libosgEarth.so.0:_ZN8osgEarth11ModelSource4openEPKN5osgDB7OptionsE
libosgEarth.so.0:_ZN8osgEarth11ModelSourceC1ERKNS_18ModelSourceOptionsE
libosgEarth.so.0:_ZN8osgEarth11ModelSourceC2ERKNS_18ModelSourceOptionsE
libosgEarth.so.0:_ZN8osgEarth11ModelSourceD0Ev
libosgEarth.so.0:_ZN8osgEarth11ModelSourceD1Ev
libosgEarth.so.0:_ZN8osgEarth11ModelSourceD2Ev
libosgEarth.so.0:_ZN8osgEarth11ModelSymbol11mergeConfigERKNS_6ConfigE
libosgEarth.so.0:_ZN8osgEarth11ModelSymbol8parseSLDERKNS_6ConfigERNS_5StyleE
libosgEarth.so.0:_ZN8osgEarth11ModelSymbolC1ERKNS_6ConfigE
libosgEarth.so.0:_ZN8osgEarth11ModelSymbolC1ERKS0_RKN3osg6CopyOpE
libosgEarth.so.0:_ZN8osgEarth11ModelSymbolC2ERKNS_6ConfigE
libosgEarth.so.0:_ZN8osgEarth11ModelSymbolC2ERKS0_RKN3osg6CopyOpE
libosgEarth.so.0:_ZN8osgEarth11ObjectIndex10insertImplEPN3osg10ReferencedE
libosgEarth.so.0:_ZN8osgEarth11ObjectIndex10removeImplEj
libosgEarth.so.0:_ZN8osgEarth11ObjectIndex11tagDrawableEPN3osg8DrawableEPNS1_10ReferencedE
libosgEarth.so.0:_ZN8osgEarth11ObjectIndex14updateObjectIDEPN3osg4NodeERSt3mapIjjSt4lessIjESaISt4pairIKjjEEEPNS1_10ReferencedE
libosgEarth.so.0:_ZN8osgEarth11ObjectIndex15tagAllDrawablesEPN3osg4NodeEPNS1_10ReferencedE
libosgEarth.so.0:_ZN8osgEarth11ObjectIndex15updateObjectIDsEPN3osg8DrawableERSt3mapIjjSt4lessIjESaISt4pairIKjjEEEPNS1_10ReferencedE
libosgEarth.so.0:_ZN8osgEarth11ObjectIndex25setObjectIDAtrribLocationEi
libosgEarth.so.0:_ZN8osgEarth11ObjectIndex6insertEPN3osg10ReferencedE
libosgEarth.so.0:_ZN8osgEarth11ObjectIndex6removeEj
libosgEarth.so.0:_ZN8osgEarth11ObjectIndex7tagNodeEPN3osg4NodeEPNS1_10ReferencedE
libosgEarth.so.0:_ZN8osgEarth11ObjectIndexC1Ev
libosgEarth.so.0:_ZN8osgEarth11ObjectIndexC2Ev
libosgEarth.so.0:_ZN8osgEarth11PointSymbol11mergeConfigERKNS_6ConfigE
libosgEarth.so.0:_ZN8osgEarth11PointSymbol8parseSLDERKNS_6ConfigERNS_5StyleE
libosgEarth.so.0:_ZN8osgEarth11PointSymbolC1ERKNS_6ConfigE
libosgEarth.so.0:_ZN8osgEarth11PointSymbolC1ERKS0_RKN3osg6CopyOpE
libosgEarth.so.0:_ZN8osgEarth11PointSymbolC2ERKNS_6ConfigE
libosgEarth.so.0:_ZN8osgEarth11PointSymbolC2ERKS0_RKN3osg6CopyOpE
libosgEarth.so.0:_ZN8osgEarth11ScaleFilter4pushERNSt7__cxx114listIN3osg7ref_ptrINS_7FeatureEEESaIS6_EEERNS_4Util13FilterContextE
libosgEarth.so.0:_ZN8osgEarth11ScaleFilterC1Ed
libosgEarth.so.0:_ZN8osgEarth11ScaleFilterC1Ev
libosgEarth.so.0:_ZN8osgEarth11ScaleFilterC2Ed
libosgEarth.so.0:_ZN8osgEarth11ScaleFilterC2Ev
libosgEarth.so.0:_ZN8osgEarth11Serializers10PointGroup27wrapper_propfunc_PointGroupEPN5osgDB13ObjectWrapperE
libosgEarth.so.0:_ZN8osgEarth11Serializers11MaterialGL328wrapper_propfunc_MaterialGL3EPN5osgDB13ObjectWrapperE
libosgEarth.so.0:_ZN8osgEarth11Serializers12LineDrawable29wrapper_propfunc_LineDrawableEPN5osgDB13ObjectWrapperE
libosgEarth.so.0:_ZN8osgEarth11Serializers12StringObject29wrapper_propfunc_StringObjectEPN5osgDB13ObjectWrapperE
libosgEarth.so.0:_ZN8osgEarth11Serializers13ClampableNode30wrapper_propfunc_ClampableNodeEPN5osgDB13ObjectWrapperE
libosgEarth.so.0:_ZN8osgEarth11Serializers13DrapeableNode30wrapper_propfunc_DrapeableNodeEPN5osgDB13ObjectWrapperE
libosgEarth.so.0:_ZN8osgEarth11Serializers13PointDrawable30wrapper_propfunc_PointDrawableEPN5osgDB13ObjectWrapperE
libosgEarth.so.0:_ZN8osgEarth11Serializers13TextureBuffer30wrapper_propfunc_TextureBufferEPN5osgDB13ObjectWrapperE
libosgEarth.so.0:_ZN8osgEarth11Serializers20InstallCameraUniform37wrapper_propfunc_InstallCameraUniformEPN5osgDB13ObjectWrapperE
libosgEarth.so.0:_ZN8osgEarth11Serializers27FeatureSourceIndexNodeClass10readFIDMapERN5osgDB11InputStreamERNS_22FeatureSourceIndexNodeE
libosgEarth.so.0:_ZN8osgEarth11Serializers27FeatureSourceIndexNodeClass11checkFIDMapERKNS_22FeatureSourceIndexNodeE
libosgEarth.so.0:_ZN8osgEarth11Serializers27FeatureSourceIndexNodeClass11writeFIDMapERN5osgDB12OutputStreamERKNS_22FeatureSourceIndexNodeE
libosgEarth.so.0:_ZN8osgEarth11Serializers27FeatureSourceIndexNodeClass39wrapper_propfunc_FeatureSourceIndexNodeEPN5osgDB13ObjectWrapperE
libosgEarth.so.0:_ZN8osgEarth11Serializers8LightGL325wrapper_propfunc_LightGL3EPN5osgDB13ObjectWrapperE
libosgEarth.so.0:_ZN8osgEarth11Serializers9LineGroup26wrapper_propfunc_LineGroupEPN5osgDB13ObjectWrapperE
libosgEarth.so.0:_ZN8osgEarth11Serializers9PlaceNode26wrapper_propfunc_PlaceNodeEPN5osgDB13ObjectWrapperE
libosgEarth.so.0:_ZN8osgEarth11URIAliasMap6insertERKNSt7__cxx1112basic_stringIcSt11char_traitsIcESaIcEEES8_
libosgEarth.so.0:_ZN8osgEarth12ArcGISServer10MapService4initERKNS_3URIEPKN5osgDB7OptionsE
libosgEarth.so.0:_ZN8osgEarth12ArcGISServer10MapService8setErrorERKNSt7__cxx1112basic_stringIcSt11char_traitsIcESaIcEEE
libosgEarth.so.0:_ZN8osgEarth12ArcGISServer10MapServiceC1Ev
libosgEarth.so.0:_ZN8osgEarth12ArcGISServer10MapServiceC2Ev
libosgEarth.so.0:_ZN8osgEarth12ArcGISServer15MapServiceLayerC1EiRKNSt7__cxx1112basic_stringIcSt11char_traitsIcESaIcEEE
libosgEarth.so.0:_ZN8osgEarth12ArcGISServer15MapServiceLayerC2EiRKNSt7__cxx1112basic_stringIcSt11char_traitsIcESaIcEEE
libosgEarth.so.0:_ZN8osgEarth12ArcGISServer8TileInfoC1ERKS1_
libosgEarth.so.0:_ZN8osgEarth12ArcGISServer8TileInfoC1EiRKNSt7__cxx1112basic_stringIcSt11char_traitsIcESaIcEEEiiii
libosgEarth.so.0:_ZN8osgEarth12ArcGISServer8TileInfoC1Ev
libosgEarth.so.0:_ZN8osgEarth12ArcGISServer8TileInfoC2ERKS1_
libosgEarth.so.0:_ZN8osgEarth12ArcGISServer8TileInfoC2EiRKNSt7__cxx1112basic_stringIcSt11char_traitsIcESaIcEEEiiii
libosgEarth.so.0:_ZN8osgEarth12ArcGISServer8TileInfoC2Ev
libosgEarth.so.0:_ZN8osgEarth12CacheOptionsD0Ev
libosgEarth.so.0:_ZN8osgEarth12CacheOptionsD1Ev
libosgEarth.so.0:_ZN8osgEarth12CacheOptionsD2Ev
libosgEarth.so.0:_ZN8osgEarth12CapabilitiesC1Ev
libosgEarth.so.0:_ZN8osgEarth12CapabilitiesC2Ev
libosgEarth.so.0:_ZN8osgEarth12ElevationLOD11setMaxRangeEf
libosgEarth.so.0:_ZN8osgEarth12ElevationLOD11setMinRangeEf
libosgEarth.so.0:_ZN8osgEarth12ElevationLOD13setElevationsEdd
libosgEarth.so.0:_ZN8osgEarth12ElevationLOD15setMaxElevationEd
libosgEarth.so.0:_ZN8osgEarth12ElevationLOD15setMinElevationEd
libosgEarth.so.0:_ZN8osgEarth12ElevationLOD8traverseERN3osg11NodeVisitorE
libosgEarth.so.0:_ZN8osgEarth12ElevationLODC1EPKNS_16SpatialReferenceE
libosgEarth.so.0:_ZN8osgEarth12ElevationLODC1EPKNS_16SpatialReferenceEdd
libosgEarth.so.0:_ZN8osgEarth12ElevationLODC1ERKS0_RKN3osg6CopyOpE
libosgEarth.so.0:_ZN8osgEarth12ElevationLODC1Ev
libosgEarth.so.0:_ZN8osgEarth12ElevationLODC2EPKNS_16SpatialReferenceE
libosgEarth.so.0:_ZN8osgEarth12ElevationLODC2EPKNS_16SpatialReferenceEdd
libosgEarth.so.0:_ZN8osgEarth12ElevationLODC2ERKS0_RKN3osg6CopyOpE
libosgEarth.so.0:_ZN8osgEarth12ElevationLODC2Ev
libosgEarth.so.0:_ZN8osgEarth12ElevationLODD0Ev
libosgEarth.so.0:_ZN8osgEarth12ElevationLODD1Ev
libosgEarth.so.0:_ZN8osgEarth12ElevationLODD2Ev
libosgEarth.so.0:_ZN8osgEarth12FeatureLevel10fromConfigERKNS_6ConfigE
libosgEarth.so.0:_ZN8osgEarth12FeatureLevelC1ERKNS_6ConfigE
libosgEarth.so.0:_ZN8osgEarth12FeatureLevelC1Eff
libosgEarth.so.0:_ZN8osgEarth12FeatureLevelC1EffRKNSt7__cxx1112basic_stringIcSt11char_traitsIcESaIcEEE
libosgEarth.so.0:_ZN8osgEarth12FeatureLevelC2ERKNS_6ConfigE
libosgEarth.so.0:_ZN8osgEarth12FeatureLevelC2Eff
libosgEarth.so.0:_ZN8osgEarth12FeatureLevelC2EffRKNSt7__cxx1112basic_stringIcSt11char_traitsIcESaIcEEE
libosgEarth.so.0:_ZN8osgEarth12GDALDEMLayer10addedToMapEPKNS_3MapE
libosgEarth.so.0:_ZN8osgEarth12GDALDEMLayer14removedFromMapEPKNS_3MapE
libosgEarth.so.0:_ZN8osgEarth12GDALDEMLayer17setElevationLayerEPNS_14ElevationLayerE
libosgEarth.so.0:_ZN8osgEarth12GDALDEMLayer18openImplementationEv
libosgEarth.so.0:_ZN8osgEarth12GDALDEMLayer19closeImplementationEv
libosgEarth.so.0:_ZN8osgEarth12GDALDEMLayer4initEv
libosgEarth.so.0:_ZN8osgEarth12GDALDEMLayer7Options10fromConfigERKNS_6ConfigE
libosgEarth.so.0:_ZN8osgEarth12GeoTransform10setTerrainEPNS_7TerrainE
libosgEarth.so.0:_ZN8osgEarth12GeoTransform11setPositionERKNS_8GeoPointE
libosgEarth.so.0:_ZN8osgEarth12GeoTransform12onTileUpdateERKNS_7TileKeyEPN3osg4NodeERNS_22TerrainCallbackContextE
libosgEarth.so.0:_ZN8osgEarth12GeoTransform13objectDeletedEPv
libosgEarth.so.0:_ZN8osgEarth12GeoTransform23setAutoRecomputeHeightsEb
libosgEarth.so.0:_ZN8osgEarth12GeoTransform24setComputeMatrixCallbackEPNS0_21ComputeMatrixCallbackE
libosgEarth.so.0:_ZN8osgEarth12GeoTransform8traverseERN3osg11NodeVisitorE
libosgEarth.so.0:_ZN8osgEarth12GeoTransformC1ERKS0_RKN3osg6CopyOpE
libosgEarth.so.0:_ZN8osgEarth12GeoTransformC1Ev
libosgEarth.so.0:_ZN8osgEarth12GeoTransformC2ERKS0_RKN3osg6CopyOpE
libosgEarth.so.0:_ZN8osgEarth12GeoTransformC2Ev
libosgEarth.so.0:_ZN8osgEarth12GeoTransformD0Ev
libosgEarth.so.0:_ZN8osgEarth12GeoTransformD1Ev
libosgEarth.so.0:_ZN8osgEarth12GeoTransformD2Ev
libosgEarth.so.0:_ZN8osgEarth12ImageOverlay10createNodeEPNS_7FeatureEb
libosgEarth.so.0:_ZN8osgEarth12ImageOverlay10setCornersERKN3osg5Vec2dES4_S4_S4_
libosgEarth.so.0:_ZN8osgEarth12ImageOverlay10setMapNodeEPNS_7MapNodeE
libosgEarth.so.0:_ZN8osgEarth12ImageOverlay11addCallbackEPNS0_20ImageOverlayCallbackE
libosgEarth.so.0:_ZN8osgEarth12ImageOverlay12setLowerLeftEdd
libosgEarth.so.0:_ZN8osgEarth12ImageOverlay12setMagFilterEN3osg7Texture10FilterModeE
libosgEarth.so.0:_ZN8osgEarth12ImageOverlay12setMinFilterEN3osg7Texture10FilterModeE
libosgEarth.so.0:_ZN8osgEarth12ImageOverlay12setUpperLeftEdd
libosgEarth.so.0:_ZN8osgEarth12ImageOverlay13setLowerRightEdd
libosgEarth.so.0:_ZN8osgEarth12ImageOverlay13setUpperRightEdd
libosgEarth.so.0:_ZN8osgEarth12ImageOverlay13updateFiltersEv
libosgEarth.so.0:_ZN8osgEarth12ImageOverlay14clampLatitudesEv
libosgEarth.so.0:_ZN8osgEarth12ImageOverlay14removeCallbackEPNS0_20ImageOverlayCallbackE
libosgEarth.so.0:_ZN8osgEarth12ImageOverlay15getControlPointENS0_12ControlPointE
libosgEarth.so.0:_ZN8osgEarth12ImageOverlay15setControlPointENS0_12ControlPointEddb
libosgEarth.so.0:_ZN8osgEarth12ImageOverlay20setBoundsAndRotationERKNS_6BoundsERKNS_5AngleE
libosgEarth.so.0:_ZN8osgEarth12ImageOverlay5dirtyEv
libosgEarth.so.0:_ZN8osgEarth12ImageOverlay7compileEv
libosgEarth.so.0:_ZN8osgEarth12ImageOverlay7setEastEd
libosgEarth.so.0:_ZN8osgEarth12ImageOverlay7setWestEd
libosgEarth.so.0:_ZN8osgEarth12ImageOverlay8setAlphaEf
libosgEarth.so.0:_ZN8osgEarth12ImageOverlay8setImageEPN3osg5ImageE
libosgEarth.so.0:_ZN8osgEarth12ImageOverlay8setNorthEd
libosgEarth.so.0:_ZN8osgEarth12ImageOverlay8setSouthEd
libosgEarth.so.0:_ZN8osgEarth12ImageOverlay8traverseERN3osg11NodeVisitorE
libosgEarth.so.0:_ZN8osgEarth12ImageOverlay9constructEv
libosgEarth.so.0:_ZN8osgEarth12ImageOverlay9setBoundsERKNS_6BoundsE
libosgEarth.so.0:_ZN8osgEarth12ImageOverlay9setCenterEdd
libosgEarth.so.0:_ZN8osgEarth12ImageOverlay9setDrapedEb
libosgEarth.so.0:_ZN8osgEarth12ImageOverlayC1EPNS_7MapNodeEPN3osg5ImageE
libosgEarth.so.0:_ZN8osgEarth12ImageOverlayC1ERKNS_6ConfigEPKN5osgDB7OptionsE
libosgEarth.so.0:_ZN8osgEarth12ImageOverlayC2EPNS_7MapNodeEPN3osg5ImageE
libosgEarth.so.0:_ZN8osgEarth12ImageOverlayC2ERKNS_6ConfigEPKN5osgDB7OptionsE
libosgEarth.so.0:_ZN8osgEarth12LineDrawable10initializeEv
libosgEarth.so.0:_ZN8osgEarth12LineDrawable10pushVertexERKN3osg5Vec3fE
libosgEarth.so.0:_ZN8osgEarth12LineDrawable12setLineWidthEPN3osg8StateSetEfi
libosgEarth.so.0:_ZN8osgEarth12LineDrawable12setLineWidthEf
libosgEarth.so.0:_ZN8osgEarth12LineDrawable12setupShadersEv
libosgEarth.so.0:_ZN8osgEarth12LineDrawable13setLineSmoothEb
libosgEarth.so.0:_ZN8osgEarth12LineDrawable16setStippleFactorEi
libosgEarth.so.0:_ZN8osgEarth12LineDrawable16updateFirstCountEv
libosgEarth.so.0:_ZN8osgEarth12LineDrawable17importVertexArrayEPKN3osg13TemplateArrayINS1_5Vec3fELNS1_5Array4TypeE28ELi3ELi5126EEE
libosgEarth.so.0:_ZN8osgEarth12LineDrawable17setStipplePatternEt
libosgEarth.so.0:_ZN8osgEarth12LineDrawable21resizeGLObjectBuffersEj
libosgEarth.so.0:_ZN8osgEarth12LineDrawable5clearEv
libosgEarth.so.0:_ZN8osgEarth12LineDrawable5dirtyEv
libosgEarth.so.0:_ZN8osgEarth12LineDrawable6acceptERN3osg11NodeVisitorE
libosgEarth.so.0:_ZN8osgEarth12LineDrawable7reserveEj
libosgEarth.so.0:_ZN8osgEarth12LineDrawable7setModeEj
libosgEarth.so.0:_ZN8osgEarth12LineDrawable8allocateEj
libosgEarth.so.0:_ZN8osgEarth12LineDrawable8setColorERKN3osg5Vec4fE
libosgEarth.so.0:_ZN8osgEarth12LineDrawable8setColorEjRKN3osg5Vec4fE
libosgEarth.so.0:_ZN8osgEarth12LineDrawable8setCountEj
libosgEarth.so.0:_ZN8osgEarth12LineDrawable8setFirstEj
libosgEarth.so.0:_ZN8osgEarth12LineDrawable9setUseGPUEb
libosgEarth.so.0:_ZN8osgEarth12LineDrawable9setVertexEjRKN3osg5Vec3fE
libosgEarth.so.0:_ZN8osgEarth12LineDrawableC1ERKS0_RKN3osg6CopyOpE
libosgEarth.so.0:_ZN8osgEarth12LineDrawableC1Ej
libosgEarth.so.0:_ZN8osgEarth12LineDrawableC1Ev
libosgEarth.so.0:_ZN8osgEarth12LineDrawableC2ERKS0_RKN3osg6CopyOpE
libosgEarth.so.0:_ZN8osgEarth12LineDrawableC2Ej
libosgEarth.so.0:_ZN8osgEarth12LineDrawableC2Ev
libosgEarth.so.0:_ZN8osgEarth12LineDrawableD0Ev
libosgEarth.so.0:_ZN8osgEarth12LineDrawableD1Ev
libosgEarth.so.0:_ZN8osgEarth12LineDrawableD2Ev
libosgEarth.so.0:_ZN8osgEarth12RenderSymbol11mergeConfigERKNS_6ConfigE
libosgEarth.so.0:_ZN8osgEarth12RenderSymbol8parseSLDERKNS_6ConfigERNS_5StyleE
libosgEarth.so.0:_ZN8osgEarth12RenderSymbolC1ERKNS_6ConfigE
libosgEarth.so.0:_ZN8osgEarth12RenderSymbolC1ERKS0_RKN3osg6CopyOpE
libosgEarth.so.0:_ZN8osgEarth12RenderSymbolC2ERKNS_6ConfigE
libosgEarth.so.0:_ZN8osgEarth12RenderSymbolC2ERKS0_RKN3osg6CopyOpE
libosgEarth.so.0:_ZN8osgEarth12ScriptFilter11isSupportedEv
libosgEarth.so.0:_ZN8osgEarth12ScriptFilter4ctorEv
libosgEarth.so.0:_ZN8osgEarth12ScriptFilter4pushEPNS_7FeatureERNS_4Util13FilterContextE
libosgEarth.so.0:_ZN8osgEarth12ScriptFilter4pushERNSt7__cxx114listIN3osg7ref_ptrINS_7FeatureEEESaIS6_EEERNS_4Util13FilterContextE
libosgEarth.so.0:_ZN8osgEarth12ScriptFilterC1ERKNS_6ConfigE
libosgEarth.so.0:_ZN8osgEarth12ScriptFilterC1Ev
libosgEarth.so.0:_ZN8osgEarth12ScriptFilterC2ERKNS_6ConfigE
libosgEarth.so.0:_ZN8osgEarth12ScriptFilterC2Ev
libosgEarth.so.0:_ZN8osgEarth12StringObject9setStringERKNSt7__cxx1112basic_stringIcSt11char_traitsIcESaIcEEE
libosgEarth.so.0:_ZN8osgEarth12StringObjectC1Ev
libosgEarth.so.0:_ZN8osgEarth12StringObjectC2Ev
libosgEarth.so.0:_ZN8osgEarth12StringObjectD0Ev
libosgEarth.so.0:_ZN8osgEarth12StringObjectD1Ev
libosgEarth.so.0:_ZN8osgEarth12StringObjectD2Ev
libosgEarth.so.0:_ZN8osgEarth12TiXmlComment5ParseEPKcP16TiXmlParsingData13TiXmlEncoding
libosgEarth.so.0:_ZN8osgEarth12TiXmlComment8StreamInEPSiPNSt7__cxx1112basic_stringIcSt11char_traitsIcESaIcEEE
libosgEarth.so.0:_ZN8osgEarth12TiXmlCommentC1ERKS0_
libosgEarth.so.0:_ZN8osgEarth12TiXmlCommentC2ERKS0_
libosgEarth.so.0:_ZN8osgEarth12TiXmlCommentaSERKS0_
libosgEarth.so.0:_ZN8osgEarth12TiXmlElement12SetAttributeEPKcS2_
libosgEarth.so.0:_ZN8osgEarth12TiXmlElement12SetAttributeEPKci
libosgEarth.so.0:_ZN8osgEarth12TiXmlElement12SetAttributeERKNSt7__cxx1112basic_stringIcSt11char_traitsIcESaIcEEES8_
libosgEarth.so.0:_ZN8osgEarth12TiXmlElement12SetAttributeERKNSt7__cxx1112basic_stringIcSt11char_traitsIcESaIcEEEi
libosgEarth.so.0:_ZN8osgEarth12TiXmlElement15RemoveAttributeEPKc
libosgEarth.so.0:_ZN8osgEarth12TiXmlElement18SetDoubleAttributeEPKcd
libosgEarth.so.0:_ZN8osgEarth12TiXmlElement18SetDoubleAttributeERKNSt7__cxx1112basic_stringIcSt11char_traitsIcESaIcEEEd
libosgEarth.so.0:_ZN8osgEarth12TiXmlElement5ParseEPKcP16TiXmlParsingData13TiXmlEncoding
libosgEarth.so.0:_ZN8osgEarth12TiXmlElement8StreamInEPSiPNSt7__cxx1112basic_stringIcSt11char_traitsIcESaIcEEE
libosgEarth.so.0:_ZN8osgEarth12TiXmlElement9ClearThisEv
libosgEarth.so.0:_ZN8osgEarth12TiXmlElement9ReadValueEPKcP16TiXmlParsingData13TiXmlEncoding
libosgEarth.so.0:_ZN8osgEarth12TiXmlElementC1EPKc
libosgEarth.so.0:_ZN8osgEarth12TiXmlElementC1ERKNSt7__cxx1112basic_stringIcSt11char_traitsIcESaIcEEE
libosgEarth.so.0:_ZN8osgEarth12TiXmlElementC1ERKS0_
libosgEarth.so.0:_ZN8osgEarth12TiXmlElementC2EPKc
libosgEarth.so.0:_ZN8osgEarth12TiXmlElementC2ERKNSt7__cxx1112basic_stringIcSt11char_traitsIcESaIcEEE
libosgEarth.so.0:_ZN8osgEarth12TiXmlElementC2ERKS0_
libosgEarth.so.0:_ZN8osgEarth12TiXmlElementD0Ev
libosgEarth.so.0:_ZN8osgEarth12TiXmlElementD1Ev
libosgEarth.so.0:_ZN8osgEarth12TiXmlElementD2Ev
libosgEarth.so.0:_ZN8osgEarth12TiXmlElementaSERKS0_
libosgEarth.so.0:_ZN8osgEarth12TiXmlUnknown5ParseEPKcP16TiXmlParsingData13TiXmlEncoding
libosgEarth.so.0:_ZN8osgEarth12TiXmlUnknown8StreamInEPSiPNSt7__cxx1112basic_stringIcSt11char_traitsIcESaIcEEE
libosgEarth.so.0:_ZN8osgEarth12VisibleLayer10setOpacityEf
libosgEarth.so.0:_ZN8osgEarth12VisibleLayer10setVisibleEb
libosgEarth.so.0:_ZN8osgEarth12VisibleLayer12fireCallbackEMNS_20VisibleLayerCallbackEFvPS0_E
libosgEarth.so.0:_ZN8osgEarth12VisibleLayer18initializeBlendingEv
libosgEarth.so.0:_ZN8osgEarth12VisibleLayer18openImplementationEv
libosgEarth.so.0:_ZN8osgEarth12VisibleLayer18setMaxVisibleRangeEf
libosgEarth.so.0:_ZN8osgEarth12VisibleLayer18setMinVisibleRangeEf
libosgEarth.so.0:_ZN8osgEarth12VisibleLayer19setAttenuationRangeEf
libosgEarth.so.0:_ZN8osgEarth12VisibleLayer27installDefaultOpacityShaderEv
libosgEarth.so.0:_ZN8osgEarth12VisibleLayer28initializeMinMaxRangeOpacityEv
libosgEarth.so.0:_ZN8osgEarth12VisibleLayer4initEv
libosgEarth.so.0:_ZN8osgEarth12VisibleLayer7Options10fromConfigERKNS_6ConfigE
libosgEarth.so.0:_ZN8osgEarth12VisibleLayerD0Ev
libosgEarth.so.0:_ZN8osgEarth12VisibleLayerD1Ev
libosgEarth.so.0:_ZN8osgEarth12VisibleLayerD2Ev
libosgEarth.so.0:_ZN8osgEarth12getGDALMutexEv
libosgEarth.so.0:_ZN8osgEarth13ClampableNode8traverseERN3osg11NodeVisitorE
libosgEarth.so.0:_ZN8osgEarth13ClampableNodeC1Ev
libosgEarth.so.0:_ZN8osgEarth13ClampableNodeC2Ev
libosgEarth.so.0:_ZN8osgEarth13ConfigOptionsD0Ev
libosgEarth.so.0:_ZN8osgEarth13ConfigOptionsD1Ev
libosgEarth.so.0:_ZN8osgEarth13ConfigOptionsD2Ev
libosgEarth.so.0:_ZN8osgEarth13DateTimeRange8expandByERKNS_8DateTimeE
libosgEarth.so.0:_ZN8osgEarth13DateTimeRange8expandByERKS0_
libosgEarth.so.0:_ZN8osgEarth13DrapeableNode17setDrapingEnabledEb
libosgEarth.so.0:_ZN8osgEarth13DrapeableNode8traverseERN3osg11NodeVisitorE
libosgEarth.so.0:_ZN8osgEarth13DrapeableNodeC1ERKS0_RKN3osg6CopyOpE
libosgEarth.so.0:_ZN8osgEarth13DrapeableNodeC1Ev
libosgEarth.so.0:_ZN8osgEarth13DrapeableNodeC2ERKS0_RKN3osg6CopyOpE
libosgEarth.so.0:_ZN8osgEarth13DrapeableNodeC2Ev
libosgEarth.so.0:_ZN8osgEarth13ElevationPool11setTileSizeEj
libosgEarth.so.0:_ZN8osgEarth13ElevationPool12getElevationERKNS_8GeoPointEj
libosgEarth.so.0:_ZN8osgEarth13ElevationPool13stopThreadingEv
libosgEarth.so.0:_ZN8osgEarth13ElevationPool14GetElevationOpC1EPS0_RKNS_8GeoPointEj
libosgEarth.so.0:_ZN8osgEarth13ElevationPool14GetElevationOpC2EPS0_RKNS_8GeoPointEj
libosgEarth.so.0:_ZN8osgEarth13ElevationPool14GetElevationOpclEPN3osg6ObjectE
libosgEarth.so.0:_ZN8osgEarth13ElevationPool14createEnvelopeEPKNS_16SpatialReferenceEj
libosgEarth.so.0:_ZN8osgEarth13ElevationPool18setElevationLayersERKNS_20ElevationLayerVectorE
libosgEarth.so.0:_ZN8osgEarth13ElevationPool5clearEv
libosgEarth.so.0:_ZN8osgEarth13ElevationPool6popMRUEv
libosgEarth.so.0:_ZN8osgEarth13ElevationPool6setMapEPKNS_3MapE
libosgEarth.so.0:_ZN8osgEarth13ElevationPool7getTileERKNS_7TileKeyERKNS_20ElevationLayerVectorERNS_4Util12UnorderedMapIS1_S1_EERN3osg7ref_ptrINS0_4TileEEE
libosgEarth.so.0:_ZN8osgEarth13ElevationPool7tryTileERKNS_7TileKeyERKNS_20ElevationLayerVectorERNS_4Util12UnorderedMapIS1_S1_EERN3osg7ref_ptrINS0_4TileEEE
libosgEarth.so.0:_ZN8osgEarth13ElevationPool9clearImplEv
libosgEarth.so.0:_ZN8osgEarth13ElevationPoolC1Ev
libosgEarth.so.0:_ZN8osgEarth13ElevationPoolC2Ev
libosgEarth.so.0:_ZN8osgEarth13ElevationPoolD0Ev
libosgEarth.so.0:_ZN8osgEarth13ElevationPoolD1Ev
libosgEarth.so.0:_ZN8osgEarth13ElevationPoolD2Ev
libosgEarth.so.0:_ZN8osgEarth13FeatureCursor4fillERNSt7__cxx114listIN3osg7ref_ptrINS_7FeatureEEESaIS6_EEE
libosgEarth.so.0:_ZN8osgEarth13FeatureCursorC1EPNS_16ProgressCallbackE
libosgEarth.so.0:_ZN8osgEarth13FeatureCursorC2EPNS_16ProgressCallbackE
libosgEarth.so.0:_ZN8osgEarth13FeatureCursorD0Ev
libosgEarth.so.0:_ZN8osgEarth13FeatureCursorD1Ev
libosgEarth.so.0:_ZN8osgEarth13FeatureCursorD2Ev
libosgEarth.so.0:_ZN8osgEarth13FeatureSource12setOpenWriteERKb
libosgEarth.so.0:_ZN8osgEarth13FeatureSource14addToBlacklistEx
libosgEarth.so.0:_ZN8osgEarth13FeatureSource14clearBlacklistEv
libosgEarth.so.0:_ZN8osgEarth13FeatureSource15setFIDAttributeERKNSt7__cxx1112basic_stringIcSt11char_traitsIcESaIcEEE
libosgEarth.so.0:_ZN8osgEarth13FeatureSource17setFeatureProfileEPKNS_14FeatureProfileE
libosgEarth.so.0:_ZN8osgEarth13FeatureSource17setRewindPolygonsERKb
libosgEarth.so.0:_ZN8osgEarth13FeatureSource18openImplementationEv
libosgEarth.so.0:_ZN8osgEarth13FeatureSource19createFeatureCursorERKNS_5QueryEPNS_16ProgressCallbackE
libosgEarth.so.0:_ZN8osgEarth13FeatureSource19createFeatureCursorERKNS_7TileKeyEPNS_16ProgressCallbackE
libosgEarth.so.0:_ZN8osgEarth13FeatureSource19createFeatureCursorERKNS_7TileKeyERKNS_8DistanceEPNS_16ProgressCallbackE
libosgEarth.so.0:_ZN8osgEarth13FeatureSource19removeFromBlacklistEx
libosgEarth.so.0:_ZN8osgEarth13FeatureSource19setGeoInterpolationERKNS_16GeoInterpolationE
libosgEarth.so.0:_ZN8osgEarth13FeatureSource4initEv
libosgEarth.so.0:_ZN8osgEarth13FeatureSource6createEPKNS_14FeatureProfileERKSt3mapINSt7__cxx1112basic_stringIcSt11char_traitsIcESaIcEEENS_13AttributeTypeESt4lessISA_ESaISt4pairIKSA_SB_EEERKNS_8Geometry4TypeEPKN5osgDB7OptionsE
libosgEarth.so.0:_ZN8osgEarth13FeatureSource6createERKNS_13ConfigOptionsE
libosgEarth.so.0:_ZN8osgEarth13FeatureSource7Options10fromConfigERKNS_6ConfigE
libosgEarth.so.0:_ZN8osgEarth13GeometryUtils13geometryToGMLB5cxx11EPKNS_8GeometryE
libosgEarth.so.0:_ZN8osgEarth13GeometryUtils13geometryToKMLB5cxx11EPKNS_8GeometryE
libosgEarth.so.0:_ZN8osgEarth13GeometryUtils13geometryToWKTB5cxx11EPKNS_8GeometryE
libosgEarth.so.0:_ZN8osgEarth13GeometryUtils15geometryFromWKTERKNSt7__cxx1112basic_stringIcSt11char_traitsIcESaIcEEEb
libosgEarth.so.0:_ZN8osgEarth13GeometryUtils15getGeometryAreaEPKNS_8GeometryE
libosgEarth.so.0:_ZN8osgEarth13GeometryUtils17geometryToGeoJSONB5cxx11EPKNS_8GeometryE
libosgEarth.so.0:_ZN8osgEarth13GeometryUtils19geometryFromGeoJSONERKNSt7__cxx1112basic_stringIcSt11char_traitsIcESaIcEEEb
libosgEarth.so.0:_ZN8osgEarth13InstanceCloud11setGeometryEPN3osg8GeometryE
libosgEarth.so.0:_ZN8osgEarth13InstanceCloud13ModelCruncher11popStateSetEv
libosgEarth.so.0:_ZN8osgEarth13InstanceCloud13ModelCruncher12pushStateSetERN3osg4NodeE
libosgEarth.so.0:_ZN8osgEarth13InstanceCloud13ModelCruncher17addTextureToAtlasEPN3osg7TextureE
libosgEarth.so.0:_ZN8osgEarth13InstanceCloud13ModelCruncher3addEPN3osg4NodeE
libosgEarth.so.0:_ZN8osgEarth13InstanceCloud13ModelCruncher5applyERN3osg4NodeE
libosgEarth.so.0:_ZN8osgEarth13InstanceCloud13ModelCruncher5applyERN3osg8GeometryE
libosgEarth.so.0:_ZN8osgEarth13InstanceCloud13ModelCruncher8finalizeEv
libosgEarth.so.0:_ZN8osgEarth13InstanceCloud13ModelCruncherC1Ev
libosgEarth.so.0:_ZN8osgEarth13InstanceCloud13ModelCruncherC2Ev
libosgEarth.so.0:_ZN8osgEarth13InstanceCloud14InstancingData17allocateGLObjectsEPN3osg5StateEj
libosgEarth.so.0:_ZN8osgEarth13InstanceCloud14InstancingDataC1Ev
libosgEarth.so.0:_ZN8osgEarth13InstanceCloud14InstancingDataC2Ev
libosgEarth.so.0:_ZN8osgEarth13InstanceCloud14InstancingDataD1Ev
libosgEarth.so.0:_ZN8osgEarth13InstanceCloud14InstancingDataD2Ev
libosgEarth.so.0:_ZN8osgEarth13InstanceCloud15setNumInstancesEjj
libosgEarth.so.0:_ZN8osgEarth13InstanceCloud17allocateGLObjectsERN3osg10RenderInfoEj
libosgEarth.so.0:_ZN8osgEarth13InstanceCloud7preCullERN3osg10RenderInfoE
libosgEarth.so.0:_ZN8osgEarth13InstanceCloud8RendererC1EPNS0_14InstancingDataE
libosgEarth.so.0:_ZN8osgEarth13InstanceCloud8RendererC2EPNS0_14InstancingDataE
libosgEarth.so.0:_ZN8osgEarth13InstanceCloud8cullTileERN3osg10RenderInfoEj
libosgEarth.so.0:_ZN8osgEarth13InstanceCloud8drawTileERN3osg10RenderInfoEj
libosgEarth.so.0:_ZN8osgEarth13InstanceCloud8postCullERN3osg10RenderInfoE
libosgEarth.so.0:_ZN8osgEarth13InstanceCloud9Installer5applyERN3osg8DrawableE
libosgEarth.so.0:_ZN8osgEarth13InstanceCloud9InstallerC1EPNS0_14InstancingDataE
libosgEarth.so.0:_ZN8osgEarth13InstanceCloud9InstallerC2EPNS0_14InstancingDataE
libosgEarth.so.0:_ZN8osgEarth13InstanceCloudC1Ev
libosgEarth.so.0:_ZN8osgEarth13InstanceCloudC2Ev
libosgEarth.so.0:_ZN8osgEarth13MultiGeometry20removeColinearPointsEv
libosgEarth.so.0:_ZN8osgEarth13MultiGeometry5closeEv
libosgEarth.so.0:_ZN8osgEarth13MultiGeometry6rewindENS_8Geometry11OrientationE
libosgEarth.so.0:_ZN8osgEarth13MultiGeometryC1ERKS0_
libosgEarth.so.0:_ZN8osgEarth13MultiGeometryC1ERKSt6vectorIN3osg7ref_ptrINS_8GeometryEEESaIS5_EE
libosgEarth.so.0:_ZN8osgEarth13MultiGeometryC2ERKS0_
libosgEarth.so.0:_ZN8osgEarth13MultiGeometryC2ERKSt6vectorIN3osg7ref_ptrINS_8GeometryEEESaIS5_EE
libosgEarth.so.0:_ZN8osgEarth13MultiGeometryD0Ev
libosgEarth.so.0:_ZN8osgEarth13MultiGeometryD1Ev
libosgEarth.so.0:_ZN8osgEarth13MultiGeometryD2Ev
libosgEarth.so.0:_ZN8osgEarth13PointDrawable10initializeEv
libosgEarth.so.0:_ZN8osgEarth13PointDrawable10pushVertexERKN3osg5Vec3fE
libosgEarth.so.0:_ZN8osgEarth13PointDrawable10setupStateEv
libosgEarth.so.0:_ZN8osgEarth13PointDrawable12setPointSizeEf
libosgEarth.so.0:_ZN8osgEarth13PointDrawable14setPointSmoothEb
libosgEarth.so.0:_ZN8osgEarth13PointDrawable16updateFirstCountEv
libosgEarth.so.0:_ZN8osgEarth13PointDrawable17importVertexArrayEPKN3osg13TemplateArrayINS1_5Vec3fELNS1_5Array4TypeE28ELi3ELi5126EEE
libosgEarth.so.0:_ZN8osgEarth13PointDrawable21resizeGLObjectBuffersEj
libosgEarth.so.0:_ZN8osgEarth13PointDrawable5clearEv
libosgEarth.so.0:_ZN8osgEarth13PointDrawable5dirtyEv
libosgEarth.so.0:_ZN8osgEarth13PointDrawable6acceptERN3osg11NodeVisitorE
libosgEarth.so.0:_ZN8osgEarth13PointDrawable6insertEjRKN3osg5Vec3fE
libosgEarth.so.0:_ZN8osgEarth13PointDrawable7reserveEj
libosgEarth.so.0:_ZN8osgEarth13PointDrawable8allocateEj
libosgEarth.so.0:_ZN8osgEarth13PointDrawable8setColorERKN3osg5Vec4fE
libosgEarth.so.0:_ZN8osgEarth13PointDrawable8setColorEjRKN3osg5Vec4fE
libosgEarth.so.0:_ZN8osgEarth13PointDrawable8setCountEj
libosgEarth.so.0:_ZN8osgEarth13PointDrawable8setFirstEj
libosgEarth.so.0:_ZN8osgEarth13PointDrawable9setVertexEjRKN3osg5Vec3fE
libosgEarth.so.0:_ZN8osgEarth13PointDrawableC1ERKS0_RKN3osg6CopyOpE
libosgEarth.so.0:_ZN8osgEarth13PointDrawableC1Ev
libosgEarth.so.0:_ZN8osgEarth13PointDrawableC2ERKS0_RKN3osg6CopyOpE
libosgEarth.so.0:_ZN8osgEarth13PointDrawableC2Ev
libosgEarth.so.0:_ZN8osgEarth13PointDrawableD0Ev
libosgEarth.so.0:_ZN8osgEarth13PointDrawableD1Ev
libosgEarth.so.0:_ZN8osgEarth13PointDrawableD2Ev
libosgEarth.so.0:_ZN8osgEarth13PolygonSymbol11mergeConfigERKNS_6ConfigE
libosgEarth.so.0:_ZN8osgEarth13PolygonSymbol8parseSLDERKNS_6ConfigERNS_5StyleE
libosgEarth.so.0:_ZN8osgEarth13PolygonSymbolC1ERKNS_6ConfigE
libosgEarth.so.0:_ZN8osgEarth13PolygonSymbolC1ERKS0_RKN3osg6CopyOpE
libosgEarth.so.0:_ZN8osgEarth13PolygonSymbolC2ERKNS_6ConfigE
libosgEarth.so.0:_ZN8osgEarth13PolygonSymbolC2ERKS0_RKN3osg6CopyOpE
libosgEarth.so.0:_ZN8osgEarth13ProxySettings11fromOptionsEPKN5osgDB7OptionsERNS_8optionalIS0_EE
libosgEarth.so.0:_ZN8osgEarth13ProxySettings11mergeConfigERKNS_6ConfigE
libosgEarth.so.0:_ZN8osgEarth13ProxySettingsC1ERKNS_6ConfigE
libosgEarth.so.0:_ZN8osgEarth13ProxySettingsC1ERKNSt7__cxx1112basic_stringIcSt11char_traitsIcESaIcEEEi
libosgEarth.so.0:_ZN8osgEarth13ProxySettingsC2ERKNS_6ConfigE
libosgEarth.so.0:_ZN8osgEarth13ProxySettingsC2ERKNSt7__cxx1112basic_stringIcSt11char_traitsIcESaIcEEEi
libosgEarth.so.0:_ZN8osgEarth13RectangleNode12setLowerLeftERKNS_8GeoPointE
libosgEarth.so.0:_ZN8osgEarth13RectangleNode12setUpperLeftERKNS_8GeoPointE
libosgEarth.so.0:_ZN8osgEarth13RectangleNode13setLowerRightERKNS_8GeoPointE
libosgEarth.so.0:_ZN8osgEarth13RectangleNode13setUpperRightERKNS_8GeoPointE
libosgEarth.so.0:_ZN8osgEarth13RectangleNode7compileEv
libosgEarth.so.0:_ZN8osgEarth13RectangleNode7setSizeERKNS_8DistanceES3_
libosgEarth.so.0:_ZN8osgEarth13RectangleNode8setStyleERKNS_5StyleE
libosgEarth.so.0:_ZN8osgEarth13RectangleNode8setWidthERKNS_8DistanceE
libosgEarth.so.0:_ZN8osgEarth13RectangleNode9constructEv
libosgEarth.so.0:_ZN8osgEarth13RectangleNode9setCornerENS0_6CornerERKNS_8GeoPointE
libosgEarth.so.0:_ZN8osgEarth13RectangleNode9setHeightERKNS_8DistanceE
libosgEarth.so.0:_ZN8osgEarth13RectangleNodeC1ERKNS_6ConfigEPKN5osgDB7OptionsE
libosgEarth.so.0:_ZN8osgEarth13RectangleNodeC1ERKNS_8GeoPointERKNS_8DistanceES6_RKNS_5StyleE
libosgEarth.so.0:_ZN8osgEarth13RectangleNodeC1Ev
libosgEarth.so.0:_ZN8osgEarth13RectangleNodeC2ERKNS_6ConfigEPKN5osgDB7OptionsE
libosgEarth.so.0:_ZN8osgEarth13RectangleNodeC2ERKNS_8GeoPointERKNS_8DistanceES6_RKNS_5StyleE
libosgEarth.so.0:_ZN8osgEarth13RectangleNodeC2Ev
libosgEarth.so.0:_ZN8osgEarth13ScatterFilter11lineScatterEPKNS_8GeometryEPKNS_16SpatialReferenceERKNS_4Util13FilterContextEPNS_8PointSetE
libosgEarth.so.0:_ZN8osgEarth13ScatterFilter11polyScatterEPKNS_8GeometryEPKNS_16SpatialReferenceERKNS_4Util13FilterContextEPNS_8PointSetE
libosgEarth.so.0:_ZN8osgEarth13ScatterFilter4pushERNSt7__cxx114listIN3osg7ref_ptrINS_7FeatureEEESaIS6_EEERNS_4Util13FilterContextE
libosgEarth.so.0:_ZN8osgEarth13ScatterFilterC1Ev
libosgEarth.so.0:_ZN8osgEarth13ScatterFilterC2Ev
libosgEarth.so.0:_ZN8osgEarth13SphereDragger11updateColorEv
libosgEarth.so.0:_ZN8osgEarth13SphereDragger12setPickColorERKN3osg5Vec4fE
libosgEarth.so.0:_ZN8osgEarth13SphereDragger5enterEv
libosgEarth.so.0:_ZN8osgEarth13SphereDragger5leaveEv
libosgEarth.so.0:_ZN8osgEarth13SphereDragger7setSizeEf
libosgEarth.so.0:_ZN8osgEarth13SphereDragger8setColorERKN3osg5Vec4fE
libosgEarth.so.0:_ZN8osgEarth13SphereDraggerC1EPNS_7MapNodeE
libosgEarth.so.0:_ZN8osgEarth13SphereDraggerC2EPNS_7MapNodeE
libosgEarth.so.0:_ZN8osgEarth13StateSetCache10setMaxSizeEj
libosgEarth.so.0:_ZN8osgEarth13StateSetCache16pruneIfNecessaryEv
libosgEarth.so.0:_ZN8osgEarth13StateSetCache20consolidateStateSetsEPN3osg4NodeEb
libosgEarth.so.0:_ZN8osgEarth13StateSetCache26consolidateStateAttributesEPN3osg4NodeEb
libosgEarth.so.0:_ZN8osgEarth13StateSetCache5clearEv
libosgEarth.so.0:_ZN8osgEarth13StateSetCache5pruneEv
libosgEarth.so.0:_ZN8osgEarth13StateSetCache5shareERN3osg7ref_ptrINS1_14StateAttributeEEES5_b
libosgEarth.so.0:_ZN8osgEarth13StateSetCache5shareERN3osg7ref_ptrINS1_8StateSetEEES5_b
libosgEarth.so.0:_ZN8osgEarth13StateSetCache8optimizeEPN3osg4NodeEb
libosgEarth.so.0:_ZN8osgEarth13StateSetCache9dumpStatsEv
libosgEarth.so.0:_ZN8osgEarth13StateSetCacheC1Ev
libosgEarth.so.0:_ZN8osgEarth13StateSetCacheC2Ev
libosgEarth.so.0:_ZN8osgEarth13StateSetCacheD0Ev
libosgEarth.so.0:_ZN8osgEarth13StateSetCacheD1Ev
libosgEarth.so.0:_ZN8osgEarth13StateSetCacheD2Ev
libosgEarth.so.0:_ZN8osgEarth13StyleSelector11mergeConfigERKNS_6ConfigE
libosgEarth.so.0:_ZN8osgEarth13StyleSelectorC1ERKNS_6ConfigE
libosgEarth.so.0:_ZN8osgEarth13StyleSelectorC2ERKNS_6ConfigE
libosgEarth.so.0:_ZN8osgEarth13TMSImageLayer10setTMSTypeERKNSt7__cxx1112basic_stringIcSt11char_traitsIcESaIcEEE
libosgEarth.so.0:_ZN8osgEarth13TMSImageLayer18openImplementationEv
libosgEarth.so.0:_ZN8osgEarth13TMSImageLayer19closeImplementationEv
libosgEarth.so.0:_ZN8osgEarth13TMSImageLayer4initEv
libosgEarth.so.0:_ZN8osgEarth13TMSImageLayer6setURLERKNS_3URIE
libosgEarth.so.0:_ZN8osgEarth13TMSImageLayer7Options10fromConfigERKNS_6ConfigE
libosgEarth.so.0:_ZN8osgEarth13TMSImageLayer9setFormatERKNSt7__cxx1112basic_stringIcSt11char_traitsIcESaIcEEE
libosgEarth.so.0:_ZN8osgEarth13TiXmlDocument5ParseEPKcP16TiXmlParsingData13TiXmlEncoding
libosgEarth.so.0:_ZN8osgEarth13TiXmlDocument8LoadFileE13TiXmlEncoding
libosgEarth.so.0:_ZN8osgEarth13TiXmlDocument8LoadFileEP8_IO_FILE13TiXmlEncoding
libosgEarth.so.0:_ZN8osgEarth13TiXmlDocument8LoadFileEPKc13TiXmlEncoding
libosgEarth.so.0:_ZN8osgEarth13TiXmlDocument8SetErrorEiPKcP16TiXmlParsingData13TiXmlEncoding
libosgEarth.so.0:_ZN8osgEarth13TiXmlDocument8StreamInEPSiPNSt7__cxx1112basic_stringIcSt11char_traitsIcESaIcEEE
libosgEarth.so.0:_ZN8osgEarth13TiXmlDocumentC1EPKc
libosgEarth.so.0:_ZN8osgEarth13TiXmlDocumentC1ERKNSt7__cxx1112basic_stringIcSt11char_traitsIcESaIcEEE
libosgEarth.so.0:_ZN8osgEarth13TiXmlDocumentC1ERKS0_
libosgEarth.so.0:_ZN8osgEarth13TiXmlDocumentC1Ev
libosgEarth.so.0:_ZN8osgEarth13TiXmlDocumentC2EPKc
libosgEarth.so.0:_ZN8osgEarth13TiXmlDocumentC2ERKNSt7__cxx1112basic_stringIcSt11char_traitsIcESaIcEEE
libosgEarth.so.0:_ZN8osgEarth13TiXmlDocumentC2ERKS0_
libosgEarth.so.0:_ZN8osgEarth13TiXmlDocumentC2Ev
libosgEarth.so.0:_ZN8osgEarth13TiXmlDocumentaSERKS0_
libosgEarth.so.0:_ZN8osgEarth13VerticalDatum3getERKNSt7__cxx1112basic_stringIcSt11char_traitsIcESaIcEEE
libosgEarth.so.0:_ZN8osgEarth13VerticalDatum9transformEPKS0_S2_RKNS_9GeoExtentEPN3osg11HeightFieldE
libosgEarth.so.0:_ZN8osgEarth13VerticalDatum9transformEPKS0_S2_ddRd
libosgEarth.so.0:_ZN8osgEarth13VerticalDatum9transformEPKS0_S2_ddRf
libosgEarth.so.0:_ZN8osgEarth13VerticalDatumC1ERKNS_5UnitsE
libosgEarth.so.0:_ZN8osgEarth13VerticalDatumC1ERKNSt7__cxx1112basic_stringIcSt11char_traitsIcESaIcEEES8_PNS_5GeoidE
libosgEarth.so.0:_ZN8osgEarth13VerticalDatumC2ERKNS_5UnitsE
libosgEarth.so.0:_ZN8osgEarth13VerticalDatumC2ERKNSt7__cxx1112basic_stringIcSt11char_traitsIcESaIcEEES8_PNS_5GeoidE
libosgEarth.so.0:_ZN8osgEarth13WMSImageLayer12playSequenceEv
libosgEarth.so.0:_ZN8osgEarth13WMSImageLayer13pauseSequenceEv
libosgEarth.so.0:_ZN8osgEarth13WMSImageLayer14setTransparentERKb
libosgEarth.so.0:_ZN8osgEarth13WMSImageLayer18openImplementationEv
libosgEarth.so.0:_ZN8osgEarth13WMSImageLayer18setCapabilitiesURLERKNS_3URIE
libosgEarth.so.0:_ZN8osgEarth13WMSImageLayer18setSecondsPerFrameERKd
libosgEarth.so.0:_ZN8osgEarth13WMSImageLayer19seekToSequenceFrameEj
libosgEarth.so.0:_ZN8osgEarth13WMSImageLayer4initEv
libosgEarth.so.0:_ZN8osgEarth13WMSImageLayer6setCRSERKNSt7__cxx1112basic_stringIcSt11char_traitsIcESaIcEEE
libosgEarth.so.0:_ZN8osgEarth13WMSImageLayer6setSRSERKNSt7__cxx1112basic_stringIcSt11char_traitsIcESaIcEEE
libosgEarth.so.0:_ZN8osgEarth13WMSImageLayer6setURLERKNS_3URIE
libosgEarth.so.0:_ZN8osgEarth13WMSImageLayer8setStyleERKNSt7__cxx1112basic_stringIcSt11char_traitsIcESaIcEEE
libosgEarth.so.0:_ZN8osgEarth13WMSImageLayer8setTimesERKNSt7__cxx1112basic_stringIcSt11char_traitsIcESaIcEEE
libosgEarth.so.0:_ZN8osgEarth13WMSImageLayer9setFormatERKNSt7__cxx1112basic_stringIcSt11char_traitsIcESaIcEEE
libosgEarth.so.0:_ZN8osgEarth13WMSImageLayer9setLayersERKNSt7__cxx1112basic_stringIcSt11char_traitsIcESaIcEEE
libosgEarth.so.0:_ZN8osgEarth13XYZImageLayer10setInvertYERKb
libosgEarth.so.0:_ZN8osgEarth13XYZImageLayer18openImplementationEv
libosgEarth.so.0:_ZN8osgEarth13XYZImageLayer4initEv
libosgEarth.so.0:_ZN8osgEarth13XYZImageLayer6setURLERKNS_3URIE
libosgEarth.so.0:_ZN8osgEarth13XYZImageLayer9setFormatERKNSt7__cxx1112basic_stringIcSt11char_traitsIcESaIcEEE
libosgEarth.so.0:_ZN8osgEarth13pointInPoly2dERKN3osg5Vec3dEPKNS0_8GeometryEf
libosgEarth.so.0:_ZN8osgEarth13pointInPoly2dERKN3osg5Vec3dERKNS_7PolygonEd
libosgEarth.so.0:_ZN8osgEarth13polygonBBox2dERKN3osg13TemplateArrayINS0_5Vec3dELNS0_5Array4TypeE31ELi3ELi5130EEE
libosgEarth.so.0:_ZN8osgEarth14AltitudeSymbol11mergeConfigERKNS_6ConfigE
libosgEarth.so.0:_ZN8osgEarth14AltitudeSymbol8parseSLDERKNS_6ConfigERNS_5StyleE
libosgEarth.so.0:_ZN8osgEarth14AltitudeSymbolC1ERKNS_6ConfigE
libosgEarth.so.0:_ZN8osgEarth14AltitudeSymbolC1ERKS0_RKN3osg6CopyOpE
libosgEarth.so.0:_ZN8osgEarth14AltitudeSymbolC2ERKNS_6ConfigE
libosgEarth.so.0:_ZN8osgEarth14AltitudeSymbolC2ERKS0_RKN3osg6CopyOpE
libosgEarth.so.0:_ZN8osgEarth14AnnotationData11mergeConfigERKNS_6ConfigE
libosgEarth.so.0:_ZN8osgEarth14AnnotationDataC1ERKNS_6ConfigE
libosgEarth.so.0:_ZN8osgEarth14AnnotationDataC1Ev
libosgEarth.so.0:_ZN8osgEarth14AnnotationDataC2ERKNS_6ConfigE
libosgEarth.so.0:_ZN8osgEarth14AnnotationDataC2Ev
libosgEarth.so.0:_ZN8osgEarth14AnnotationDataD0Ev
libosgEarth.so.0:_ZN8osgEarth14AnnotationDataD1Ev
libosgEarth.so.0:_ZN8osgEarth14AnnotationDataD2Ev
libosgEarth.so.0:_ZN8osgEarth14AnnotationNode10applyStyleERKNS_5StyleE
libosgEarth.so.0:_ZN8osgEarth14AnnotationNode10setDynamicEb
libosgEarth.so.0:_ZN8osgEarth14AnnotationNode10setMapNodeEPNS_7MapNodeE
libosgEarth.so.0:_ZN8osgEarth14AnnotationNode11setPriorityEf
libosgEarth.so.0:_ZN8osgEarth14AnnotationNode17setHorizonCullingEb
libosgEarth.so.0:_ZN8osgEarth14AnnotationNode18setDefaultLightingEb
libosgEarth.so.0:_ZN8osgEarth14AnnotationNode18setDepthAdjustmentEb
libosgEarth.so.0:_ZN8osgEarth14AnnotationNode20applyRenderSymbologyERKNS_5StyleE
libosgEarth.so.0:_ZN8osgEarth14AnnotationNode8traverseERN3osg11NodeVisitorE
libosgEarth.so.0:_ZN8osgEarth14AnnotationNode9constructEv
libosgEarth.so.0:_ZN8osgEarth14AnnotationNodeC1ERKNS_6ConfigEPKN5osgDB7OptionsE
libosgEarth.so.0:_ZN8osgEarth14AnnotationNodeC1Ev
libosgEarth.so.0:_ZN8osgEarth14AnnotationNodeC2ERKNS_6ConfigEPKN5osgDB7OptionsE
libosgEarth.so.0:_ZN8osgEarth14AnnotationNodeC2Ev
libosgEarth.so.0:_ZN8osgEarth14AnnotationNodeD0Ev
libosgEarth.so.0:_ZN8osgEarth14AnnotationNodeD1Ev
libosgEarth.so.0:_ZN8osgEarth14AnnotationNodeD2Ev
libosgEarth.so.0:_ZN8osgEarth14BingImageLayer13setImagerySetERKNSt7__cxx1112basic_stringIcSt11char_traitsIcESaIcEEE
libosgEarth.so.0:_ZN8osgEarth14BingImageLayer18openImplementationEv
libosgEarth.so.0:_ZN8osgEarth14BingImageLayer19closeImplementationEv
libosgEarth.so.0:_ZN8osgEarth14BingImageLayer21setImageryMetadataURLERKNS_3URIE
libosgEarth.so.0:_ZN8osgEarth14BingImageLayer4initEv
libosgEarth.so.0:_ZN8osgEarth14BingImageLayer7Options10fromConfigERKNS_6ConfigE
libosgEarth.so.0:_ZN8osgEarth14BingImageLayer9setAPIKeyERKNSt7__cxx1112basic_stringIcSt11char_traitsIcESaIcEEE
libosgEarth.so.0:_ZN8osgEarth14BingImageLayerD0Ev
libosgEarth.so.0:_ZN8osgEarth14BingImageLayerD1Ev
libosgEarth.so.0:_ZN8osgEarth14BingImageLayerD2Ev
libosgEarth.so.0:_ZN8osgEarth14CoverageSymbol11mergeConfigERKNS_6ConfigE
libosgEarth.so.0:_ZN8osgEarth14CoverageSymbol8parseSLDERKNS_6ConfigERNS_5StyleE
libosgEarth.so.0:_ZN8osgEarth14CoverageSymbolC1ERKNS_6ConfigE
libosgEarth.so.0:_ZN8osgEarth14CoverageSymbolC1ERKS0_RKN3osg6CopyOpE
libosgEarth.so.0:_ZN8osgEarth14CoverageSymbolC2ERKNS_6ConfigE
libosgEarth.so.0:_ZN8osgEarth14CoverageSymbolC2ERKS0_RKN3osg6CopyOpE
libosgEarth.so.0:_ZN8osgEarth14ElevationLayer10setVisibleEb
libosgEarth.so.0:_ZN8osgEarth14ElevationLayer11addCallbackEPNS0_8CallbackE
libosgEarth.so.0:_ZN8osgEarth14ElevationLayer14removeCallbackEPNS0_8CallbackE
libosgEarth.so.0:_ZN8osgEarth14ElevationLayer15invoke_onCreateERKNS_7TileKeyERNS_14GeoHeightFieldE
libosgEarth.so.0:_ZN8osgEarth14ElevationLayer15setNoDataPolicyERKNS_21ElevationNoDataPolicyE
libosgEarth.so.0:_ZN8osgEarth14ElevationLayer16setVerticalDatumERKNSt7__cxx1112basic_stringIcSt11char_traitsIcESaIcEEE
libosgEarth.so.0:_ZN8osgEarth14ElevationLayer17createHeightFieldERKNS_7TileKeyE
libosgEarth.so.0:_ZN8osgEarth14ElevationLayer17createHeightFieldERKNS_7TileKeyEPNS_16ProgressCallbackE
libosgEarth.so.0:_ZN8osgEarth14ElevationLayer29createHeightFieldInKeyProfileERKNS_7TileKeyEPNS_16ProgressCallbackE
libosgEarth.so.0:_ZN8osgEarth14ElevationLayer4initEv
libosgEarth.so.0:_ZN8osgEarth14ElevationLayer7Options10fromConfigERKNS_6ConfigE
libosgEarth.so.0:_ZN8osgEarth14ElevationLayer9setOffsetEb
libosgEarth.so.0:_ZN8osgEarth14FeatureProfile11setMaxLevelEi
libosgEarth.so.0:_ZN8osgEarth14FeatureProfile13setFirstLevelEi
libosgEarth.so.0:_ZN8osgEarth14FeatureProfile16setTilingProfileEPKNS_7ProfileE
libosgEarth.so.0:_ZN8osgEarth14FeatureProfileC1EPKNS_7ProfileE
libosgEarth.so.0:_ZN8osgEarth14FeatureProfileC1ERKNS_9GeoExtentE
libosgEarth.so.0:_ZN8osgEarth14FeatureProfileC2EPKNS_7ProfileE
libosgEarth.so.0:_ZN8osgEarth14FeatureProfileC2ERKNS_9GeoExtentE
libosgEarth.so.0:_ZN8osgEarth14GDALImageLayer13setConnectionERKNSt7__cxx1112basic_stringIcSt11char_traitsIcESaIcEEE
libosgEarth.so.0:_ZN8osgEarth14GDALImageLayer13setSubDataSetERKj
libosgEarth.so.0:_ZN8osgEarth14GDALImageLayer14setWarpProfileERKNS_14ProfileOptionsE
libosgEarth.so.0:_ZN8osgEarth14GDALImageLayer16setInterpolationERKNS_19RasterInterpolationE
libosgEarth.so.0:_ZN8osgEarth14GDALImageLayer18openImplementationEv
libosgEarth.so.0:_ZN8osgEarth14GDALImageLayer19closeImplementationEv
libosgEarth.so.0:_ZN8osgEarth14GDALImageLayer4initEv
libosgEarth.so.0:_ZN8osgEarth14GDALImageLayer6setURLERKNS_3URIE
libosgEarth.so.0:_ZN8osgEarth14GDALImageLayer7Options10fromConfigERKNS_6ConfigE
libosgEarth.so.0:_ZN8osgEarth14GeoHeightField4initEv
libosgEarth.so.0:_ZN8osgEarth14GeoHeightFieldC1EPN3osg11HeightFieldEPNS_9NormalMapERKNS_9GeoExtentE
libosgEarth.so.0:_ZN8osgEarth14GeoHeightFieldC1EPN3osg11HeightFieldERKNS_9GeoExtentE
libosgEarth.so.0:_ZN8osgEarth14GeoHeightFieldC1ERKNS_6StatusE
libosgEarth.so.0:_ZN8osgEarth14GeoHeightFieldC1Ev
libosgEarth.so.0:_ZN8osgEarth14GeoHeightFieldC2EPN3osg11HeightFieldEPNS_9NormalMapERKNS_9GeoExtentE
libosgEarth.so.0:_ZN8osgEarth14GeoHeightFieldC2EPN3osg11HeightFieldERKNS_9GeoExtentE
libosgEarth.so.0:_ZN8osgEarth14GeoHeightFieldC2ERKNS_6StatusE
libosgEarth.so.0:_ZN8osgEarth14GeoHeightFieldC2Ev
libosgEarth.so.0:_ZN8osgEarth14InstanceSymbol11mergeConfigERKNS_6ConfigE
libosgEarth.so.0:_ZN8osgEarth14InstanceSymbolC1ERKNS_6ConfigE
libosgEarth.so.0:_ZN8osgEarth14InstanceSymbolC1ERKS0_RKN3osg6CopyOpE
libosgEarth.so.0:_ZN8osgEarth14InstanceSymbolC2ERKNS_6ConfigE
libosgEarth.so.0:_ZN8osgEarth14InstanceSymbolC2ERKS0_RKN3osg6CopyOpE
libosgEarth.so.0:_ZN8osgEarth14LandCoverClass10fromConfigERKNS_6ConfigE
libosgEarth.so.0:_ZN8osgEarth14LandCoverClassC1ERKNS_6ConfigE
libosgEarth.so.0:_ZN8osgEarth14LandCoverClassC1ERKNSt7__cxx1112basic_stringIcSt11char_traitsIcESaIcEEEi
libosgEarth.so.0:_ZN8osgEarth14LandCoverClassC1ERKS0_RKN3osg6CopyOpE
libosgEarth.so.0:_ZN8osgEarth14LandCoverClassC1Ev
libosgEarth.so.0:_ZN8osgEarth14LandCoverClassC2ERKNS_6ConfigE
libosgEarth.so.0:_ZN8osgEarth14LandCoverClassC2ERKNSt7__cxx1112basic_stringIcSt11char_traitsIcESaIcEEEi
libosgEarth.so.0:_ZN8osgEarth14LandCoverClassC2ERKS0_RKN3osg6CopyOpE
libosgEarth.so.0:_ZN8osgEarth14LandCoverClassC2Ev
libosgEarth.so.0:_ZN8osgEarth14LandCoverLayer10addedToMapEPKNS_3MapE
libosgEarth.so.0:_ZN8osgEarth14LandCoverLayer12buildCodeMapERSt6vectorIiSaIiEE
libosgEarth.so.0:_ZN8osgEarth14LandCoverLayer14removedFromMapEPKNS_3MapE
libosgEarth.so.0:_ZN8osgEarth14LandCoverLayer18openImplementationEv
libosgEarth.so.0:_ZN8osgEarth14LandCoverLayer25getLandCoverValueMappingsEv
libosgEarth.so.0:_ZN8osgEarth14LandCoverLayer3mapEiRKNSt7__cxx1112basic_stringIcSt11char_traitsIcESaIcEEE
libosgEarth.so.0:_ZN8osgEarth14LandCoverLayer4initEv
libosgEarth.so.0:_ZN8osgEarth14LandCoverLayer7Options10fromConfigERKNS_6ConfigE
libosgEarth.so.0:_ZN8osgEarth14LandCoverLayer9setSourceEPNS_10ImageLayerE
libosgEarth.so.0:_ZN8osgEarth14MeshSubdivider3runERN3osg8GeometryEdNS_16GeoInterpolationE
libosgEarth.so.0:_ZN8osgEarth14MeshSubdividerC1ERKN3osg7MatrixdES4_
libosgEarth.so.0:_ZN8osgEarth14MeshSubdividerC2ERKN3osg7MatrixdES4_
libosgEarth.so.0:_ZN8osgEarth14NetworkMonitor10getEnabledEv
libosgEarth.so.0:_ZN8osgEarth14NetworkMonitor10setEnabledEb
libosgEarth.so.0:_ZN8osgEarth14NetworkMonitor11getRequestsERSt3mapImNS0_7RequestESt4lessImESaISt4pairIKmS2_EEE
libosgEarth.so.0:_ZN8osgEarth14NetworkMonitor15getRequestLayerB5cxx11Ev
libosgEarth.so.0:_ZN8osgEarth14NetworkMonitor15setRequestLayerERKNSt7__cxx1112basic_stringIcSt11char_traitsIcESaIcEEE
libosgEarth.so.0:_ZN8osgEarth14NetworkMonitor3endEmRKNSt7__cxx1112basic_stringIcSt11char_traitsIcESaIcEEE
libosgEarth.so.0:_ZN8osgEarth14NetworkMonitor5beginERKNSt7__cxx1112basic_stringIcSt11char_traitsIcESaIcEEES8_S8_
libosgEarth.so.0:_ZN8osgEarth14NetworkMonitor5clearEv
libosgEarth.so.0:_ZN8osgEarth14NetworkMonitor7saveCSVERSt3mapImNS0_7RequestESt4lessImESaISt4pairIKmS2_EEERKNSt7__cxx1112basic_stringIcSt11char_traitsIcESaIcEEE
libosgEarth.so.0:_ZN8osgEarth14PowerlineLayer12ModelOptions10fromConfigERKNS_6ConfigE
libosgEarth.so.0:_ZN8osgEarth14PowerlineLayer7Options10fromConfigERKNS_6ConfigE
libosgEarth.so.0:_ZN8osgEarth14PowerlineLayer7Options11mergeConfigERKNS_6ConfigE
libosgEarth.so.0:_ZN8osgEarth14PowerlineLayer7OptionsC1ERKNS_13ConfigOptionsE
libosgEarth.so.0:_ZN8osgEarth14PowerlineLayer7OptionsC1Ev
libosgEarth.so.0:_ZN8osgEarth14PowerlineLayer7OptionsC2ERKNS_13ConfigOptionsE
libosgEarth.so.0:_ZN8osgEarth14PowerlineLayer7OptionsC2Ev
libosgEarth.so.0:_ZN8osgEarth14ProfileOptions10fromConfigERKNS_6ConfigE
libosgEarth.so.0:_ZN8osgEarth14ProfileOptions11mergeConfigERKNS_6ConfigE
libosgEarth.so.0:_ZN8osgEarth14ProfileOptionsC1ERKNS_13ConfigOptionsE
libosgEarth.so.0:_ZN8osgEarth14ProfileOptionsC1ERKNSt7__cxx1112basic_stringIcSt11char_traitsIcESaIcEEE
libosgEarth.so.0:_ZN8osgEarth14ProfileOptionsC2ERKNS_13ConfigOptionsE
libosgEarth.so.0:_ZN8osgEarth14ProfileOptionsC2ERKNSt7__cxx1112basic_stringIcSt11char_traitsIcESaIcEEE
libosgEarth.so.0:_ZN8osgEarth14TerrainOptions10fromConfigERKNS_6ConfigE
libosgEarth.so.0:_ZN8osgEarth14TiXmlAttribute11SetIntValueEi
libosgEarth.so.0:_ZN8osgEarth14TiXmlAttribute14SetDoubleValueEd
libosgEarth.so.0:_ZN8osgEarth14TiXmlAttribute5ParseEPKcP16TiXmlParsingData13TiXmlEncoding
libosgEarth.so.0:_ZN8osgEarth14TileRasterizer15RenderInstallerC1ERNS0_10RenderDataE
libosgEarth.so.0:_ZN8osgEarth14TileRasterizer15RenderInstallerC2ERNS0_10RenderDataE
libosgEarth.so.0:_ZN8osgEarth14TileRasterizer15RenderOperation9getFutureEv
libosgEarth.so.0:_ZN8osgEarth14TileRasterizer15RenderOperationC1EPN3osg4NodeERKNS_9GeoExtentERNS0_10RenderDataE
libosgEarth.so.0:_ZN8osgEarth14TileRasterizer15RenderOperationC2EPN3osg4NodeERKNS_9GeoExtentERNS0_10RenderDataE
libosgEarth.so.0:_ZN8osgEarth14TileRasterizer15RenderOperationclEPN3osg15GraphicsContextE
libosgEarth.so.0:_ZN8osgEarth14TileRasterizer6renderEPN3osg4NodeERKNS_9GeoExtentE
libosgEarth.so.0:_ZN8osgEarth14TileRasterizerC1Ejj
libosgEarth.so.0:_ZN8osgEarth14TileRasterizerC2Ejj
libosgEarth.so.0:_ZN8osgEarth14TileRasterizerD0Ev
libosgEarth.so.0:_ZN8osgEarth14TileRasterizerD1Ev
libosgEarth.so.0:_ZN8osgEarth14TileRasterizerD2Ev
libosgEarth.so.0:_ZN8osgEarth14VirtualProgram10getShadersERKN3osg5StateERSt6vectorINS1_7ref_ptrINS1_6ShaderEEESaIS8_EE
libosgEarth.so.0:_ZN8osgEarth14VirtualProgram11ShaderEntryC1Ev
libosgEarth.so.0:_ZN8osgEarth14VirtualProgram11ShaderEntryC2Ev
libosgEarth.so.0:_ZN8osgEarth14VirtualProgram11getOrCreateEPN3osg8StateSetE
libosgEarth.so.0:_ZN8osgEarth14VirtualProgram11setFunctionERKNSt7__cxx1112basic_stringIcSt11char_traitsIcESaIcEEES8_NS_10ShaderComp16FunctionLocationEPNS9_14AcceptCallbackEf
libosgEarth.so.0:_ZN8osgEarth14VirtualProgram11setFunctionERKNSt7__cxx1112basic_stringIcSt11char_traitsIcESaIcEEES8_NS_10ShaderComp16FunctionLocationEf
libosgEarth.so.0:_ZN8osgEarth14VirtualProgram12checkSharingEv
libosgEarth.so.0:_ZN8osgEarth14VirtualProgram12removeShaderERKNSt7__cxx1112basic_stringIcSt11char_traitsIcESaIcEEE
libosgEarth.so.0:_ZN8osgEarth14VirtualProgram13cloneOrCreateEPKN3osg8StateSetEPS2_
libosgEarth.so.0:_ZN8osgEarth14VirtualProgram13cloneOrCreateEPN3osg8StateSetE
libosgEarth.so.0:_ZN8osgEarth14VirtualProgram14getPolyShadersERKN3osg5StateERSt6vectorINS1_7ref_ptrINS_4Util10PolyShaderEEESaIS9_EE
libosgEarth.so.0:_ZN8osgEarth14VirtualProgram15AttrStackMemory6recallERKN3osg5StateERKSt6vectorISt4pairIPKNS2_14StateAttributeEjESaISB_EE
libosgEarth.so.0:_ZN8osgEarth14VirtualProgram15AttrStackMemory8rememberERKN3osg5StateERKSt6vectorISt4pairIPKNS2_14StateAttributeEjESaISB_EEPNS2_7ProgramE
libosgEarth.so.0:_ZN8osgEarth14VirtualProgram16addGLSLExtensionERKNSt7__cxx1112basic_stringIcSt11char_traitsIcESaIcEEE
libosgEarth.so.0:_ZN8osgEarth14VirtualProgram16setShaderLoggingEb
libosgEarth.so.0:_ZN8osgEarth14VirtualProgram16setShaderLoggingEbRKNSt7__cxx1112basic_stringIcSt11char_traitsIcESaIcEEE
libosgEarth.so.0:_ZN8osgEarth14VirtualProgram17accumulateShadersERKN3osg5StateEjRNS_4Util10vector_mapIjNS0_11ShaderEntryEEERSt3mapINSt7__cxx1112basic_stringIcSt11char_traitsIcESaIcEEEjSt4lessISG_ESaISt4pairIKSG_jEEERNS6_ISG_SG_EERb
libosgEarth.so.0:_ZN8osgEarth14VirtualProgram17setInheritShadersEb
libosgEarth.so.0:_ZN8osgEarth14VirtualProgram19removeGLSLExtensionERKNSt7__cxx1112basic_stringIcSt11char_traitsIcESaIcEEE
libosgEarth.so.0:_ZN8osgEarth14VirtualProgram21addBindAttribLocationERKNSt7__cxx1112basic_stringIcSt11char_traitsIcESaIcEEEj
libosgEarth.so.0:_ZN8osgEarth14VirtualProgram21resizeGLObjectBuffersEj
libosgEarth.so.0:_ZN8osgEarth14VirtualProgram24removeBindAttribLocationERKNSt7__cxx1112basic_stringIcSt11char_traitsIcESaIcEEE
libosgEarth.so.0:_ZN8osgEarth14VirtualProgram24setReleaseUnusedProgramsEb
libosgEarth.so.0:_ZN8osgEarth14VirtualProgram29setProgramBinaryCacheLocationERKNSt7__cxx1112basic_stringIcSt11char_traitsIcESaIcEEE
libosgEarth.so.0:_ZN8osgEarth14VirtualProgram30setAcceptCallbacksVaryPerFrameEb
libosgEarth.so.0:_ZN8osgEarth14VirtualProgram3getEPKN3osg8StateSetE
libosgEarth.so.0:_ZN8osgEarth14VirtualProgram3getEPN3osg8StateSetE
libosgEarth.so.0:_ZN8osgEarth14VirtualProgram9setShaderEPN3osg6ShaderEj
libosgEarth.so.0:_ZN8osgEarth14VirtualProgram9setShaderERKNSt7__cxx1112basic_stringIcSt11char_traitsIcESaIcEEEPN3osg6ShaderEj
libosgEarth.so.0:_ZN8osgEarth14VirtualProgramC1ERKS0_RKN3osg6CopyOpE
libosgEarth.so.0:_ZN8osgEarth14VirtualProgramC1Ej
libosgEarth.so.0:_ZN8osgEarth14VirtualProgramC2ERKS0_RKN3osg6CopyOpE
libosgEarth.so.0:_ZN8osgEarth14VirtualProgramC2Ej
libosgEarth.so.0:_ZN8osgEarth14VirtualProgramD0Ev
libosgEarth.so.0:_ZN8osgEarth14VirtualProgramD1Ev
libosgEarth.so.0:_ZN8osgEarth14VirtualProgramD2Ev
libosgEarth.so.0:_ZN8osgEarth14getNotifyLevelEv
libosgEarth.so.0:_ZN8osgEarth14setNotifyLevelEN3osg14NotifySeverityE
libosgEarth.so.0:_ZN8osgEarth15AnnotationLayer11deserializeEv
libosgEarth.so.0:_ZN8osgEarth15AnnotationLayer4initEv
libosgEarth.so.0:_ZN8osgEarth15AnnotationLayer7Options10fromConfigERKNS_6ConfigE
libosgEarth.so.0:_ZN8osgEarth15AnnotationLayer8addChildEPNS_14AnnotationNodeE
libosgEarth.so.0:_ZN8osgEarth15AnnotationUtils12createSphereEfRKN3osg5Vec4fEf
libosgEarth.so.0:_ZN8osgEarth15AnnotationUtils15createEllipsoidEfffRKN3osg5Vec4fEfffff
libosgEarth.so.0:_ZN8osgEarth15AnnotationUtils16createHemisphereEfRKN3osg5Vec4fEf
libosgEarth.so.0:_ZN8osgEarth15AnnotationUtils17getAltitudePolicyERKNS_5StyleERNS0_14AltitudePolicyE
libosgEarth.so.0:_ZN8osgEarth15AnnotationUtils18createTextDrawableERKNSt7__cxx1112basic_stringIcSt11char_traitsIcESaIcEEEPKNS_10TextSymbolEPKNS_10BBoxSymbolERKN3osg15BoundingBoxImplINSF_5Vec3fEEE
libosgEarth.so.0:_ZN8osgEarth15AnnotationUtils19createImageGeometryEPN3osg5ImageERKNS1_5Vec2sEjdd
libosgEarth.so.0:_ZN8osgEarth15AnnotationUtils19installTwoPassAlphaEPN3osg4NodeE
libosgEarth.so.0:_ZN8osgEarth15AnnotationUtils20installOverlayParentEPN3osg4NodeERKNS_5StyleE
libosgEarth.so.0:_ZN8osgEarth15AnnotationUtils23createEllipsoidGeometryEfffRKN3osg5Vec4fEfffff
libosgEarth.so.0:_ZN8osgEarth15AnnotationUtils25convertTextSymbolEncodingENS_10TextSymbol8EncodingE
libosgEarth.so.0:_ZN8osgEarth15AnnotationUtils26styleRequiresAlphaBlendingERKNS_5StyleE
libosgEarth.so.0:_ZN8osgEarth15BillboardSymbol11mergeConfigERKNS_6ConfigE
libosgEarth.so.0:_ZN8osgEarth15BillboardSymbol8parseSLDERKNS_6ConfigERNS_5StyleE
libosgEarth.so.0:_ZN8osgEarth15BillboardSymbolC1ERKNS_6ConfigE
libosgEarth.so.0:_ZN8osgEarth15BillboardSymbolC1ERKS0_RKN3osg6CopyOpE
libosgEarth.so.0:_ZN8osgEarth15BillboardSymbolC2ERKNS_6ConfigE
libosgEarth.so.0:_ZN8osgEarth15BillboardSymbolC2ERKS0_RKN3osg6CopyOpE
libosgEarth.so.0:_ZN8osgEarth15ContourMapLayer12setGrayscaleERKb
libosgEarth.so.0:_ZN8osgEarth15ContourMapLayer18openImplementationEv
libosgEarth.so.0:_ZN8osgEarth15ContourMapLayer19setTerrainResourcesEPNS_16TerrainResourcesE
libosgEarth.so.0:_ZN8osgEarth15ContourMapLayer19setTransferFunctionEPN3osg18TransferFunction1DE
libosgEarth.so.0:_ZN8osgEarth15ContourMapLayer4initEv
libosgEarth.so.0:_ZN8osgEarth15ContourMapLayer7Options10fromConfigERKNS_6ConfigE
libosgEarth.so.0:_ZN8osgEarth15ContourMapLayer7Options11getMetadataEv
libosgEarth.so.0:_ZN8osgEarth15ElevationRanges10getProfileEv
libosgEarth.so.0:_ZN8osgEarth15ElevationRanges11getMaxLevelEv
libosgEarth.so.0:_ZN8osgEarth15ElevationRanges17getElevationRangeEjjjRsS1_
libosgEarth.so.0:_ZN8osgEarth15ExtrusionSymbol11mergeConfigERKNS_6ConfigE
libosgEarth.so.0:_ZN8osgEarth15ExtrusionSymbol8parseSLDERKNS_6ConfigERNS_5StyleE
libosgEarth.so.0:_ZN8osgEarth15ExtrusionSymbolC1ERKNS_6ConfigE
libosgEarth.so.0:_ZN8osgEarth15ExtrusionSymbolC1ERKS0_RKN3osg6CopyOpE
libosgEarth.so.0:_ZN8osgEarth15ExtrusionSymbolC2ERKNS_6ConfigE
libosgEarth.so.0:_ZN8osgEarth15ExtrusionSymbolC2ERKS0_RKN3osg6CopyOpE
libosgEarth.so.0:_ZN8osgEarth15GeoPositionNode10applyStyleERKNS_5StyleE
libosgEarth.so.0:_ZN8osgEarth15GeoPositionNode10setMapNodeEPNS_7MapNodeE
libosgEarth.so.0:_ZN8osgEarth15GeoPositionNode11setPositionERKNS_8GeoPointE
libosgEarth.so.0:_ZN8osgEarth15GeoPositionNode19setOcclusionCullingEb
libosgEarth.so.0:_ZN8osgEarth15GeoPositionNode30setOcclusionCullingMaxAltitudeEd
libosgEarth.so.0:_ZN8osgEarth15GeoPositionNode9constructEv
libosgEarth.so.0:_ZN8osgEarth15GeoPositionNode9setConfigERKNS_6ConfigE
libosgEarth.so.0:_ZN8osgEarth15GeoPositionNodeC1ERKNS_6ConfigEPKN5osgDB7OptionsE
libosgEarth.so.0:_ZN8osgEarth15GeoPositionNodeC1Ev
libosgEarth.so.0:_ZN8osgEarth15GeoPositionNodeC2ERKNS_6ConfigEPKN5osgDB7OptionsE
libosgEarth.so.0:_ZN8osgEarth15GeoPositionNodeC2Ev
libosgEarth.so.0:_ZN8osgEarth15GeometryFactoryC1EPKNS_16SpatialReferenceE
libosgEarth.so.0:_ZN8osgEarth15GeometryFactoryC2EPKNS_16SpatialReferenceE
libosgEarth.so.0:_ZN8osgEarth15InstanceBuilder14createGeometryEv
libosgEarth.so.0:_ZN8osgEarth15InstanceBuilderC1Ev
libosgEarth.so.0:_ZN8osgEarth15InstanceBuilderC2Ev
libosgEarth.so.0:_ZN8osgEarth15ShaderGenerator10GenBuffers14requireVersionEjj
libosgEarth.so.0:_ZN8osgEarth15ShaderGenerator10GenBuffersC1Ev
libosgEarth.so.0:_ZN8osgEarth15ShaderGenerator10GenBuffersC2Ev
libosgEarth.so.0:_ZN8osgEarth15ShaderGenerator11processTextEPKN3osg8StateSetERNS1_7ref_ptrIS2_EE
libosgEarth.so.0:_ZN8osgEarth15ShaderGenerator13setIgnoreHintEPN3osg6ObjectEb
libosgEarth.so.0:_ZN8osgEarth15ShaderGenerator15processGeometryEPKN3osg8StateSetERNS1_7ref_ptrIS2_EE
libosgEarth.so.0:_ZN8osgEarth15ShaderGenerator17addAcceptCallbackEPNS0_14AcceptCallbackE
libosgEarth.so.0:_ZN8osgEarth15ShaderGenerator19duplicateSharedNodeERN3osg4NodeE
libosgEarth.so.0:_ZN8osgEarth15ShaderGenerator20optimizeStateSharingEPN3osg4NodeEPNS_13StateSetCacheE
libosgEarth.so.0:_ZN8osgEarth15ShaderGenerator27applyNonCoreNodeIfNecessaryERN3osg4NodeE
libosgEarth.so.0:_ZN8osgEarth15ShaderGenerator27setDuplicateSharedSubgraphsEb
libosgEarth.so.0:_ZN8osgEarth15ShaderGenerator28disableUnsupportedAttributesEPN3osg8StateSetE
libosgEarth.so.0:_ZN8osgEarth15ShaderGenerator3runEPN3osg4NodeERKNSt7__cxx1112basic_stringIcSt11char_traitsIcESaIcEEEPNS_13StateSetCacheE
libosgEarth.so.0:_ZN8osgEarth15ShaderGenerator3runEPN3osg8StateSetE
libosgEarth.so.0:_ZN8osgEarth15ShaderGenerator5applyEPN3osg11PointSpriteEiRNS0_10GenBuffersE
libosgEarth.so.0:_ZN8osgEarth15ShaderGenerator5applyEPN3osg14StateAttributeERNS0_10GenBuffersE
libosgEarth.so.0:_ZN8osgEarth15ShaderGenerator5applyEPN3osg14Texture2DArrayEiRNS0_10GenBuffersE
libosgEarth.so.0:_ZN8osgEarth15ShaderGenerator5applyEPN3osg14TextureCubeMapEiRNS0_10GenBuffersE
libosgEarth.so.0:_ZN8osgEarth15ShaderGenerator5applyEPN3osg16TextureRectangleEiRNS0_10GenBuffersE
libosgEarth.so.0:_ZN8osgEarth15ShaderGenerator5applyEPN3osg6TexEnvEiRNS0_10GenBuffersE
libosgEarth.so.0:_ZN8osgEarth15ShaderGenerator5applyEPN3osg6TexGenEiRNS0_10GenBuffersE
libosgEarth.so.0:_ZN8osgEarth15ShaderGenerator5applyEPN3osg6TexMatEiRNS0_10GenBuffersE
libosgEarth.so.0:_ZN8osgEarth15ShaderGenerator5applyEPN3osg7TextureEPNS1_6TexGenEPNS1_6TexEnvEPNS1_6TexMatEPNS1_11PointSpriteEiRNS0_10GenBuffersE
libosgEarth.so.0:_ZN8osgEarth15ShaderGenerator5applyEPN3osg8DrawableE
libosgEarth.so.0:_ZN8osgEarth15ShaderGenerator5applyEPN3osg9Texture1DEiRNS0_10GenBuffersE
libosgEarth.so.0:_ZN8osgEarth15ShaderGenerator5applyEPN3osg9Texture2DEiRNS0_10GenBuffersE
libosgEarth.so.0:_ZN8osgEarth15ShaderGenerator5applyEPN3osg9Texture3DEiRNS0_10GenBuffersE
libosgEarth.so.0:_ZN8osgEarth15ShaderGenerator5applyERN3osg4NodeE
libosgEarth.so.0:_ZN8osgEarth15ShaderGenerator5applyERN3osg5GeodeE
libosgEarth.so.0:_ZN8osgEarth15ShaderGenerator5applyERN3osg5GroupE
libosgEarth.so.0:_ZN8osgEarth15ShaderGenerator5applyERN3osg8ClipNodeE
libosgEarth.so.0:_ZN8osgEarth15ShaderGenerator5applyERN3osg8DrawableE
libosgEarth.so.0:_ZN8osgEarth15ShaderGenerator5applyERN3osg8PagedLODE
libosgEarth.so.0:_ZN8osgEarth15ShaderGenerator5applyERN3osg9ProxyNodeE
libosgEarth.so.0:_ZN8osgEarth15ShaderGenerator5applyERN6osgSim14LightPointNodeE
libosgEarth.so.0:_ZN8osgEarth15ShaderGenerator5applyERSt3mapISt4pairIN3osg14StateAttribute4TypeEjES2_INS3_7ref_ptrIS4_EEjESt4lessIS6_ESaIS2_IKS6_S9_EEERNS0_10GenBuffersE
libosgEarth.so.0:_ZN8osgEarth15ShaderGenerator6ignoreEPKN3osg6ObjectE
libosgEarth.so.0:_ZN8osgEarth15ShaderGeneratorC1ERKS0_RKN3osg6CopyOpE
libosgEarth.so.0:_ZN8osgEarth15ShaderGeneratorC1Ev
libosgEarth.so.0:_ZN8osgEarth15ShaderGeneratorC2ERKS0_RKN3osg6CopyOpE
libosgEarth.so.0:_ZN8osgEarth15ShaderGeneratorC2Ev
libosgEarth.so.0:_ZN8osgEarth15TransformFilter4pushEPNS_7FeatureERNS_4Util13FilterContextE
libosgEarth.so.0:_ZN8osgEarth15TransformFilter4pushERNSt7__cxx114listIN3osg7ref_ptrINS_7FeatureEEESaIS6_EEERNS_4Util13FilterContextE
libosgEarth.so.0:_ZN8osgEarth15TransformFilterC1EPKNS_16SpatialReferenceE
libosgEarth.so.0:_ZN8osgEarth15TransformFilterC1ERKN3osg7MatrixdE
libosgEarth.so.0:_ZN8osgEarth15TransformFilterC1Ev
libosgEarth.so.0:_ZN8osgEarth15TransformFilterC2EPKNS_16SpatialReferenceE
libosgEarth.so.0:_ZN8osgEarth15TransformFilterC2ERKN3osg7MatrixdE
libosgEarth.so.0:_ZN8osgEarth15TransformFilterC2Ev
libosgEarth.so.0:_ZN8osgEarth15URIReadCallbackC1Ev
libosgEarth.so.0:_ZN8osgEarth15URIReadCallbackC2Ev
libosgEarth.so.0:_ZN8osgEarth15URIReadCallbackD0Ev
libosgEarth.so.0:_ZN8osgEarth15URIReadCallbackD1Ev
libosgEarth.so.0:_ZN8osgEarth15URIReadCallbackD2Ev
libosgEarth.so.0:_ZN8osgEarth15getCurlFileTimeEPv
libosgEarth.so.0:_ZN8osgEarth15initNotifyLevelEv
libosgEarth.so.0:_ZN8osgEarth15isNotifyEnabledEN3osg14NotifySeverityE
libosgEarth.so.0:_ZN8osgEarth16DepthOffsetGroup14scheduleUpdateEv
libosgEarth.so.0:_ZN8osgEarth16DepthOffsetGroup21setDepthOffsetOptionsERKNS_18DepthOffsetOptionsE
libosgEarth.so.0:_ZN8osgEarth16DepthOffsetGroup8traverseERN3osg11NodeVisitorE
libosgEarth.so.0:_ZN8osgEarth16DepthOffsetGroupC1Ev
libosgEarth.so.0:_ZN8osgEarth16DepthOffsetGroupC2Ev
libosgEarth.so.0:_ZN8osgEarth16FeatureMaskLayer10addedToMapEPKNS_3MapE
libosgEarth.so.0:_ZN8osgEarth16FeatureMaskLayer14removedFromMapEPKNS_3MapE
libosgEarth.so.0:_ZN8osgEarth16FeatureMaskLayer16setFeatureSourceEPNS_13FeatureSourceE
libosgEarth.so.0:_ZN8osgEarth16FeatureMaskLayer18openImplementationEv
libosgEarth.so.0:_ZN8osgEarth16FeatureMaskLayer23getOrCreateMaskBoundaryEfPKNS_16SpatialReferenceEPNS_16ProgressCallbackE
libosgEarth.so.0:_ZN8osgEarth16FeatureMaskLayer6createEv
libosgEarth.so.0:_ZN8osgEarth16FeatureMaskLayer7Options10fromConfigERKNS_6ConfigE
libosgEarth.so.0:_ZN8osgEarth16GLBufferReleaserC1EPNS_8GLBufferE
libosgEarth.so.0:_ZN8osgEarth16GLBufferReleaserC2EPNS_8GLBufferE
libosgEarth.so.0:_ZN8osgEarth16GLBufferReleaserclEPN3osg15GraphicsContextE
libosgEarth.so.0:_ZN8osgEarth16GeometryCompiler7compileEPNS_13FeatureCursorERKNS_5StyleERKNS_4Util13FilterContextE
libosgEarth.so.0:_ZN8osgEarth16GeometryCompiler7compileEPNS_7FeatureERKNS_4Util13FilterContextE
libosgEarth.so.0:_ZN8osgEarth16GeometryCompiler7compileEPNS_7FeatureERKNS_5StyleERKNS_4Util13FilterContextE
libosgEarth.so.0:_ZN8osgEarth16GeometryCompiler7compileEPNS_8GeometryERKNS_4Util13FilterContextE
libosgEarth.so.0:_ZN8osgEarth16GeometryCompiler7compileEPNS_8GeometryERKNS_5StyleE
libosgEarth.so.0:_ZN8osgEarth16GeometryCompiler7compileEPNS_8GeometryERKNS_5StyleERKNS_4Util13FilterContextE
libosgEarth.so.0:_ZN8osgEarth16GeometryCompiler7compileERNSt7__cxx114listIN3osg7ref_ptrINS_7FeatureEEESaIS6_EEERKNS_5StyleERKNS_4Util13FilterContextE
libosgEarth.so.0:_ZN8osgEarth16GeometryCompilerC1ERKNS_23GeometryCompilerOptionsE
libosgEarth.so.0:_ZN8osgEarth16GeometryCompilerC1Ev
libosgEarth.so.0:_ZN8osgEarth16GeometryCompilerC2ERKNS_23GeometryCompilerOptionsE
libosgEarth.so.0:_ZN8osgEarth16GeometryCompilerC2Ev
libosgEarth.so.0:_ZN8osgEarth16GeometryIterator4nextEv
libosgEarth.so.0:_ZN8osgEarth16GeometryIterator9fetchNextEv
libosgEarth.so.0:_ZN8osgEarth16GeometryIteratorC1EPNS_8GeometryEb
libosgEarth.so.0:_ZN8osgEarth16GeometryIteratorC2EPNS_8GeometryEb
libosgEarth.so.0:_ZN8osgEarth16HorizonClipPlane13ResizeFunctorclERNS0_13PerCameraDataE
libosgEarth.so.0:_ZN8osgEarth16HorizonClipPlane18setClipPlaneNumberEj
libosgEarth.so.0:_ZN8osgEarth16HorizonClipPlane21resizeGLObjectBuffersEj
libosgEarth.so.0:_ZN8osgEarth16HorizonClipPlaneC1EPKN3osg14EllipsoidModelE
libosgEarth.so.0:_ZN8osgEarth16HorizonClipPlaneC1Ev
libosgEarth.so.0:_ZN8osgEarth16HorizonClipPlaneC2EPKN3osg14EllipsoidModelE
libosgEarth.so.0:_ZN8osgEarth16HorizonClipPlaneC2Ev
libosgEarth.so.0:_ZN8osgEarth16HorizonClipPlaneclEPN3osg4NodeEPNS1_11NodeVisitorE
libosgEarth.so.0:_ZN8osgEarth16MVTFeatureSource11getMetaDataERKNSt7__cxx1112basic_stringIcSt11char_traitsIcESaIcEEERS6_
libosgEarth.so.0:_ZN8osgEarth16MVTFeatureSource12iterateTilesEiiiRKNS_9GeoExtentEPFvRKNS_7TileKeyERKNSt7__cxx114listIN3osg7ref_ptrINS_7FeatureEEESaISC_EEEPvESH_
libosgEarth.so.0:_ZN8osgEarth16MVTFeatureSource13computeLevelsEv
libosgEarth.so.0:_ZN8osgEarth16MVTFeatureSource18openImplementationEv
libosgEarth.so.0:_ZN8osgEarth16MVTFeatureSource20createFeatureProfileEv
libosgEarth.so.0:_ZN8osgEarth16MVTFeatureSource33createFeatureCursorImplementationERKNS_5QueryEPNS_16ProgressCallbackE
libosgEarth.so.0:_ZN8osgEarth16MVTFeatureSource4initEv
libosgEarth.so.0:_ZN8osgEarth16MVTFeatureSource6setURLERKNS_3URIE
libosgEarth.so.0:_ZN8osgEarth16MaskSourceDriverD0Ev
libosgEarth.so.0:_ZN8osgEarth16MaskSourceDriverD1Ev
libosgEarth.so.0:_ZN8osgEarth16MaskSourceDriverD2Ev
libosgEarth.so.0:_ZN8osgEarth16MaterialCallbackclEPN3osg14StateAttributeEPNS1_11NodeVisitorE
libosgEarth.so.0:_ZN8osgEarth16OGRFeatureSource10getFeatureEx
libosgEarth.so.0:_ZN8osgEarth16OGRFeatureSource10initSchemaEv
libosgEarth.so.0:_ZN8osgEarth16OGRFeatureSource12setOGRDriverERKNSt7__cxx1112basic_stringIcSt11char_traitsIcESaIcEEE
libosgEarth.so.0:_ZN8osgEarth16OGRFeatureSource13deleteFeatureEx
libosgEarth.so.0:_ZN8osgEarth16OGRFeatureSource13insertFeatureEPNS_7FeatureE
libosgEarth.so.0:_ZN8osgEarth16OGRFeatureSource13parseGeometryERKNS_6ConfigE
libosgEarth.so.0:_ZN8osgEarth16OGRFeatureSource13setConnectionERKNSt7__cxx1112basic_stringIcSt11char_traitsIcESaIcEEE
libosgEarth.so.0:_ZN8osgEarth16OGRFeatureSource14setGeometryURLERKNS_3URIE
libosgEarth.so.0:_ZN8osgEarth16OGRFeatureSource16parseGeometryUrlERKNS_3URIEPKN5osgDB7OptionsE
libosgEarth.so.0:_ZN8osgEarth16OGRFeatureSource17buildSpatialIndexEv
libosgEarth.so.0:_ZN8osgEarth16OGRFeatureSource18openImplementationEv
libosgEarth.so.0:_ZN8osgEarth16OGRFeatureSource19closeImplementationEv
libosgEarth.so.0:_ZN8osgEarth16OGRFeatureSource20setBuildSpatialIndexERKb
libosgEarth.so.0:_ZN8osgEarth16OGRFeatureSource33createFeatureCursorImplementationERKNS_5QueryEPNS_16ProgressCallbackE
libosgEarth.so.0:_ZN8osgEarth16OGRFeatureSource4initEv
libosgEarth.so.0:_ZN8osgEarth16OGRFeatureSource6createEPKNS_14FeatureProfileERKSt3mapINSt7__cxx1112basic_stringIcSt11char_traitsIcESaIcEEENS_13AttributeTypeESt4lessISA_ESaISt4pairIKSA_SB_EEERKNS_8Geometry4TypeEPKN5osgDB7OptionsE
libosgEarth.so.0:_ZN8osgEarth16OGRFeatureSource6setURLERKNS_3URIE
libosgEarth.so.0:_ZN8osgEarth16OGRFeatureSource7Options10fromConfigERKNS_6ConfigE
libosgEarth.so.0:_ZN8osgEarth16OGRFeatureSource8setLayerERKNSt7__cxx1112basic_stringIcSt11char_traitsIcESaIcEEE
libosgEarth.so.0:_ZN8osgEarth16OGRFeatureSource8setQueryERKNS_5QueryE
libosgEarth.so.0:_ZN8osgEarth16OGRFeatureSourceD0Ev
libosgEarth.so.0:_ZN8osgEarth16OGRFeatureSourceD1Ev
libosgEarth.so.0:_ZN8osgEarth16OGRFeatureSourceD2Ev
libosgEarth.so.0:_ZN8osgEarth16ProgressCallback11reportErrorERKNSt7__cxx1112basic_stringIcSt11char_traitsIcESaIcEEE
libosgEarth.so.0:_ZN8osgEarth16ProgressCallback14reportProgressEddjjRKNSt7__cxx1112basic_stringIcSt11char_traitsIcESaIcEEE
libosgEarth.so.0:_ZN8osgEarth16ProgressCallback5resetEv
libosgEarth.so.0:_ZN8osgEarth16ProgressCallback6cancelEv
libosgEarth.so.0:_ZN8osgEarth16ProgressCallbackC1Ev
libosgEarth.so.0:_ZN8osgEarth16ProgressCallbackC2Ev
libosgEarth.so.0:_ZN8osgEarth16SimpleOceanLayer10addedToMapEPKNS_3MapE
libosgEarth.so.0:_ZN8osgEarth16SimpleOceanLayer11setSeaLevelERKf
libosgEarth.so.0:_ZN8osgEarth16SimpleOceanLayer12setMaskLayerEPNS_10ImageLayerE
libosgEarth.so.0:_ZN8osgEarth16SimpleOceanLayer14removedFromMapEPKNS_3MapE
libosgEarth.so.0:_ZN8osgEarth16SimpleOceanLayer14setMaxAltitudeERKf
libosgEarth.so.0:_ZN8osgEarth16SimpleOceanLayer15setSurfaceImageEPN3osg5ImageE
libosgEarth.so.0:_ZN8osgEarth16SimpleOceanLayer15updateMaskLayerEv
libosgEarth.so.0:_ZN8osgEarth16SimpleOceanLayer16setUseBathymetryERKb
libosgEarth.so.0:_ZN8osgEarth16SimpleOceanLayer18openImplementationEv
libosgEarth.so.0:_ZN8osgEarth16SimpleOceanLayer19setTerrainResourcesEPNS_16TerrainResourcesE
libosgEarth.so.0:_ZN8osgEarth16SimpleOceanLayer20setSurfaceTextureLODERKj
libosgEarth.so.0:_ZN8osgEarth16SimpleOceanLayer4initEv
libosgEarth.so.0:_ZN8osgEarth16SimpleOceanLayer7Options10fromConfigERKNS_6ConfigE
libosgEarth.so.0:_ZN8osgEarth16SimpleOceanLayer8setColorERKNS_5ColorE
libosgEarth.so.0:_ZN8osgEarth16SpatialReference10createCubeEv
libosgEarth.so.0:_ZN8osgEarth16SpatialReference13createFromWKTERKNSt7__cxx1112basic_stringIcSt11char_traitsIcESaIcEEES8_
libosgEarth.so.0:_ZN8osgEarth16SpatialReference14transformUnitsERKNS_8DistanceEPKS0_d
libosgEarth.so.0:_ZN8osgEarth16SpatialReference15createFromPROJ4ERKNSt7__cxx1112basic_stringIcSt11char_traitsIcESaIcEEES8_
libosgEarth.so.0:_ZN8osgEarth16SpatialReference16createFromHandleEPv
libosgEarth.so.0:_ZN8osgEarth16SpatialReference19createFromUserInputERKNSt7__cxx1112basic_stringIcSt11char_traitsIcESaIcEEES8_
libosgEarth.so.0:_ZN8osgEarth16SpatialReference4initEv
libosgEarth.so.0:_ZN8osgEarth16SpatialReference5_initEv
libosgEarth.so.0:_ZN8osgEarth16SpatialReference6createEPN3osg20CoordinateSystemNodeE
libosgEarth.so.0:_ZN8osgEarth16SpatialReference6createERKNS0_3KeyE
libosgEarth.so.0:_ZN8osgEarth16SpatialReference6createERKNSt7__cxx1112basic_stringIcSt11char_traitsIcESaIcEEES8_
libosgEarth.so.0:_ZN8osgEarth16SpatialReference6fixWKTEv
libosgEarth.so.0:_ZN8osgEarth16SpatialReferenceC1EPvRKNSt7__cxx1112basic_stringIcSt11char_traitsIcESaIcEEE
libosgEarth.so.0:_ZN8osgEarth16SpatialReferenceC1EPvb
libosgEarth.so.0:_ZN8osgEarth16SpatialReferenceC2EPvRKNSt7__cxx1112basic_stringIcSt11char_traitsIcESaIcEEE
libosgEarth.so.0:_ZN8osgEarth16SpatialReferenceC2EPvb
libosgEarth.so.0:_ZN8osgEarth16SpatialReferenceD0Ev
libosgEarth.so.0:_ZN8osgEarth16SpatialReferenceD1Ev
libosgEarth.so.0:_ZN8osgEarth16SpatialReferenceD2Ev
libosgEarth.so.0:_ZN8osgEarth16StringExpression10setLiteralERKNSt7__cxx1112basic_stringIcSt11char_traitsIcESaIcEEE
libosgEarth.so.0:_ZN8osgEarth16StringExpression11mergeConfigERKNS_6ConfigE
libosgEarth.so.0:_ZN8osgEarth16StringExpression3setERKNSt7__cxx1112basic_stringIcSt11char_traitsIcESaIcEEES8_
libosgEarth.so.0:_ZN8osgEarth16StringExpression3setERKSt4pairINSt7__cxx1112basic_stringIcSt11char_traitsIcESaIcEEEjERKS7_
libosgEarth.so.0:_ZN8osgEarth16StringExpression4initEv
libosgEarth.so.0:_ZN8osgEarth16StringExpression8setInfixERKNSt7__cxx1112basic_stringIcSt11char_traitsIcESaIcEEE
libosgEarth.so.0:_ZN8osgEarth16StringExpressionC1ERKNS_6ConfigE
libosgEarth.so.0:_ZN8osgEarth16StringExpressionC1ERKNSt7__cxx1112basic_stringIcSt11char_traitsIcESaIcEEE
libosgEarth.so.0:_ZN8osgEarth16StringExpressionC1ERKNSt7__cxx1112basic_stringIcSt11char_traitsIcESaIcEEERKNS_10URIContextE
libosgEarth.so.0:_ZN8osgEarth16StringExpressionC1ERKS0_
libosgEarth.so.0:_ZN8osgEarth16StringExpressionC1Ev
libosgEarth.so.0:_ZN8osgEarth16StringExpressionC2ERKNS_6ConfigE
libosgEarth.so.0:_ZN8osgEarth16StringExpressionC2ERKNSt7__cxx1112basic_stringIcSt11char_traitsIcESaIcEEE
libosgEarth.so.0:_ZN8osgEarth16StringExpressionC2ERKNSt7__cxx1112basic_stringIcSt11char_traitsIcESaIcEEERKNS_10URIContextE
libosgEarth.so.0:_ZN8osgEarth16StringExpressionC2ERKS0_
libosgEarth.so.0:_ZN8osgEarth16StringExpressionC2Ev
libosgEarth.so.0:_ZN8osgEarth16TFSFeatureSource10setInvertYERKb
libosgEarth.so.0:_ZN8osgEarth16TFSFeatureSource11getFeaturesERKNSt7__cxx1112basic_stringIcSt11char_traitsIcESaIcEEERKNS_7TileKeyES8_RNS1_4listIN3osg7ref_ptrINS_7FeatureEEESaISG_EEE
libosgEarth.so.0:_ZN8osgEarth16TFSFeatureSource11setMaxLevelERKi
libosgEarth.so.0:_ZN8osgEarth16TFSFeatureSource11setMinLevelERKi
libosgEarth.so.0:_ZN8osgEarth16TFSFeatureSource18openImplementationEv
libosgEarth.so.0:_ZN8osgEarth16TFSFeatureSource23getExtensionForMimeTypeERKNSt7__cxx1112basic_stringIcSt11char_traitsIcESaIcEEE
libosgEarth.so.0:_ZN8osgEarth16TFSFeatureSource33createFeatureCursorImplementationERKNS_5QueryEPNS_16ProgressCallbackE
libosgEarth.so.0:_ZN8osgEarth16TFSFeatureSource4initEv
libosgEarth.so.0:_ZN8osgEarth16TFSFeatureSource6setURLERKNS_3URIE
libosgEarth.so.0:_ZN8osgEarth16TFSFeatureSource9createURLB5cxx11ERKNS_5QueryE
libosgEarth.so.0:_ZN8osgEarth16TFSFeatureSource9setFormatERKNSt7__cxx1112basic_stringIcSt11char_traitsIcESaIcEEE
libosgEarth.so.0:_ZN8osgEarth16TerrainResources23releaseTextureImageUnitEi
libosgEarth.so.0:_ZN8osgEarth16TerrainResources23releaseTextureImageUnitEiPKNS_5LayerE
libosgEarth.so.0:_ZN8osgEarth16TerrainResources23reserveTextureImageUnitERNS_27TextureImageUnitReservationEPKc
libosgEarth.so.0:_ZN8osgEarth16TerrainResources23reserveTextureImageUnitERiPKc
libosgEarth.so.0:_ZN8osgEarth16TerrainResources28setTextureImageUnitOffLimitsEi
libosgEarth.so.0:_ZN8osgEarth16TerrainResources31reserveTextureImageUnitForLayerERNS_27TextureImageUnitReservationEPKNS_5LayerEPKc
libosgEarth.so.0:_ZN8osgEarth16TerrainResourcesC1Ev
libosgEarth.so.0:_ZN8osgEarth16TerrainResourcesC2Ev
libosgEarth.so.0:_ZN8osgEarth16TerrainTileModelC1ERKNS_7TileKeyERKNS_4Util8RevisionE
libosgEarth.so.0:_ZN8osgEarth16TerrainTileModelC2ERKNS_7TileKeyERKNS_4Util8RevisionE
libosgEarth.so.0:_ZN8osgEarth16TiXmlDeclaration5ParseEPKcP16TiXmlParsingData13TiXmlEncoding
libosgEarth.so.0:_ZN8osgEarth16TiXmlDeclaration8StreamInEPSiPNSt7__cxx1112basic_stringIcSt11char_traitsIcESaIcEEE
libosgEarth.so.0:_ZN8osgEarth16TiXmlDeclarationC1EPKcS2_S2_
libosgEarth.so.0:_ZN8osgEarth16TiXmlDeclarationC1ERKNSt7__cxx1112basic_stringIcSt11char_traitsIcESaIcEEES8_S8_
libosgEarth.so.0:_ZN8osgEarth16TiXmlDeclarationC1ERKS0_
libosgEarth.so.0:_ZN8osgEarth16TiXmlDeclarationC2EPKcS2_S2_
libosgEarth.so.0:_ZN8osgEarth16TiXmlDeclarationC2ERKNSt7__cxx1112basic_stringIcSt11char_traitsIcESaIcEEES8_S8_
libosgEarth.so.0:_ZN8osgEarth16TiXmlDeclarationC2ERKS0_
libosgEarth.so.0:_ZN8osgEarth16TiXmlDeclarationaSERKS0_
libosgEarth.so.0:_ZN8osgEarth16WFSFeatureSource11getFeaturesERKNSt7__cxx1112basic_stringIcSt11char_traitsIcESaIcEEES8_RNS1_4listIN3osg7ref_ptrINS_7FeatureEEESaISD_EEE
libosgEarth.so.0:_ZN8osgEarth16WFSFeatureSource11setTypeNameERKNSt7__cxx1112basic_stringIcSt11char_traitsIcESaIcEEE
libosgEarth.so.0:_ZN8osgEarth16WFSFeatureSource12saveResponseENSt7__cxx1112basic_stringIcSt11char_traitsIcESaIcEEERKS6_
libosgEarth.so.0:_ZN8osgEarth16WFSFeatureSource14setMaxFeaturesERKj
libosgEarth.so.0:_ZN8osgEarth16WFSFeatureSource15setOutputFormatERKNSt7__cxx1112basic_stringIcSt11char_traitsIcESaIcEEE
libosgEarth.so.0:_ZN8osgEarth16WFSFeatureSource16setDisableTilingERKb
libosgEarth.so.0:_ZN8osgEarth16WFSFeatureSource18openImplementationEv
libosgEarth.so.0:_ZN8osgEarth16WFSFeatureSource23getExtensionForMimeTypeERKNSt7__cxx1112basic_stringIcSt11char_traitsIcESaIcEEE
libosgEarth.so.0:_ZN8osgEarth16WFSFeatureSource33createFeatureCursorImplementationERKNS_5QueryEPNS_16ProgressCallbackE
libosgEarth.so.0:_ZN8osgEarth16WFSFeatureSource4initEv
libosgEarth.so.0:_ZN8osgEarth16WFSFeatureSource6setURLERKNS_3URIE
libosgEarth.so.0:_ZN8osgEarth16WFSFeatureSource9setBufferERKd
libosgEarth.so.0:_ZN8osgEarth16XYZFeatureSource10setInvertYERKb
libosgEarth.so.0:_ZN8osgEarth16XYZFeatureSource11getFeaturesERKNSt7__cxx1112basic_stringIcSt11char_traitsIcESaIcEEERKNS_7TileKeyES8_RNS1_4listIN3osg7ref_ptrINS_7FeatureEEESaISG_EEE
libosgEarth.so.0:_ZN8osgEarth16XYZFeatureSource11setMaxLevelERKi
libosgEarth.so.0:_ZN8osgEarth16XYZFeatureSource11setMinLevelERKi
libosgEarth.so.0:_ZN8osgEarth16XYZFeatureSource18openImplementationEv
libosgEarth.so.0:_ZN8osgEarth16XYZFeatureSource23getExtensionForMimeTypeERKNSt7__cxx1112basic_stringIcSt11char_traitsIcESaIcEEE
libosgEarth.so.0:_ZN8osgEarth16XYZFeatureSource33createFeatureCursorImplementationERKNS_5QueryEPNS_16ProgressCallbackE
libosgEarth.so.0:_ZN8osgEarth16XYZFeatureSource4initEv
libosgEarth.so.0:_ZN8osgEarth16XYZFeatureSource6setURLERKNS_3URIE
libosgEarth.so.0:_ZN8osgEarth16XYZFeatureSource7Options10fromConfigERKNS_6ConfigE
libosgEarth.so.0:_ZN8osgEarth16XYZFeatureSource9createURLERKNS_5QueryE
libosgEarth.so.0:_ZN8osgEarth16XYZFeatureSource9setFormatERKNSt7__cxx1112basic_stringIcSt11char_traitsIcESaIcEEE
libosgEarth.so.0:_ZN8osgEarth16getNotifyHandlerEv
libosgEarth.so.0:_ZN8osgEarth16setNotifyHandlerEPN3osg13NotifyHandlerE
libosgEarth.so.0:_ZN8osgEarth17CesiumIonResource4openERKNS_3URIERKNSt7__cxx1112basic_stringIcSt11char_traitsIcESaIcEEESB_PKN5osgDB7OptionsE
libosgEarth.so.0:_ZN8osgEarth17ElevationEnvelope12getElevationEdd
libosgEarth.so.0:_ZN8osgEarth17ElevationEnvelope12getElevationEddRNS0_7ContextE
libosgEarth.so.0:_ZN8osgEarth17ElevationEnvelope13getElevationsERKSt6vectorIN3osg5Vec3dESaIS3_EERS1_IfSaIfEE
libosgEarth.so.0:_ZN8osgEarth17ElevationEnvelope18collectDataExtentsEv
libosgEarth.so.0:_ZN8osgEarth17ElevationEnvelope19getElevationExtremaERKSt6vectorIN3osg5Vec3dESaIS3_EERfS8_
libosgEarth.so.0:_ZN8osgEarth17ElevationEnvelope25getElevationAndResolutionEdd
libosgEarth.so.0:_ZN8osgEarth17ElevationEnvelope6sampleEddPNS0_7ContextERfS3_
libosgEarth.so.0:_ZN8osgEarth17ElevationEnvelopeC1Ev
libosgEarth.so.0:_ZN8osgEarth17ElevationEnvelopeC2Ev
libosgEarth.so.0:_ZN8osgEarth17ElevationEnvelopeD0Ev
libosgEarth.so.0:_ZN8osgEarth17ElevationEnvelopeD1Ev
libosgEarth.so.0:_ZN8osgEarth17ElevationEnvelopeD2Ev
libosgEarth.so.0:_ZN8osgEarth17FeatureImageLayer10addedToMapEPKNS_3MapE
libosgEarth.so.0:_ZN8osgEarth17FeatureImageLayer13setStyleSheetEPNS_10StyleSheetE
libosgEarth.so.0:_ZN8osgEarth17FeatureImageLayer13updateSessionEv
libosgEarth.so.0:_ZN8osgEarth17FeatureImageLayer14removedFromMapEPKNS_3MapE
libosgEarth.so.0:_ZN8osgEarth17FeatureImageLayer16setFeatureSourceEPNS_13FeatureSourceE
libosgEarth.so.0:_ZN8osgEarth17FeatureImageLayer18openImplementationEv
libosgEarth.so.0:_ZN8osgEarth17FeatureImageLayer4initEv
libosgEarth.so.0:_ZN8osgEarth17FeatureImageLayer7Options10fromConfigERKNS_6ConfigE
libosgEarth.so.0:_ZN8osgEarth17FeatureListCursor11nextFeatureEv
libosgEarth.so.0:_ZN8osgEarth17FeatureListCursorC1ERKNSt7__cxx114listIN3osg7ref_ptrINS_7FeatureEEESaIS6_EEE
libosgEarth.so.0:_ZN8osgEarth17FeatureListCursorC2ERKNSt7__cxx114listIN3osg7ref_ptrINS_7FeatureEEESaIS6_EEE
libosgEarth.so.0:_ZN8osgEarth17FeatureListCursorD0Ev
libosgEarth.so.0:_ZN8osgEarth17FeatureListCursorD1Ev
libosgEarth.so.0:_ZN8osgEarth17FeatureListCursorD2Ev
libosgEarth.so.0:_ZN8osgEarth17FeatureModelLayer10addedToMapEPKNS_3MapE
libosgEarth.so.0:_ZN8osgEarth17FeatureModelLayer13setStyleSheetEPNS_10StyleSheetE
libosgEarth.so.0:_ZN8osgEarth17FeatureModelLayer14removedFromMapEPKNS_3MapE
libosgEarth.so.0:_ZN8osgEarth17FeatureModelLayer16setAlphaBlendingERKb
libosgEarth.so.0:_ZN8osgEarth17FeatureModelLayer16setFeatureSourceEPNS_13FeatureSourceE
libosgEarth.so.0:_ZN8osgEarth17FeatureModelLayer17setEnableLightingERKb
libosgEarth.so.0:_ZN8osgEarth17FeatureModelLayer18openImplementationEv
libosgEarth.so.0:_ZN8osgEarth17FeatureModelLayer19closeImplementationEv
libosgEarth.so.0:_ZN8osgEarth17FeatureModelLayer24createFeatureNodeFactoryEv
libosgEarth.so.0:_ZN8osgEarth17FeatureModelLayer35setCreateFeatureNodeFactoryCallbackEPNS0_32CreateFeatureNodeFactoryCallbackE
libosgEarth.so.0:_ZN8osgEarth17FeatureModelLayer4initEv
libosgEarth.so.0:_ZN8osgEarth17FeatureModelLayer5dirtyEv
libosgEarth.so.0:_ZN8osgEarth17FeatureModelLayer6createEv
libosgEarth.so.0:_ZN8osgEarth17FeatureModelLayer7Options10fromConfigERKNS_6ConfigE
libosgEarth.so.0:_ZN8osgEarth17FeatureModelLayer7Options11mergeConfigERKNS_6ConfigE
libosgEarth.so.0:_ZN8osgEarth17FeatureModelLayer7OptionsC1ERKNS_13ConfigOptionsE
libosgEarth.so.0:_ZN8osgEarth17FeatureModelLayer7OptionsC1Ev
libosgEarth.so.0:_ZN8osgEarth17FeatureModelLayer7OptionsC2ERKNS_13ConfigOptionsE
libosgEarth.so.0:_ZN8osgEarth17FeatureModelLayer7OptionsC2Ev
libosgEarth.so.0:_ZN8osgEarth17FeatureModelLayer9setLayoutERKNS_20FeatureDisplayLayoutE
libosgEarth.so.0:_ZN8osgEarth17FeatureModelLayerD0Ev
libosgEarth.so.0:_ZN8osgEarth17FeatureModelLayerD1Ev
libosgEarth.so.0:_ZN8osgEarth17FeatureModelLayerD2Ev
libosgEarth.so.0:_ZN8osgEarth17LocalGeometryNode10setMapNodeEPNS_7MapNodeE
libosgEarth.so.0:_ZN8osgEarth17LocalGeometryNode11setGeometryEPNS_8GeometryE
libosgEarth.so.0:_ZN8osgEarth17LocalGeometryNode11setPositionERKNS_8GeoPointE
libosgEarth.so.0:_ZN8osgEarth17LocalGeometryNode12onTileUpdateERKNS_7TileKeyEPN3osg4NodeERNS_22TerrainCallbackContextE
libosgEarth.so.0:_ZN8osgEarth17LocalGeometryNode15compileGeometryEv
libosgEarth.so.0:_ZN8osgEarth17LocalGeometryNode23togglePerVertexClampingEv
libosgEarth.so.0:_ZN8osgEarth17LocalGeometryNode5clampEPN3osg4NodeEPKNS_7TerrainE
libosgEarth.so.0:_ZN8osgEarth17LocalGeometryNode7reclampEv
libosgEarth.so.0:_ZN8osgEarth17LocalGeometryNode8setStyleERKNS_5StyleE
libosgEarth.so.0:_ZN8osgEarth17LocalGeometryNode8traverseERN3osg11NodeVisitorE
libosgEarth.so.0:_ZN8osgEarth17LocalGeometryNode9constructEv
libosgEarth.so.0:_ZN8osgEarth17LocalGeometryNodeC1EPNS_8GeometryERKNS_5StyleE
libosgEarth.so.0:_ZN8osgEarth17LocalGeometryNodeC1ERKNS_6ConfigEPKN5osgDB7OptionsE
libosgEarth.so.0:_ZN8osgEarth17LocalGeometryNodeC1Ev
libosgEarth.so.0:_ZN8osgEarth17LocalGeometryNodeC2EPNS_8GeometryERKNS_5StyleE
libosgEarth.so.0:_ZN8osgEarth17LocalGeometryNodeC2ERKNS_6ConfigEPKN5osgDB7OptionsE
libosgEarth.so.0:_ZN8osgEarth17LocalGeometryNodeC2Ev
libosgEarth.so.0:_ZN8osgEarth17MBTilesImageLayer11setCompressERKb
libosgEarth.so.0:_ZN8osgEarth17MBTilesImageLayer14setDataExtentsERKSt6vectorINS_10DataExtentESaIS2_EE
libosgEarth.so.0:_ZN8osgEarth17MBTilesImageLayer18openImplementationEv
libosgEarth.so.0:_ZN8osgEarth17MBTilesImageLayer4initEv
libosgEarth.so.0:_ZN8osgEarth17MBTilesImageLayer6setURLERKNS_3URIE
libosgEarth.so.0:_ZN8osgEarth17MBTilesImageLayer7Options10fromConfigERKNS_6ConfigE
libosgEarth.so.0:_ZN8osgEarth17MBTilesImageLayer9setFormatERKNSt7__cxx1112basic_stringIcSt11char_traitsIcESaIcEEE
libosgEarth.so.0:_ZN8osgEarth17MaskSourceFactory6createERKNS_17MaskSourceOptionsE
libosgEarth.so.0:_ZN8osgEarth17MaskSourceFactoryD0Ev
libosgEarth.so.0:_ZN8osgEarth17MaskSourceFactoryD1Ev
libosgEarth.so.0:_ZN8osgEarth17MaskSourceFactoryD2Ev
libosgEarth.so.0:_ZN8osgEarth17MaskSourceOptions10fromConfigERKNS_6ConfigE
libosgEarth.so.0:_ZN8osgEarth17MaskSourceOptions11mergeConfigERKNS_6ConfigE
libosgEarth.so.0:_ZN8osgEarth17MaskSourceOptionsD0Ev
libosgEarth.so.0:_ZN8osgEarth17MaskSourceOptionsD1Ev
libosgEarth.so.0:_ZN8osgEarth17MaskSourceOptionsD2Ev
libosgEarth.so.0:_ZN8osgEarth17ModelSourceDriverD0Ev
libosgEarth.so.0:_ZN8osgEarth17ModelSourceDriverD1Ev
libosgEarth.so.0:_ZN8osgEarth17ModelSourceDriverD2Ev
libosgEarth.so.0:_ZN8osgEarth17NumericExpression10setLiteralEd
libosgEarth.so.0:_ZN8osgEarth17NumericExpression11mergeConfigERKNS_6ConfigE
libosgEarth.so.0:_ZN8osgEarth17NumericExpression3setERKSt4pairINSt7__cxx1112basic_stringIcSt11char_traitsIcESaIcEEEjEd
libosgEarth.so.0:_ZN8osgEarth17NumericExpression4initEv
libosgEarth.so.0:_ZN8osgEarth17NumericExpressionC1ERKNS_6ConfigE
libosgEarth.so.0:_ZN8osgEarth17NumericExpressionC1ERKNSt7__cxx1112basic_stringIcSt11char_traitsIcESaIcEEE
libosgEarth.so.0:_ZN8osgEarth17NumericExpressionC1ERKS0_
libosgEarth.so.0:_ZN8osgEarth17NumericExpressionC1Ed
libosgEarth.so.0:_ZN8osgEarth17NumericExpressionC1Ev
libosgEarth.so.0:_ZN8osgEarth17NumericExpressionC2ERKNS_6ConfigE
libosgEarth.so.0:_ZN8osgEarth17NumericExpressionC2ERKNSt7__cxx1112basic_stringIcSt11char_traitsIcESaIcEEE
libosgEarth.so.0:_ZN8osgEarth17NumericExpressionC2ERKS0_
libosgEarth.so.0:_ZN8osgEarth17NumericExpressionC2Ed
libosgEarth.so.0:_ZN8osgEarth17NumericExpressionC2Ev
libosgEarth.so.0:_ZN8osgEarth17ScreenSpaceLayout10deactivateEPN3osg8StateSetE
libosgEarth.so.0:_ZN8osgEarth17ScreenSpaceLayout10getOptionsEv
libosgEarth.so.0:_ZN8osgEarth17ScreenSpaceLayout10setOptionsERKNS_24ScreenSpaceLayoutOptionsE
libosgEarth.so.0:_ZN8osgEarth17ScreenSpaceLayout14setSortFunctorEPNS_20DeclutterSortFunctorE
libosgEarth.so.0:_ZN8osgEarth17ScreenSpaceLayout16clearSortFunctorEv
libosgEarth.so.0:_ZN8osgEarth17ScreenSpaceLayout22setDeclutteringEnabledEb
libosgEarth.so.0:_ZN8osgEarth17ScreenSpaceLayout8activateEPN3osg8StateSetE
libosgEarth.so.0:_ZN8osgEarth17TMSElevationLayer10setTMSTypeERKNSt7__cxx1112basic_stringIcSt11char_traitsIcESaIcEEE
libosgEarth.so.0:_ZN8osgEarth17TMSElevationLayer18openImplementationEv
libosgEarth.so.0:_ZN8osgEarth17TMSElevationLayer19closeImplementationEv
libosgEarth.so.0:_ZN8osgEarth17TMSElevationLayer4initEv
libosgEarth.so.0:_ZN8osgEarth17TMSElevationLayer6setURLERKNS_3URIE
libosgEarth.so.0:_ZN8osgEarth17TMSElevationLayer7Options10fromConfigERKNS_6ConfigE
libosgEarth.so.0:_ZN8osgEarth17TMSElevationLayer9setFormatERKNSt7__cxx1112basic_stringIcSt11char_traitsIcESaIcEEE
libosgEarth.so.0:_ZN8osgEarth17TerrainEngineNode12dirtyTerrainEv
libosgEarth.so.0:_ZN8osgEarth17TerrainEngineNode12removeEffectEPNS_13TerrainEffectE
libosgEarth.so.0:_ZN8osgEarth17TerrainEngineNode13requestRedrawEv
libosgEarth.so.0:_ZN8osgEarth17TerrainEngineNode15createTileModelEPKNS_3MapERKNS_7TileKeyERKNS_18CreateTileManifestEPNS_16ProgressCallbackE
libosgEarth.so.0:_ZN8osgEarth17TerrainEngineNode17onMapModelChangedERKNS_14MapModelChangeE
libosgEarth.so.0:_ZN8osgEarth17TerrainEngineNode23setComputeRangeCallbackEPNS_20ComputeRangeCallbackE
libosgEarth.so.0:_ZN8osgEarth17TerrainEngineNode26addCreateTileModelCallbackEPNS0_23CreateTileModelCallbackE
libosgEarth.so.0:_ZN8osgEarth17TerrainEngineNode29removeCreateTileModelCallbackEPNS0_23CreateTileModelCallbackE
libosgEarth.so.0:_ZN8osgEarth17TerrainEngineNode32addModifyTileBoundingBoxCallbackEPNS0_29ModifyTileBoundingBoxCallbackE
libosgEarth.so.0:_ZN8osgEarth17TerrainEngineNode34fireModifyTileBoundingBoxCallbacksERKNS_7TileKeyERN3osg15BoundingBoxImplINS4_5Vec3fEEE
libosgEarth.so.0:_ZN8osgEarth17TerrainEngineNode35removeModifyTileBoundingBoxCallbackEPNS0_29ModifyTileBoundingBoxCallbackE
libosgEarth.so.0:_ZN8osgEarth17TerrainEngineNode6createERKNS_14TerrainOptionsE
libosgEarth.so.0:_ZN8osgEarth17TerrainEngineNode6setMapEPKNS_3MapERKNS_14TerrainOptionsE
libosgEarth.so.0:_ZN8osgEarth17TerrainEngineNode8traverseERN3osg11NodeVisitorE
libosgEarth.so.0:_ZN8osgEarth17TerrainEngineNode9addEffectEPNS_13TerrainEffectE
libosgEarth.so.0:_ZN8osgEarth17TerrainEngineNodeC1Ev
libosgEarth.so.0:_ZN8osgEarth17TerrainEngineNodeC2Ev
libosgEarth.so.0:_ZN8osgEarth17TerrainEngineNodeD0Ev
libosgEarth.so.0:_ZN8osgEarth17TerrainEngineNodeD1Ev
libosgEarth.so.0:_ZN8osgEarth17TerrainEngineNodeD2Ev
libosgEarth.so.0:_ZN8osgEarth17TerrainOptionsAPI11setFirstLODERKj
libosgEarth.so.0:_ZN8osgEarth17TerrainOptionsAPI11setTileSizeERKi
libosgEarth.so.0:_ZN8osgEarth17TerrainOptionsAPI12setRangeModeERKN3osg3LOD9RangeModeE
libosgEarth.so.0:_ZN8osgEarth17TerrainOptionsAPI13setNormalMapsERKb
libosgEarth.so.0:_ZN8osgEarth17TerrainOptionsAPI14setCastShadowsERKb
libosgEarth.so.0:_ZN8osgEarth17TerrainOptionsAPI14setProgressiveERKb
libosgEarth.so.0:_ZN8osgEarth17TerrainOptionsAPI15setMorphImageryERKb
libosgEarth.so.0:_ZN8osgEarth17TerrainOptionsAPI15setMorphTerrainERKb
libosgEarth.so.0:_ZN8osgEarth17TerrainOptionsAPI16setMinExpiryTimeERKd
libosgEarth.so.0:_ZN8osgEarth17TerrainOptionsAPI16setPriorityScaleERKf
libosgEarth.so.0:_ZN8osgEarth17TerrainOptionsAPI16setTilePixelSizeERKf
libosgEarth.so.0:_ZN8osgEarth17TerrainOptionsAPI16setVerticalScaleERKf
libosgEarth.so.0:_ZN8osgEarth17TerrainOptionsAPI17setClusterCullingERKb
libosgEarth.so.0:_ZN8osgEarth17TerrainOptionsAPI17setEnableBlendingERKb
libosgEarth.so.0:_ZN8osgEarth17TerrainOptionsAPI17setEnableLightingERKb
libosgEarth.so.0:_ZN8osgEarth17TerrainOptionsAPI17setMergesPerFrameERKj
libosgEarth.so.0:_ZN8osgEarth17TerrainOptionsAPI17setMinExpiryRangeERKf
libosgEarth.so.0:_ZN8osgEarth17TerrainOptionsAPI17setNormalizeEdgesERKb
libosgEarth.so.0:_ZN8osgEarth17TerrainOptionsAPI17setVerticalOffsetERKf
libosgEarth.so.0:_ZN8osgEarth17TerrainOptionsAPI18setGPUTessellationERKb
libosgEarth.so.0:_ZN8osgEarth17TerrainOptionsAPI18setMinExpiryFramesERKj
libosgEarth.so.0:_ZN8osgEarth17TerrainOptionsAPI18setMinNormalMapLODERKj
libosgEarth.so.0:_ZN8osgEarth17TerrainOptionsAPI18setRenderBinNumberERKi
libosgEarth.so.0:_ZN8osgEarth17TerrainOptionsAPI21setCompressNormalMapsERKb
libosgEarth.so.0:_ZN8osgEarth17TerrainOptionsAPI21setMinTileRangeFactorERKf
libosgEarth.so.0:_ZN8osgEarth17TerrainOptionsAPI22setExpirationThresholdERKj
libosgEarth.so.0:_ZN8osgEarth17TerrainOptionsAPI24setHeightFieldSkirtRatioERKf
libosgEarth.so.0:_ZN8osgEarth17TerrainOptionsAPI27setMaxTilesToUnloadPerFrameERKj
libosgEarth.so.0:_ZN8osgEarth17TerrainOptionsAPI8setColorERKNS_5ColorE
libosgEarth.so.0:_ZN8osgEarth17TerrainOptionsAPI8setDebugERKb
libosgEarth.so.0:_ZN8osgEarth17TerrainOptionsAPI9setDriverERKNSt7__cxx1112basic_stringIcSt11char_traitsIcESaIcEEE
libosgEarth.so.0:_ZN8osgEarth17TerrainOptionsAPI9setMaxLODERKj
libosgEarth.so.0:_ZN8osgEarth17TerrainOptionsAPI9setMinLODERKj
libosgEarth.so.0:_ZN8osgEarth17TerrainOptionsAPIC1EPNS_14TerrainOptionsE
libosgEarth.so.0:_ZN8osgEarth17TerrainOptionsAPIC2EPNS_14TerrainOptionsE
libosgEarth.so.0:_ZN8osgEarth17TiXmlAttributeSet12FindOrCreateEPKc
libosgEarth.so.0:_ZN8osgEarth17TiXmlAttributeSet12FindOrCreateERKNSt7__cxx1112basic_stringIcSt11char_traitsIcESaIcEEE
libosgEarth.so.0:_ZN8osgEarth17TiXmlAttributeSet3AddEPNS_14TiXmlAttributeE
libosgEarth.so.0:_ZN8osgEarth17TiXmlAttributeSet6RemoveEPNS_14TiXmlAttributeE
libosgEarth.so.0:_ZN8osgEarth17TiXmlAttributeSetC1Ev
libosgEarth.so.0:_ZN8osgEarth17TiXmlAttributeSetC2Ev
libosgEarth.so.0:_ZN8osgEarth17TiXmlAttributeSetD1Ev
libosgEarth.so.0:_ZN8osgEarth17TiXmlAttributeSetD2Ev
libosgEarth.so.0:_ZN8osgEarth17WireLinesOperatorC1ERKNS_6StrokeE
libosgEarth.so.0:_ZN8osgEarth17WireLinesOperatorC2ERKNS_6StrokeE
libosgEarth.so.0:_ZN8osgEarth17XYZElevationLayer10setInvertYERKb
libosgEarth.so.0:_ZN8osgEarth17XYZElevationLayer18openImplementationEv
libosgEarth.so.0:_ZN8osgEarth17XYZElevationLayer20setElevationEncodingERKNSt7__cxx1112basic_stringIcSt11char_traitsIcESaIcEEE
libosgEarth.so.0:_ZN8osgEarth17XYZElevationLayer4initEv
libosgEarth.so.0:_ZN8osgEarth17XYZElevationLayer6setURLERKNS_3URIE
libosgEarth.so.0:_ZN8osgEarth17XYZElevationLayer9setFormatERKNSt7__cxx1112basic_stringIcSt11char_traitsIcESaIcEEE
libosgEarth.so.0:_ZN8osgEarth18BingElevationLayer18openImplementationEv
libosgEarth.so.0:_ZN8osgEarth18BingElevationLayer4initEv
libosgEarth.so.0:_ZN8osgEarth18BingElevationLayer6setURLERKNS_3URIE
libosgEarth.so.0:_ZN8osgEarth18BingElevationLayer7Options10fromConfigERKNS_6ConfigE
libosgEarth.so.0:_ZN8osgEarth18BingElevationLayer9setAPIKeyERKNSt7__cxx1112basic_stringIcSt11char_traitsIcESaIcEEE
libosgEarth.so.0:_ZN8osgEarth18BingElevationLayerD0Ev
libosgEarth.so.0:_ZN8osgEarth18BingElevationLayerD1Ev
libosgEarth.so.0:_ZN8osgEarth18BingElevationLayerD2Ev
libosgEarth.so.0:_ZN8osgEarth18CreateTileManifest15updateRevisionsEPKNS_3MapE
libosgEarth.so.0:_ZN8osgEarth18CreateTileManifest6insertEPKNS_5LayerE
libosgEarth.so.0:_ZN8osgEarth18CreateTileManifestC1Ev
libosgEarth.so.0:_ZN8osgEarth18CreateTileManifestC2Ev
libosgEarth.so.0:_ZN8osgEarth18DepthOffsetOptionsC1ERKNS_6ConfigE
libosgEarth.so.0:_ZN8osgEarth18DepthOffsetOptionsC2ERKNS_6ConfigE
libosgEarth.so.0:_ZN8osgEarth18FeatureNodeFactory21getOrCreateStyleGroupERKNS_5StyleEPNS_4Util7SessionE
libosgEarth.so.0:_ZN8osgEarth18FeatureSourceIndex11tagDrawableEPN3osg8DrawableEPNS_7FeatureE
libosgEarth.so.0:_ZN8osgEarth18FeatureSourceIndex15tagAllDrawablesEPN3osg4NodeEPNS_7FeatureE
libosgEarth.so.0:_ZN8osgEarth18FeatureSourceIndex6updateEPN3osg4NodeERSt3mapIjjSt4lessIjESaISt4pairIKjjEEERKS4_IxNS1_7ref_ptrINS_9RefIDPairEEES5_IxESaIS7_IKxSF_EEERSK_
libosgEarth.so.0:_ZN8osgEarth18FeatureSourceIndex6updateEPN3osg8DrawableERSt3mapIjjSt4lessIjESaISt4pairIKjjEEERKS4_IxNS1_7ref_ptrINS_9RefIDPairEEES5_IxESaIS7_IKxSF_EEERSK_
libosgEarth.so.0:_ZN8osgEarth18FeatureSourceIndex7tagNodeEPN3osg4NodeEPNS_7FeatureE
libosgEarth.so.0:_ZN8osgEarth18FeatureSourceIndexC1EPNS_13FeatureSourceEPNS_11ObjectIndexERKNS_25FeatureSourceIndexOptionsE
libosgEarth.so.0:_ZN8osgEarth18FeatureSourceIndexC2EPNS_13FeatureSourceEPNS_11ObjectIndexERKNS_25FeatureSourceIndexOptionsE
libosgEarth.so.0:_ZN8osgEarth18FeatureSourceIndexD0Ev
libosgEarth.so.0:_ZN8osgEarth18FeatureSourceIndexD1Ev
libosgEarth.so.0:_ZN8osgEarth18FeatureSourceIndexD2Ev
libosgEarth.so.0:_ZN8osgEarth18GDALElevationLayer13setConnectionERKNSt7__cxx1112basic_stringIcSt11char_traitsIcESaIcEEE
libosgEarth.so.0:_ZN8osgEarth18GDALElevationLayer13setSubDataSetERKj
libosgEarth.so.0:_ZN8osgEarth18GDALElevationLayer14setWarpProfileERKNS_14ProfileOptionsE
libosgEarth.so.0:_ZN8osgEarth18GDALElevationLayer16setInterpolationERKNS_19RasterInterpolationE
libosgEarth.so.0:_ZN8osgEarth18GDALElevationLayer18openImplementationEv
libosgEarth.so.0:_ZN8osgEarth18GDALElevationLayer18setExternalDatasetEPNS_4GDAL15ExternalDatasetE
libosgEarth.so.0:_ZN8osgEarth18GDALElevationLayer19closeImplementationEv
libosgEarth.so.0:_ZN8osgEarth18GDALElevationLayer4initEv
libosgEarth.so.0:_ZN8osgEarth18GDALElevationLayer6setURLERKNS_3URIE
libosgEarth.so.0:_ZN8osgEarth18GDALElevationLayer7Options10fromConfigERKNS_6ConfigE
libosgEarth.so.0:_ZN8osgEarth18GDALElevationLayer9setUseVRTERKb
libosgEarth.so.0:_ZN8osgEarth18GeometryRasterizer4drawEPKNS_8GeometryERKN3osg5Vec4fE
libosgEarth.so.0:_ZN8osgEarth18GeometryRasterizer8finalizeEv
libosgEarth.so.0:_ZN8osgEarth18GeometryRasterizerC1EPN3osg5ImageERKNS_5StyleE
libosgEarth.so.0:_ZN8osgEarth18GeometryRasterizerC1EiiRKNS_5StyleE
libosgEarth.so.0:_ZN8osgEarth18GeometryRasterizerC2EPN3osg5ImageERKNS_5StyleE
libosgEarth.so.0:_ZN8osgEarth18GeometryRasterizerC2EiiRKNS_5StyleE
libosgEarth.so.0:_ZN8osgEarth18GeometryRasterizerD0Ev
libosgEarth.so.0:_ZN8osgEarth18GeometryRasterizerD1Ev
libosgEarth.so.0:_ZN8osgEarth18GeometryRasterizerD2Ev
libosgEarth.so.0:_ZN8osgEarth18IntersectionPicker16setTraversalMaskEj
libosgEarth.so.0:_ZN8osgEarth18IntersectionPicker8setLimitERKNS0_5LimitE
libosgEarth.so.0:_ZN8osgEarth18IntersectionPicker9setBufferEf
libosgEarth.so.0:_ZN8osgEarth18IntersectionPickerC1EPN9osgViewer4ViewEPN3osg4NodeEjfNS0_5LimitE
libosgEarth.so.0:_ZN8osgEarth18IntersectionPickerC2EPN9osgViewer4ViewEPN3osg4NodeEjfNS0_5LimitE
libosgEarth.so.0:_ZN8osgEarth18ModelSourceFactory6createERKNS_18ModelSourceOptionsE
libosgEarth.so.0:_ZN8osgEarth18ModelSourceFactoryD0Ev
libosgEarth.so.0:_ZN8osgEarth18ModelSourceFactoryD1Ev
libosgEarth.so.0:_ZN8osgEarth18ModelSourceFactoryD2Ev
libosgEarth.so.0:_ZN8osgEarth18ModelSourceOptions10fromConfigERKNS_6ConfigE
libosgEarth.so.0:_ZN8osgEarth18ModelSourceOptions11mergeConfigERKNS_6ConfigE
libosgEarth.so.0:_ZN8osgEarth18ModelSourceOptionsC1ERKNS_13ConfigOptionsE
libosgEarth.so.0:_ZN8osgEarth18ModelSourceOptionsC2ERKNS_13ConfigOptionsE
libosgEarth.so.0:_ZN8osgEarth18ModelSourceOptionsD0Ev
libosgEarth.so.0:_ZN8osgEarth18ModelSourceOptionsD1Ev
libosgEarth.so.0:_ZN8osgEarth18ModelSourceOptionsD2Ev
libosgEarth.so.0:_ZN8osgEarth19CesiumIonImageLayer10setAssetIdERKNSt7__cxx1112basic_stringIcSt11char_traitsIcESaIcEEE
libosgEarth.so.0:_ZN8osgEarth19CesiumIonImageLayer18openImplementationEv
libosgEarth.so.0:_ZN8osgEarth19CesiumIonImageLayer19closeImplementationEv
libosgEarth.so.0:_ZN8osgEarth19CesiumIonImageLayer4initEv
libosgEarth.so.0:_ZN8osgEarth19CesiumIonImageLayer7Options10fromConfigERKNS_6ConfigE
libosgEarth.so.0:_ZN8osgEarth19CesiumIonImageLayer7Options11getMetadataEv
libosgEarth.so.0:_ZN8osgEarth19CesiumIonImageLayer8setTokenERKNSt7__cxx1112basic_stringIcSt11char_traitsIcESaIcEEE
libosgEarth.so.0:_ZN8osgEarth19CesiumIonImageLayer9setServerERKNS_3URIE
libosgEarth.so.0:_ZN8osgEarth19ColorFilterRegistry10writeChainERKSt6vectorIN3osg7ref_ptrINS_11ColorFilterEEESaIS5_EERNS_6ConfigE
libosgEarth.so.0:_ZN8osgEarth19ColorFilterRegistry3addERKNSt7__cxx1112basic_stringIcSt11char_traitsIcESaIcEEEPNS_18ColorFilterFactoryE
libosgEarth.so.0:_ZN8osgEarth19ColorFilterRegistry8instanceEv
libosgEarth.so.0:_ZN8osgEarth19ColorFilterRegistry9readChainERKNS_6ConfigERSt6vectorIN3osg7ref_ptrINS_11ColorFilterEEESaIS8_EE
libosgEarth.so.0:_ZN8osgEarth19CompositeImageLayer10addedToMapEPKNS_3MapE
libosgEarth.so.0:_ZN8osgEarth19CompositeImageLayer14removedFromMapEPKNS_3MapE
libosgEarth.so.0:_ZN8osgEarth19CompositeImageLayer18openImplementationEv
libosgEarth.so.0:_ZN8osgEarth19CompositeImageLayer19closeImplementationEv
libosgEarth.so.0:_ZN8osgEarth19CompositeImageLayer4initEv
libosgEarth.so.0:_ZN8osgEarth19CompositeImageLayer7Options10fromConfigERKNS_6ConfigE
libosgEarth.so.0:_ZN8osgEarth19CompositeImageLayer8addLayerEPNS_10ImageLayerE
libosgEarth.so.0:_ZN8osgEarth19DriverConfigOptionsD0Ev
libosgEarth.so.0:_ZN8osgEarth19DriverConfigOptionsD1Ev
libosgEarth.so.0:_ZN8osgEarth19DriverConfigOptionsD2Ev
libosgEarth.so.0:_ZN8osgEarth19FeatureModelOptions10fromConfigERKNS_6ConfigE
libosgEarth.so.0:_ZN8osgEarth19FeatureModelOptionsC1ERKNS_13ConfigOptionsE
libosgEarth.so.0:_ZN8osgEarth19FeatureModelOptionsC2ERKNS_13ConfigOptionsE
libosgEarth.so.0:_ZN8osgEarth19GL3RealizeOperationclEPN3osg6ObjectE
libosgEarth.so.0:_ZN8osgEarth19HorizonCullCallback12setEllipsoidERKN3osg14EllipsoidModelE
libosgEarth.so.0:_ZN8osgEarth19HorizonCullCallback9isVisibleEPN3osg4NodeEPNS1_11NodeVisitorE
libosgEarth.so.0:_ZN8osgEarth19HorizonCullCallbackC1Ev
libosgEarth.so.0:_ZN8osgEarth19HorizonCullCallbackC2Ev
libosgEarth.so.0:_ZN8osgEarth19HorizonCullCallbackclEPN3osg4NodeEPNS1_11NodeVisitorE
libosgEarth.so.0:_ZN8osgEarth19LandCoverDictionary11loadFromXMLERKNS_3URIE
libosgEarth.so.0:_ZN8osgEarth19LandCoverDictionary7Options10fromConfigERKNS_6ConfigE
libosgEarth.so.0:_ZN8osgEarth19LandCoverDictionary7Options11loadFromXMLERKNS_3URIE
libosgEarth.so.0:_ZN8osgEarth19LandCoverDictionary8addClassERKNSt7__cxx1112basic_stringIcSt11char_traitsIcESaIcEEEi
libosgEarth.so.0:_ZN8osgEarth19SceneGraphCallbacks14fireRemoveNodeEPN3osg4NodeE
libosgEarth.so.0:_ZN8osgEarth19SceneGraphCallbacks16firePreMergeNodeEPN3osg4NodeE
libosgEarth.so.0:_ZN8osgEarth19SceneGraphCallbacks17firePostMergeNodeEPN3osg4NodeE
libosgEarth.so.0:_ZN8osgEarth19SceneGraphCallbacks3addEPNS_18SceneGraphCallbackE
libosgEarth.so.0:_ZN8osgEarth19SceneGraphCallbacks6removeEPNS_18SceneGraphCallbackE
libosgEarth.so.0:_ZN8osgEarth19SceneGraphCallbacksC1EPN3osg6ObjectE
libosgEarth.so.0:_ZN8osgEarth19SceneGraphCallbacksC2EPN3osg6ObjectE
libosgEarth.so.0:_ZN8osgEarth19TileCacheImageLayer18openImplementationEv
libosgEarth.so.0:_ZN8osgEarth19TileCacheImageLayer4initEv
libosgEarth.so.0:_ZN8osgEarth19TileCacheImageLayer6setURLERKNS_3URIE
libosgEarth.so.0:_ZN8osgEarth19TileCacheImageLayer7Options10fromConfigERKNS_6ConfigE
libosgEarth.so.0:_ZN8osgEarth19TileCacheImageLayer8setLayerERKNSt7__cxx1112basic_stringIcSt11char_traitsIcESaIcEEE
libosgEarth.so.0:_ZN8osgEarth19TileCacheImageLayer9setFormatERKNSt7__cxx1112basic_stringIcSt11char_traitsIcESaIcEEE
libosgEarth.so.0:_ZN8osgEarth20ConstSegmentIterator4nextEv
libosgEarth.so.0:_ZN8osgEarth20ConstSegmentIteratorC1EPKNS_8GeometryEb
libosgEarth.so.0:_ZN8osgEarth20ConstSegmentIteratorC2EPKNS_8GeometryEb
libosgEarth.so.0:_ZN8osgEarth20ElevationLayerVectorC1ERKS0_
libosgEarth.so.0:_ZN8osgEarth20ElevationLayerVectorC1Ev
libosgEarth.so.0:_ZN8osgEarth20ElevationLayerVectorC2ERKS0_
libosgEarth.so.0:_ZN8osgEarth20ElevationLayerVectorC2Ev
libosgEarth.so.0:_ZN8osgEarth20FeatureDisplayLayout10fromConfigERKNS_6ConfigE
libosgEarth.so.0:_ZN8osgEarth20FeatureDisplayLayout8addLevelERKNS_12FeatureLevelE
libosgEarth.so.0:_ZN8osgEarth20FeatureDisplayLayoutC1ERKNS_6ConfigE
libosgEarth.so.0:_ZN8osgEarth20FeatureDisplayLayoutC2ERKNS_6ConfigE
libosgEarth.so.0:_ZN8osgEarth20ImageToFeatureSource10addedToMapEPKNS_3MapE
libosgEarth.so.0:_ZN8osgEarth20ImageToFeatureSource12setAttributeERKNSt7__cxx1112basic_stringIcSt11char_traitsIcESaIcEEE
libosgEarth.so.0:_ZN8osgEarth20ImageToFeatureSource13setImageLayerEPNS_10ImageLayerE
libosgEarth.so.0:_ZN8osgEarth20ImageToFeatureSource14removedFromMapEPKNS_3MapE
libosgEarth.so.0:_ZN8osgEarth20ImageToFeatureSource18openImplementationEv
libosgEarth.so.0:_ZN8osgEarth20ImageToFeatureSource33createFeatureCursorImplementationERKNS_5QueryEPNS_16ProgressCallbackE
libosgEarth.so.0:_ZN8osgEarth20ImageToFeatureSource4initEv
libosgEarth.so.0:_ZN8osgEarth20ImageToFeatureSource7Options10fromConfigERKNS_6ConfigE
libosgEarth.so.0:_ZN8osgEarth20ImageToFeatureSource8setLevelERKj
libosgEarth.so.0:_ZN8osgEarth20LandCoverLayerVectorC1ERKS0_
libosgEarth.so.0:_ZN8osgEarth20LandCoverLayerVectorC1Ev
libosgEarth.so.0:_ZN8osgEarth20LandCoverLayerVectorC2ERKS0_
libosgEarth.so.0:_ZN8osgEarth20LandCoverLayerVectorC2Ev
libosgEarth.so.0:_ZN8osgEarth21CesiumIon3DTilesLayer10setAssetIdERKNSt7__cxx1112basic_stringIcSt11char_traitsIcESaIcEEE
libosgEarth.so.0:_ZN8osgEarth21CesiumIon3DTilesLayer18openImplementationEv
libosgEarth.so.0:_ZN8osgEarth21CesiumIon3DTilesLayer4initEv
libosgEarth.so.0:_ZN8osgEarth21CesiumIon3DTilesLayer7Options10fromConfigERKNS_6ConfigE
libosgEarth.so.0:_ZN8osgEarth21CesiumIon3DTilesLayer8setTokenERKNSt7__cxx1112basic_stringIcSt11char_traitsIcESaIcEEE
libosgEarth.so.0:_ZN8osgEarth21CesiumIon3DTilesLayer9setServerERKNS_3URIE
libosgEarth.so.0:_ZN8osgEarth21ConstGeometryIterator4nextEv
libosgEarth.so.0:_ZN8osgEarth21ConstGeometryIterator9fetchNextEv
libosgEarth.so.0:_ZN8osgEarth21ConstGeometryIteratorC1EPKNS_8GeometryEb
libosgEarth.so.0:_ZN8osgEarth21ConstGeometryIteratorC2EPKNS_8GeometryEb
libosgEarth.so.0:_ZN8osgEarth21FeatureElevationLayer10addedToMapEPKNS_3MapE
libosgEarth.so.0:_ZN8osgEarth21FeatureElevationLayer14removedFromMapEPKNS_3MapE
libosgEarth.so.0:_ZN8osgEarth21FeatureElevationLayer18openImplementationEv
libosgEarth.so.0:_ZN8osgEarth21FeatureElevationLayer4initEv
libosgEarth.so.0:_ZN8osgEarth21FeatureElevationLayer7Options10fromConfigERKNS_6ConfigE
libosgEarth.so.0:_ZN8osgEarth21FeatureElevationLayerD0Ev
libosgEarth.so.0:_ZN8osgEarth21FeatureElevationLayerD1Ev
libosgEarth.so.0:_ZN8osgEarth21FeatureElevationLayerD2Ev
libosgEarth.so.0:_ZN8osgEarth21FeatureImageLayerImpl12createCursorEPNS_13FeatureSourceEPNS_4Util18FeatureFilterChainERNS3_13FilterContextERKNS_5QueryEPNS_16ProgressCallbackE
libosgEarth.so.0:_ZN8osgEarth21FeatureImageLayerImpl17rasterizeCoverageEPKNS_8GeometryEfRNS0_11RenderFrameERN3agg10rasterizerERNS6_16rendering_bufferE
libosgEarth.so.0:_ZN8osgEarth21FeatureImageLayerImpl9rasterizeEPKNS_8GeometryERKN3osg5Vec4fERNS0_11RenderFrameERN3agg10rasterizerERNSA_16rendering_bufferE
libosgEarth.so.0:_ZN8osgEarth21FilteredFeatureCursor11nextFeatureEv
libosgEarth.so.0:_ZN8osgEarth21FilteredFeatureCursorC1EPNS_13FeatureCursorEPNS_4Util18FeatureFilterChainERNS3_13FilterContextE
libosgEarth.so.0:_ZN8osgEarth21FilteredFeatureCursorC2EPNS_13FeatureCursorEPNS_4Util18FeatureFilterChainERNS3_13FilterContextE
libosgEarth.so.0:_ZN8osgEarth21GeometryFeatureCursor11nextFeatureEv
libosgEarth.so.0:_ZN8osgEarth21GeometryFeatureCursorC1EPNS_8GeometryE
libosgEarth.so.0:_ZN8osgEarth21GeometryFeatureCursorC1EPNS_8GeometryEPKNS_14FeatureProfileEPKNS_4Util18FeatureFilterChainE
libosgEarth.so.0:_ZN8osgEarth21GeometryFeatureCursorC2EPNS_8GeometryE
libosgEarth.so.0:_ZN8osgEarth21GeometryFeatureCursorC2EPNS_8GeometryEPKNS_14FeatureProfileEPKNS_4Util18FeatureFilterChainE
libosgEarth.so.0:_ZN8osgEarth21GeometryFeatureCursorD0Ev
libosgEarth.so.0:_ZN8osgEarth21GeometryFeatureCursorD1Ev
libosgEarth.so.0:_ZN8osgEarth21GeometryFeatureCursorD2Ev
libosgEarth.so.0:_ZN8osgEarth21LandCoverValueMapping10fromConfigERKNS_6ConfigE
libosgEarth.so.0:_ZN8osgEarth21LandCoverValueMappingC1ERKNS_6ConfigE
libosgEarth.so.0:_ZN8osgEarth21LandCoverValueMappingC1ERKS0_RKN3osg6CopyOpE
libosgEarth.so.0:_ZN8osgEarth21LandCoverValueMappingC1EiRKNSt7__cxx1112basic_stringIcSt11char_traitsIcESaIcEEE
libosgEarth.so.0:_ZN8osgEarth21LandCoverValueMappingC1Ev
libosgEarth.so.0:_ZN8osgEarth21LandCoverValueMappingC2ERKNS_6ConfigE
libosgEarth.so.0:_ZN8osgEarth21LandCoverValueMappingC2ERKS0_RKN3osg6CopyOpE
libosgEarth.so.0:_ZN8osgEarth21LandCoverValueMappingC2EiRKNSt7__cxx1112basic_stringIcSt11char_traitsIcESaIcEEE
libosgEarth.so.0:_ZN8osgEarth21LandCoverValueMappingC2Ev
libosgEarth.so.0:_ZN8osgEarth21MBTilesElevationLayer11setCompressERKb
libosgEarth.so.0:_ZN8osgEarth21MBTilesElevationLayer14setDataExtentsERKSt6vectorINS_10DataExtentESaIS2_EE
libosgEarth.so.0:_ZN8osgEarth21MBTilesElevationLayer18openImplementationEv
libosgEarth.so.0:_ZN8osgEarth21MBTilesElevationLayer4initEv
libosgEarth.so.0:_ZN8osgEarth21MBTilesElevationLayer6setURLERKNS_3URIE
libosgEarth.so.0:_ZN8osgEarth21MBTilesElevationLayer7Options10fromConfigERKNS_6ConfigE
libosgEarth.so.0:_ZN8osgEarth21MBTilesElevationLayer9setFormatERKNSt7__cxx1112basic_stringIcSt11char_traitsIcESaIcEEE
libosgEarth.so.0:_ZN8osgEarth21TerrainTileLayerModelC1Ev
libosgEarth.so.0:_ZN8osgEarth21TerrainTileLayerModelC2Ev
libosgEarth.so.0:_ZN8osgEarth21decodeMultipartStreamERKNSt7__cxx1112basic_stringIcSt11char_traitsIcESaIcEEEPNS_4Util12HTTPResponse4PartERSt6vectorIN3osg7ref_ptrISA_EESaISF_EE
libosgEarth.so.0:_ZN8osgEarth22ArcGISServerImageLayer18openImplementationEv
libosgEarth.so.0:_ZN8osgEarth22ArcGISServerImageLayer4initEv
libosgEarth.so.0:_ZN8osgEarth22ArcGISServerImageLayer6setURLERKNS_3URIE
libosgEarth.so.0:_ZN8osgEarth22ArcGISServerImageLayer7Options10fromConfigERKNS_6ConfigE
libosgEarth.so.0:_ZN8osgEarth22ArcGISServerImageLayer8setTokenERKNSt7__cxx1112basic_stringIcSt11char_traitsIcESaIcEEE
libosgEarth.so.0:_ZN8osgEarth22ArcGISServerImageLayer9setFormatERKNSt7__cxx1112basic_stringIcSt11char_traitsIcESaIcEEE
libosgEarth.so.0:_ZN8osgEarth22ArcGISServerImageLayer9setLayersERKNSt7__cxx1112basic_stringIcSt11char_traitsIcESaIcEEE
libosgEarth.so.0:_ZN8osgEarth22ArcGISServerImageLayerD0Ev
libosgEarth.so.0:_ZN8osgEarth22ArcGISServerImageLayerD1Ev
libosgEarth.so.0:_ZN8osgEarth22ArcGISServerImageLayerD2Ev
libosgEarth.so.0:_ZN8osgEarth22CustomRealizeOperation15setSyncToVBlankEb
libosgEarth.so.0:_ZN8osgEarth22CustomRealizeOperationclEPN3osg6ObjectE
libosgEarth.so.0:_ZN8osgEarth22FeatureSourceIndexNode11reIndexNodeEPN3osg4NodeERSt3mapIjjSt4lessIjESaISt4pairIKjjEEERS4_IxNS1_7ref_ptrINS_9RefIDPairEEES5_IxESaIS7_IKxSF_EEE
libosgEarth.so.0:_ZN8osgEarth22FeatureSourceIndexNode11tagDrawableEPN3osg8DrawableEPNS_7FeatureE
libosgEarth.so.0:_ZN8osgEarth22FeatureSourceIndexNode12reconstituteEPN3osg4NodeEPNS_18FeatureSourceIndexE
libosgEarth.so.0:_ZN8osgEarth22FeatureSourceIndexNode15reIndexDrawableEPN3osg8DrawableERSt3mapIjjSt4lessIjESaISt4pairIKjjEEERS4_IxNS1_7ref_ptrINS_9RefIDPairEEES5_IxESaIS7_IKxSF_EEE
libosgEarth.so.0:_ZN8osgEarth22FeatureSourceIndexNode15tagAllDrawablesEPN3osg4NodeEPNS_7FeatureE
libosgEarth.so.0:_ZN8osgEarth22FeatureSourceIndexNode3getEPN3osg4NodeE
libosgEarth.so.0:_ZN8osgEarth22FeatureSourceIndexNode7reIndexERSt3mapIjjSt4lessIjESaISt4pairIKjjEEE
libosgEarth.so.0:_ZN8osgEarth22FeatureSourceIndexNode7tagNodeEPN3osg4NodeEPNS_7FeatureE
libosgEarth.so.0:_ZN8osgEarth22FeatureSourceIndexNode9setFIDMapERKSt3mapIxN3osg7ref_ptrINS_9RefIDPairEEESt4lessIxESaISt4pairIKxS5_EEE
libosgEarth.so.0:_ZN8osgEarth22FeatureSourceIndexNodeC1EPNS_18FeatureSourceIndexE
libosgEarth.so.0:_ZN8osgEarth22FeatureSourceIndexNodeC1ERKS0_RKN3osg6CopyOpE
libosgEarth.so.0:_ZN8osgEarth22FeatureSourceIndexNodeC1Ev
libosgEarth.so.0:_ZN8osgEarth22FeatureSourceIndexNodeC2EPNS_18FeatureSourceIndexE
libosgEarth.so.0:_ZN8osgEarth22FeatureSourceIndexNodeC2ERKS0_RKN3osg6CopyOpE
libosgEarth.so.0:_ZN8osgEarth22FeatureSourceIndexNodeC2Ev
libosgEarth.so.0:_ZN8osgEarth22FeatureSourceIndexNodeD0Ev
libosgEarth.so.0:_ZN8osgEarth22FeatureSourceIndexNodeD1Ev
libosgEarth.so.0:_ZN8osgEarth22FeatureSourceIndexNodeD2Ev
libosgEarth.so.0:_ZN8osgEarth22GeomFeatureNodeFactory18createOrUpdateNodeEPNS_13FeatureCursorERKNS_5StyleERKNS_4Util13FilterContextERN3osg7ref_ptrINSA_4NodeEEERKNS_5QueryE
libosgEarth.so.0:_ZN8osgEarth22GeomFeatureNodeFactoryC1ERKNS_23GeometryCompilerOptionsE
libosgEarth.so.0:_ZN8osgEarth22GeomFeatureNodeFactoryC2ERKNS_23GeometryCompilerOptionsE
libosgEarth.so.0:_ZN8osgEarth22LandCoverCoverageLayer10addedToMapEPKNS_3MapE
libosgEarth.so.0:_ZN8osgEarth22LandCoverCoverageLayer13setImageLayerEPNS_10ImageLayerE
libosgEarth.so.0:_ZN8osgEarth22LandCoverCoverageLayer14removedFromMapEPKNS_3MapE
libosgEarth.so.0:_ZN8osgEarth22LandCoverCoverageLayer18openImplementationEv
libosgEarth.so.0:_ZN8osgEarth22LandCoverCoverageLayer7Options10fromConfigERKNS_6ConfigE
libosgEarth.so.0:_ZN8osgEarth22LandCoverCoverageLayer7Options19loadMappingsFromXMLERKNS_3URIE
libosgEarth.so.0:_ZN8osgEarth22LandCoverCoverageLayer7Options3mapEiRKNSt7__cxx1112basic_stringIcSt11char_traitsIcESaIcEEE
libosgEarth.so.0:_ZN8osgEarth22LandCoverCoverageLayer7setWarpERKf
libosgEarth.so.0:_ZN8osgEarth22TiledFeatureModelGraph10createNodeERKNS_7TileKeyEPNS_16ProgressCallbackE
libosgEarth.so.0:_ZN8osgEarth22TiledFeatureModelGraph12setOwnerNameERKNSt7__cxx1112basic_stringIcSt11char_traitsIcESaIcEEE
libosgEarth.so.0:_ZN8osgEarth22TiledFeatureModelGraph14setFilterChainEPNS_4Util18FeatureFilterChainE
libosgEarth.so.0:_ZN8osgEarth22TiledFeatureModelGraphC1EPNS_13FeatureSourceEPNS_10StyleSheetEPNS_4Util7SessionE
libosgEarth.so.0:_ZN8osgEarth22TiledFeatureModelGraphC2EPNS_13FeatureSourceEPNS_10StyleSheetEPNS_4Util7SessionE
libosgEarth.so.0:_ZN8osgEarth22TiledFeatureModelLayer10addedToMapEPKNS_3MapE
libosgEarth.so.0:_ZN8osgEarth22TiledFeatureModelLayer11setAdditiveERKb
libosgEarth.so.0:_ZN8osgEarth22TiledFeatureModelLayer13setStyleSheetEPNS_10StyleSheetE
libosgEarth.so.0:_ZN8osgEarth22TiledFeatureModelLayer14removedFromMapEPKNS_3MapE
libosgEarth.so.0:_ZN8osgEarth22TiledFeatureModelLayer16setAlphaBlendingERKb
libosgEarth.so.0:_ZN8osgEarth22TiledFeatureModelLayer16setFeatureSourceEPNS_13FeatureSourceE
libosgEarth.so.0:_ZN8osgEarth22TiledFeatureModelLayer17setEnableLightingERKb
libosgEarth.so.0:_ZN8osgEarth22TiledFeatureModelLayer18openImplementationEv
libosgEarth.so.0:_ZN8osgEarth22TiledFeatureModelLayer19closeImplementationEv
libosgEarth.so.0:_ZN8osgEarth22TiledFeatureModelLayer4initEv
libosgEarth.so.0:_ZN8osgEarth22TiledFeatureModelLayer5dirtyEv
libosgEarth.so.0:_ZN8osgEarth22TiledFeatureModelLayer6createEv
libosgEarth.so.0:_ZN8osgEarth22TiledFeatureModelLayer7Options10fromConfigERKNS_6ConfigE
libosgEarth.so.0:_ZN8osgEarth22TiledFeatureModelLayer7Options11mergeConfigERKNS_6ConfigE
libosgEarth.so.0:_ZN8osgEarth22TiledFeatureModelLayer7OptionsC1ERKNS_13ConfigOptionsE
libosgEarth.so.0:_ZN8osgEarth22TiledFeatureModelLayer7OptionsC1Ev
libosgEarth.so.0:_ZN8osgEarth22TiledFeatureModelLayer7OptionsC2ERKNS_13ConfigOptionsE
libosgEarth.so.0:_ZN8osgEarth22TiledFeatureModelLayer7OptionsC2Ev
libosgEarth.so.0:_ZN8osgEarth22TiledFeatureModelLayerD0Ev
libosgEarth.so.0:_ZN8osgEarth22TiledFeatureModelLayerD1Ev
libosgEarth.so.0:_ZN8osgEarth22TiledFeatureModelLayerD2Ev
libosgEarth.so.0:_ZN8osgEarth23CompositeElevationLayer10addedToMapEPKNS_3MapE
libosgEarth.so.0:_ZN8osgEarth23CompositeElevationLayer14removedFromMapEPKNS_3MapE
libosgEarth.so.0:_ZN8osgEarth23CompositeElevationLayer18openImplementationEv
libosgEarth.so.0:_ZN8osgEarth23CompositeElevationLayer19closeImplementationEv
libosgEarth.so.0:_ZN8osgEarth23CompositeElevationLayer4initEv
libosgEarth.so.0:_ZN8osgEarth23CompositeElevationLayer7Options10fromConfigERKNS_6ConfigE
libosgEarth.so.0:_ZN8osgEarth23CompositeElevationLayer8addLayerEPNS_14ElevationLayerE
libosgEarth.so.0:_ZN8osgEarth23CompositeLandCoverLayer10addedToMapEPKNS_3MapE
libosgEarth.so.0:_ZN8osgEarth23CompositeLandCoverLayer14removedFromMapEPKNS_3MapE
libosgEarth.so.0:_ZN8osgEarth23CompositeLandCoverLayer18openImplementationEv
libosgEarth.so.0:_ZN8osgEarth23CompositeLandCoverLayer19closeImplementationEv
libosgEarth.so.0:_ZN8osgEarth23CompositeLandCoverLayer4initEv
libosgEarth.so.0:_ZN8osgEarth23CompositeLandCoverLayer7Options10fromConfigERKNS_6ConfigE
libosgEarth.so.0:_ZN8osgEarth23CompositeLandCoverLayer8addLayerEPNS_14LandCoverLayerE
libosgEarth.so.0:_ZN8osgEarth23ConsoleProgressCallback11reportErrorERKNSt7__cxx1112basic_stringIcSt11char_traitsIcESaIcEEE
libosgEarth.so.0:_ZN8osgEarth23ConsoleProgressCallback14reportProgressEddjjRKNSt7__cxx1112basic_stringIcSt11char_traitsIcESaIcEEE
libosgEarth.so.0:_ZN8osgEarth23ConsoleProgressCallbackC1Ev
libosgEarth.so.0:_ZN8osgEarth23ConsoleProgressCallbackC2Ev
libosgEarth.so.0:_ZN8osgEarth23GeometryCompilerOptions10fromConfigERKNS_6ConfigE
libosgEarth.so.0:_ZN8osgEarth23GeometryCompilerOptions11setDefaultsERKS0_
libosgEarth.so.0:_ZN8osgEarth23GeometryCompilerOptionsC1ERKNS_13ConfigOptionsE
libosgEarth.so.0:_ZN8osgEarth23GeometryCompilerOptionsC1Eb
libosgEarth.so.0:_ZN8osgEarth23GeometryCompilerOptionsC2ERKNS_13ConfigOptionsE
libosgEarth.so.0:_ZN8osgEarth23GeometryCompilerOptionsC2Eb
libosgEarth.so.0:_ZN8osgEarth23TerrainTileModelFactory12addElevationEPNS_16TerrainTileModelEPKNS_3MapERKNS_7TileKeyERKNS_18CreateTileManifestEjPNS_16ProgressCallbackE
libosgEarth.so.0:_ZN8osgEarth23TerrainTileModelFactory12addLandCoverEPNS_16TerrainTileModelEPKNS_3MapERKNS_7TileKeyEPKNS_4Util25TerrainEngineRequirementsERKNS_18CreateTileManifestEPNS_16ProgressCallbackE
libosgEarth.so.0:_ZN8osgEarth23TerrainTileModelFactory13addImageLayerEPNS_16TerrainTileModelEPNS_10ImageLayerERKNS_7TileKeyEPKNS_4Util25TerrainEngineRequirementsEPNS_16ProgressCallbackE
libosgEarth.so.0:_ZN8osgEarth23TerrainTileModelFactory14addColorLayersEPNS_16TerrainTileModelEPKNS_3MapEPKNS_4Util25TerrainEngineRequirementsERKNS_7TileKeyERKNS_18CreateTileManifestEPNS_16ProgressCallbackEb
libosgEarth.so.0:_ZN8osgEarth23TerrainTileModelFactory14addPatchLayersEPNS_16TerrainTileModelEPKNS_3MapERKNS_7TileKeyERKNS_18CreateTileManifestEPNS_16ProgressCallbackEb
libosgEarth.so.0:_ZN8osgEarth23TerrainTileModelFactory15createTileModelEPKNS_3MapERKNS_7TileKeyERKNS_18CreateTileManifestEPKNS_4Util25TerrainEngineRequirementsEPNS_16ProgressCallbackE
libosgEarth.so.0:_ZN8osgEarth23TerrainTileModelFactory22addStandaloneElevationEPNS_16TerrainTileModelEPKNS_3MapERKNS_7TileKeyERKNS_18CreateTileManifestEjPNS_16ProgressCallbackE
libosgEarth.so.0:_ZN8osgEarth23TerrainTileModelFactory22addStandaloneLandCoverEPNS_16TerrainTileModelEPKNS_3MapERKNS_7TileKeyEPKNS_4Util25TerrainEngineRequirementsERKNS_18CreateTileManifestEPNS_16ProgressCallbackE
libosgEarth.so.0:_ZN8osgEarth23TerrainTileModelFactory22getOrCreateHeightFieldEPKNS_3MapERKNS_20ElevationLayerVectorEiRKNS_7TileKeyENS_21ElevationSamplePolicyENS_19RasterInterpolationEjRN3osg7ref_ptrINSC_11HeightFieldEEERNSD_INS_9NormalMapEEEPNS_16ProgressCallbackE
libosgEarth.so.0:_ZN8osgEarth23TerrainTileModelFactory23addStandaloneImageLayerEPNS_16TerrainTileModelEPNS_10ImageLayerERKNS_7TileKeyEPKNS_4Util25TerrainEngineRequirementsEPNS_16ProgressCallbackE
libosgEarth.so.0:_ZN8osgEarth23TerrainTileModelFactory25createStandaloneTileModelEPKNS_3MapERKNS_7TileKeyERKNS_18CreateTileManifestEPKNS_4Util25TerrainEngineRequirementsEPNS_16ProgressCallbackE
libosgEarth.so.0:_ZN8osgEarth23TerrainTileModelFactoryC1ERKNS_14TerrainOptionsE
libosgEarth.so.0:_ZN8osgEarth23TerrainTileModelFactoryC2ERKNS_14TerrainOptionsE
libosgEarth.so.0:_ZN8osgEarth23TileCacheElevationLayer18openImplementationEv
libosgEarth.so.0:_ZN8osgEarth23TileCacheElevationLayer4initEv
libosgEarth.so.0:_ZN8osgEarth23TileCacheElevationLayer6setURLERKNS_3URIE
libosgEarth.so.0:_ZN8osgEarth23TileCacheElevationLayer7Options10fromConfigERKNS_6ConfigE
libosgEarth.so.0:_ZN8osgEarth23TileCacheElevationLayer8setLayerERKNSt7__cxx1112basic_stringIcSt11char_traitsIcESaIcEEE
libosgEarth.so.0:_ZN8osgEarth23TileCacheElevationLayer9setFormatERKNSt7__cxx1112basic_stringIcSt11char_traitsIcESaIcEEE
libosgEarth.so.0:_ZN8osgEarth23URIAliasMapReadCallback10readObjectERKNSt7__cxx1112basic_stringIcSt11char_traitsIcESaIcEEEPKN5osgDB7OptionsE
libosgEarth.so.0:_ZN8osgEarth23URIAliasMapReadCallback10readShaderERKNSt7__cxx1112basic_stringIcSt11char_traitsIcESaIcEEEPKN5osgDB7OptionsE
libosgEarth.so.0:_ZN8osgEarth23URIAliasMapReadCallback11openArchiveERKNSt7__cxx1112basic_stringIcSt11char_traitsIcESaIcEEEN5osgDB12ReaderWriter13ArchiveStatusEjPKNS9_7OptionsE
libosgEarth.so.0:_ZN8osgEarth23URIAliasMapReadCallback15readHeightFieldERKNSt7__cxx1112basic_stringIcSt11char_traitsIcESaIcEEEPKN5osgDB7OptionsE
libosgEarth.so.0:_ZN8osgEarth23URIAliasMapReadCallback8readNodeERKNSt7__cxx1112basic_stringIcSt11char_traitsIcESaIcEEEPKN5osgDB7OptionsE
libosgEarth.so.0:_ZN8osgEarth23URIAliasMapReadCallback9readImageERKNSt7__cxx1112basic_stringIcSt11char_traitsIcESaIcEEEPKN5osgDB7OptionsE
libosgEarth.so.0:_ZN8osgEarth23URIAliasMapReadCallbackC1ERKNS_11URIAliasMapERKNS_10URIContextE
libosgEarth.so.0:_ZN8osgEarth23URIAliasMapReadCallbackC2ERKNS_11URIAliasMapERKNS_10URIContextE
libosgEarth.so.0:_ZN8osgEarth24ElevationConstraintLayer10addedToMapEPKNS_3MapE
libosgEarth.so.0:_ZN8osgEarth24ElevationConstraintLayer14removedFromMapEPKNS_3MapE
libosgEarth.so.0:_ZN8osgEarth24ElevationConstraintLayer16setFeatureSourceEPNS_13FeatureSourceE
libosgEarth.so.0:_ZN8osgEarth24ElevationConstraintLayer18openImplementationEv
libosgEarth.so.0:_ZN8osgEarth24ElevationConstraintLayer4initEv
libosgEarth.so.0:_ZN8osgEarth24ElevationConstraintLayer7Options10fromConfigERKNS_6ConfigE
libosgEarth.so.0:_ZN8osgEarth24ScreenSpaceLayoutOptions10fromConfigERKNS_6ConfigE
libosgEarth.so.0:_ZN8osgEarth25FeatureSourceIndexOptionsC1ERKNS_6ConfigE
libosgEarth.so.0:_ZN8osgEarth25FeatureSourceIndexOptionsC2ERKNS_6ConfigE
libosgEarth.so.0:_ZN8osgEarth25GeoPositionNodeAutoScalerC1ERKN3osg5Vec3dEdd
libosgEarth.so.0:_ZN8osgEarth25GeoPositionNodeAutoScalerC2ERKN3osg5Vec3dEdd
libosgEarth.so.0:_ZN8osgEarth25GeoPositionNodeAutoScalerclEPN3osg4NodeEPNS1_11NodeVisitorE
libosgEarth.so.0:_ZN8osgEarth25TerrainTileElevationModelC1Ev
libosgEarth.so.0:_ZN8osgEarth25TerrainTileElevationModelC2Ev
libosgEarth.so.0:_ZN8osgEarth27ArcGISTilePackageImageLayer18openImplementationEv
libosgEarth.so.0:_ZN8osgEarth27ArcGISTilePackageImageLayer4initEv
libosgEarth.so.0:_ZN8osgEarth27ArcGISTilePackageImageLayer6setURLERKNS_3URIE
libosgEarth.so.0:_ZN8osgEarth27ArcGISTilePackageImageLayer7Options10fromConfigERKNS_6ConfigE
libosgEarth.so.0:_ZN8osgEarth27ArcGISTilePackageImageLayer8readConfEv
libosgEarth.so.0:_ZN8osgEarth27ArcGISTilePackageImageLayerD0Ev
libosgEarth.so.0:_ZN8osgEarth27ArcGISTilePackageImageLayerD1Ev
libosgEarth.so.0:_ZN8osgEarth27ArcGISTilePackageImageLayerD2Ev
libosgEarth.so.0:_ZN8osgEarth27GenerateGL3LightingUniforms5applyERN3osg11LightSourceE
libosgEarth.so.0:_ZN8osgEarth27GenerateGL3LightingUniforms5applyERN3osg4NodeE
libosgEarth.so.0:_ZN8osgEarth27GenerateGL3LightingUniformsC1Ev
libosgEarth.so.0:_ZN8osgEarth27GenerateGL3LightingUniformsC2Ev
libosgEarth.so.0:_ZN8osgEarth27TextureImageUnitReservation7releaseEv
libosgEarth.so.0:_ZN8osgEarth27TextureImageUnitReservationC1Ev
libosgEarth.so.0:_ZN8osgEarth27TextureImageUnitReservationC2Ev
libosgEarth.so.0:_ZN8osgEarth27TextureImageUnitReservationD0Ev
libosgEarth.so.0:_ZN8osgEarth27TextureImageUnitReservationD1Ev
libosgEarth.so.0:_ZN8osgEarth27TextureImageUnitReservationD2Ev
libosgEarth.so.0:_ZN8osgEarth28TangentPlaneSpatialReference5_initEv
libosgEarth.so.0:_ZN8osgEarth28TangentPlaneSpatialReferenceC1EPvRKN3osg5Vec3dE
libosgEarth.so.0:_ZN8osgEarth28TangentPlaneSpatialReferenceC2EPvRKN3osg5Vec3dE
libosgEarth.so.0:_ZN8osgEarth29DatabasePagerProgressCallbackC1Ev
libosgEarth.so.0:_ZN8osgEarth29DatabasePagerProgressCallbackC2Ev
libosgEarth.so.0:_ZN8osgEarth30LightSourceGL3UniformGenerator21resizeGLBufferObjectsEj
libosgEarth.so.0:_ZN8osgEarth30LightSourceGL3UniformGenerator3runEPN3osg6ObjectES3_
libosgEarth.so.0:_ZN8osgEarth3MVT10decodeLineERKN6mapnik6vector12tile_featureERKNS_7TileKeyEj
libosgEarth.so.0:_ZN8osgEarth3MVT11decodePointERKN6mapnik6vector12tile_featureERKNS_7TileKeyEj
libosgEarth.so.0:_ZN8osgEarth3MVT13decodePolygonERKN6mapnik6vector12tile_featureERKNS_7TileKeyEj
libosgEarth.so.0:_ZN8osgEarth3MVT14zig_zag_decodeEi
libosgEarth.so.0:_ZN8osgEarth3MVT23MVTFeatureSourceOptions10fromConfigERKNS_6ConfigE
libosgEarth.so.0:_ZN8osgEarth3MVT8readTileERSiRKNS_7TileKeyERNSt7__cxx114listIN3osg7ref_ptrINS_7FeatureEEESaISA_EEE
libosgEarth.so.0:_ZN8osgEarth3Map10setMapNameERKNSt7__cxx1112basic_stringIcSt11char_traitsIcESaIcEEE
libosgEarth.so.0:_ZN8osgEarth3Map10setProfileEPKNS_7ProfileE
libosgEarth.so.0:_ZN8osgEarth3Map11beginUpdateEv
libosgEarth.so.0:_ZN8osgEarth3Map11insertLayerEPNS_5LayerEj
libosgEarth.so.0:_ZN8osgEarth3Map11removeLayerEPNS_5LayerE
libosgEarth.so.0:_ZN8osgEarth3Map14setCachePolicyERKNS_11CachePolicyE
libosgEarth.so.0:_ZN8osgEarth3Map21installLayerCallbacksEPNS_5LayerE
libosgEarth.so.0:_ZN8osgEarth3Map23uninstallLayerCallbacksEPNS_5LayerE
libosgEarth.so.0:_ZN8osgEarth3Map24notifyOnLayerOpenOrCloseEPNS_5LayerE
libosgEarth.so.0:_ZN8osgEarth3Map25setElevationInterpolationERKNS_19RasterInterpolationE
libosgEarth.so.0:_ZN8osgEarth3Map4initEv
libosgEarth.so.0:_ZN8osgEarth3Map5clearEv
libosgEarth.so.0:_ZN8osgEarth3Map7LayerCB6onOpenEPNS_5LayerE
libosgEarth.so.0:_ZN8osgEarth3Map7LayerCB7onCloseEPNS_5LayerE
libosgEarth.so.0:_ZN8osgEarth3Map7LayerCBC1EPS0_
libosgEarth.so.0:_ZN8osgEarth3Map7LayerCBC2EPS0_
libosgEarth.so.0:_ZN8osgEarth3Map7Options10fromConfigERKNS_6ConfigE
libosgEarth.so.0:_ZN8osgEarth3Map8addLayerEPNS_5LayerE
libosgEarth.so.0:_ZN8osgEarth3Map8setCacheEPNS_5CacheE
libosgEarth.so.0:_ZN8osgEarth3Map9addLayersERKSt6vectorIN3osg7ref_ptrINS_5LayerEEESaIS5_EE
libosgEarth.so.0:_ZN8osgEarth3Map9endUpdateEv
libosgEarth.so.0:_ZN8osgEarth3Map9moveLayerEPNS_5LayerEj
libosgEarth.so.0:_ZN8osgEarth3MapC1ERKNS0_7OptionsE
libosgEarth.so.0:_ZN8osgEarth3MapC1Ev
libosgEarth.so.0:_ZN8osgEarth3MapC2ERKNS0_7OptionsE
libosgEarth.so.0:_ZN8osgEarth3MapC2Ev
libosgEarth.so.0:_ZN8osgEarth3MapD0Ev
libosgEarth.so.0:_ZN8osgEarth3MapD1Ev
libosgEarth.so.0:_ZN8osgEarth3MapD2Ev
libosgEarth.so.0:_ZN8osgEarth3OGR16OGRFeatureCursor11nextFeatureEv
libosgEarth.so.0:_ZN8osgEarth3OGR16OGRFeatureCursor9readChunkEv
libosgEarth.so.0:_ZN8osgEarth3OGR16OGRFeatureCursorC1EPvPKNS_14FeatureProfileE
libosgEarth.so.0:_ZN8osgEarth3OGR16OGRFeatureCursorC1EPvS2_PKNS_13FeatureSourceEPKNS_14FeatureProfileERKNS_5QueryEPKNS_4Util18FeatureFilterChainEPNS_16ProgressCallbackEb
libosgEarth.so.0:_ZN8osgEarth3OGR16OGRFeatureCursorC2EPvPKNS_14FeatureProfileE
libosgEarth.so.0:_ZN8osgEarth3OGR16OGRFeatureCursorC2EPvS2_PKNS_13FeatureSourceEPKNS_14FeatureProfileERKNS_5QueryEPKNS_4Util18FeatureFilterChainEPNS_16ProgressCallbackEb
libosgEarth.so.0:_ZN8osgEarth3OGR16OGRFeatureCursorD0Ev
libosgEarth.so.0:_ZN8osgEarth3OGR16OGRFeatureCursorD1Ev
libosgEarth.so.0:_ZN8osgEarth3OGR16OGRFeatureCursorD2Ev
libosgEarth.so.0:_ZN8osgEarth3OGR9openLayerEPvRKNSt7__cxx1112basic_stringIcSt11char_traitsIcESaIcEEE
libosgEarth.so.0:_ZN8osgEarth3TFS12ReaderWriter4readERKNS_3URIEPKN5osgDB7OptionsERNS0_5LayerE
libosgEarth.so.0:_ZN8osgEarth3TFS12ReaderWriter4readERSiRNS0_5LayerE
libosgEarth.so.0:_ZN8osgEarth3TFS12ReaderWriter5writeERKNS0_5LayerERKNSt7__cxx1112basic_stringIcSt11char_traitsIcESaIcEEE
libosgEarth.so.0:_ZN8osgEarth3TFS12ReaderWriter5writeERKNS0_5LayerERSo
libosgEarth.so.0:_ZN8osgEarth3TFS23TFSFeatureSourceOptions10fromConfigERKNS_6ConfigE
libosgEarth.so.0:_ZN8osgEarth3TFS5LayerC1Ev
libosgEarth.so.0:_ZN8osgEarth3TFS5LayerC2Ev
libosgEarth.so.0:_ZN8osgEarth3TMS10TileFormatC1Ev
libosgEarth.so.0:_ZN8osgEarth3TMS10TileFormatC2Ev
libosgEarth.so.0:_ZN8osgEarth3TMS12TileMapEntryC1ERKNSt7__cxx1112basic_stringIcSt11char_traitsIcESaIcEEES9_S9_S9_
libosgEarth.so.0:_ZN8osgEarth3TMS12TileMapEntryC2ERKNSt7__cxx1112basic_stringIcSt11char_traitsIcESaIcEEES9_S9_S9_
libosgEarth.so.0:_ZN8osgEarth3TMS19TileMapReaderWriter4readERKNS_3URIEPKN5osgDB7OptionsE
libosgEarth.so.0:_ZN8osgEarth3TMS19TileMapReaderWriter4readERKNS_6ConfigE
libosgEarth.so.0:_ZN8osgEarth3TMS19TileMapReaderWriter5writeEPKNS0_7TileMapERKNSt7__cxx1112basic_stringIcSt11char_traitsIcESaIcEEE
libosgEarth.so.0:_ZN8osgEarth3TMS19TileMapReaderWriter5writeEPKNS0_7TileMapERSo
libosgEarth.so.0:_ZN8osgEarth3TMS20TileMapServiceReader4readERKNS_6ConfigERNSt7__cxx114listINS0_12TileMapEntryESaIS7_EEE
libosgEarth.so.0:_ZN8osgEarth3TMS20TileMapServiceReader4readERKNSt7__cxx1112basic_stringIcSt11char_traitsIcESaIcEEEPKN5osgDB7OptionsERNS2_4listINS0_12TileMapEntryESaISF_EEE
libosgEarth.so.0:_ZN8osgEarth3TMS20TileMapServiceReaderC1ERKS1_
libosgEarth.so.0:_ZN8osgEarth3TMS20TileMapServiceReaderC1Ev
libosgEarth.so.0:_ZN8osgEarth3TMS20TileMapServiceReaderC2ERKS1_
libosgEarth.so.0:_ZN8osgEarth3TMS20TileMapServiceReaderC2Ev
libosgEarth.so.0:_ZN8osgEarth3TMS6Driver13resolveWriterERKNSt7__cxx1112basic_stringIcSt11char_traitsIcESaIcEEE
libosgEarth.so.0:_ZN8osgEarth3TMS6Driver4openERKNS_3URIERN3osg7ref_ptrIKNS_7ProfileEEERKNSt7__cxx1112basic_stringIcSt11char_traitsIcESaIcEEEbRSt6vectorINS_10DataExtentESaISK_EEPKN5osgDB7OptionsE
libosgEarth.so.0:_ZN8osgEarth3TMS6Driver5closeEv
libosgEarth.so.0:_ZN8osgEarth3TMS7Options11getMetadataEv
libosgEarth.so.0:_ZN8osgEarth3TMS7Options8readFromERKNS_6ConfigE
libosgEarth.so.0:_ZN8osgEarth3TMS7TileMap10setExtentsEdddd
libosgEarth.so.0:_ZN8osgEarth3TMS7TileMap13intersectsKeyERKNS_7TileKeyE
libosgEarth.so.0:_ZN8osgEarth3TMS7TileMap15computeNumTilesEv
libosgEarth.so.0:_ZN8osgEarth3TMS7TileMap16generateTileSetsEj
libosgEarth.so.0:_ZN8osgEarth3TMS7TileMap18computeMinMaxLevelEv
libosgEarth.so.0:_ZN8osgEarth3TMS7TileMap6createERKNSt7__cxx1112basic_stringIcSt11char_traitsIcESaIcEEEPKNS_7ProfileERKSt6vectorINS_10DataExtentESaISE_EES9_ii
libosgEarth.so.0:_ZN8osgEarth3TMS7TileMap6getURLB5cxx11ERKNS_7TileKeyEb
libosgEarth.so.0:_ZN8osgEarth3TMS7TileMap9setOriginEdd
libosgEarth.so.0:_ZN8osgEarth3TMS7TileMapC1Ev
libosgEarth.so.0:_ZN8osgEarth3TMS7TileMapC2Ev
libosgEarth.so.0:_ZN8osgEarth3TMS7TileSetC1Ev
libosgEarth.so.0:_ZN8osgEarth3TMS7TileSetC2Ev
libosgEarth.so.0:_ZN8osgEarth3TMS8toStringB5cxx11Edi
libosgEarth.so.0:_ZN8osgEarth3URI11mergeConfigERKNS_6ConfigE
libosgEarth.so.0:_ZN8osgEarth3URI12ctorCacheKeyEv
libosgEarth.so.0:_ZN8osgEarth3URIC1EPKc
libosgEarth.so.0:_ZN8osgEarth3URIC1ERKNSt7__cxx1112basic_stringIcSt11char_traitsIcESaIcEEE
libosgEarth.so.0:_ZN8osgEarth3URIC1ERKNSt7__cxx1112basic_stringIcSt11char_traitsIcESaIcEEERKNS_10URIContextE
libosgEarth.so.0:_ZN8osgEarth3URIC1ERKS0_
libosgEarth.so.0:_ZN8osgEarth3URIC1Ev
libosgEarth.so.0:_ZN8osgEarth3URIC2EPKc
libosgEarth.so.0:_ZN8osgEarth3URIC2ERKNSt7__cxx1112basic_stringIcSt11char_traitsIcESaIcEEE
libosgEarth.so.0:_ZN8osgEarth3URIC2ERKNSt7__cxx1112basic_stringIcSt11char_traitsIcESaIcEEERKNS_10URIContextE
libosgEarth.so.0:_ZN8osgEarth3URIC2ERKS0_
libosgEarth.so.0:_ZN8osgEarth3URIC2Ev
libosgEarth.so.0:_ZN8osgEarth3WFS11FeatureTypeC1Ev
libosgEarth.so.0:_ZN8osgEarth3WFS11FeatureTypeC2Ev
libosgEarth.so.0:_ZN8osgEarth3WFS12Capabilities20getFeatureTypeByNameERKNSt7__cxx1112basic_stringIcSt11char_traitsIcESaIcEEE
libosgEarth.so.0:_ZN8osgEarth3WFS12CapabilitiesC1Ev
libosgEarth.so.0:_ZN8osgEarth3WFS12CapabilitiesC2Ev
libosgEarth.so.0:_ZN8osgEarth3WFS18CapabilitiesReader4readERKNS_3URIEPKN5osgDB7OptionsE
libosgEarth.so.0:_ZN8osgEarth3WFS18CapabilitiesReader4readERSi
libosgEarth.so.0:_ZN8osgEarth3WFS23WFSFeatureSourceOptions10fromConfigERKNS_6ConfigE
libosgEarth.so.0:_ZN8osgEarth3WMS12Capabilities14getLayerByNameERKNSt7__cxx1112basic_stringIcSt11char_traitsIcESaIcEEE
libosgEarth.so.0:_ZN8osgEarth3WMS12Capabilities14getLayerByNameERKNSt7__cxx1112basic_stringIcSt11char_traitsIcESaIcEEERSt6vectorIN3osg7ref_ptrINS0_5LayerEEESaISE_EE
libosgEarth.so.0:_ZN8osgEarth3WMS12Capabilities16suggestExtensionB5cxx11Ev
libosgEarth.so.0:_ZN8osgEarth3WMS12CapabilitiesC1Ev
libosgEarth.so.0:_ZN8osgEarth3WMS12CapabilitiesC2Ev
libosgEarth.so.0:_ZN8osgEarth3WMS18CapabilitiesReader10readLayersEPNS_4Util10XmlElementEPNS0_5LayerERSt6vectorIN3osg7ref_ptrIS5_EESaISA_EE
libosgEarth.so.0:_ZN8osgEarth3WMS18CapabilitiesReader4readERKNS_3URIEPKN5osgDB7OptionsE
libosgEarth.so.0:_ZN8osgEarth3WMS18CapabilitiesReader4readERSi
libosgEarth.so.0:_ZN8osgEarth3WMS20WMSImageLayerOptions10fromConfigERKNS_6ConfigE
libosgEarth.so.0:_ZN8osgEarth3WMS20WMSImageLayerOptions11getMetadataEv
libosgEarth.so.0:_ZN8osgEarth3WMS5Layer10getExtentsERdS2_S2_S2_
libosgEarth.so.0:_ZN8osgEarth3WMS5Layer10setExtentsEdddd
libosgEarth.so.0:_ZN8osgEarth3WMS5Layer16getLatLonExtentsERdS2_S2_S2_
libosgEarth.so.0:_ZN8osgEarth3WMS5Layer16setLatLonExtentsEdddd
libosgEarth.so.0:_ZN8osgEarth3WMS5LayerC1Ev
libosgEarth.so.0:_ZN8osgEarth3WMS5LayerC2Ev
libosgEarth.so.0:_ZN8osgEarth3WMS5StyleC1ERKNSt7__cxx1112basic_stringIcSt11char_traitsIcESaIcEEES9_
libosgEarth.so.0:_ZN8osgEarth3WMS5StyleC1Ev
libosgEarth.so.0:_ZN8osgEarth3WMS5StyleC2ERKNSt7__cxx1112basic_stringIcSt11char_traitsIcESaIcEEES9_
libosgEarth.so.0:_ZN8osgEarth3WMS5StyleC2Ev
libosgEarth.so.0:_ZN8osgEarth3WMS6Driver11createImageERKNS_7TileKeyEPNS_16ProgressCallbackE
libosgEarth.so.0:_ZN8osgEarth3WMS6Driver14fetchTileImageERKNS_7TileKeyERKNSt7__cxx1112basic_stringIcSt11char_traitsIcESaIcEEEPNS_16ProgressCallbackERNS_10ReadResultE
libosgEarth.so.0:_ZN8osgEarth3WMS6Driver19createImageSequenceERKNS_7TileKeyEPNS_16ProgressCallbackE
libosgEarth.so.0:_ZN8osgEarth3WMS6Driver4openERN3osg7ref_ptrIKNS_7ProfileEEERSt6vectorINS_10DataExtentESaIS9_EE
libosgEarth.so.0:_ZN8osgEarth3WMS6DriverC1ERKNS0_20WMSImageLayerOptionsEPNS_15SequenceControlEPKN5osgDB7OptionsE
libosgEarth.so.0:_ZN8osgEarth3WMS6DriverC2ERKNS0_20WMSImageLayerOptionsEPNS_15SequenceControlEPKN5osgDB7OptionsE
libosgEarth.so.0:_ZN8osgEarth3XYZ20XYZImageLayerOptions10fromConfigERKNS_6ConfigE
libosgEarth.so.0:_ZN8osgEarth3XYZ20XYZImageLayerOptions11getMetadataEv
libosgEarth.so.0:_ZN8osgEarth3XYZ24XYZElevationLayerOptions10fromConfigERKNS_6ConfigE
libosgEarth.so.0:_ZN8osgEarth3XYZ24XYZElevationLayerOptions11getMetadataEv
libosgEarth.so.0:_ZN8osgEarth3XYZ6Driver4openERKNS_3URIERN3osg7ref_ptrIKNS_7ProfileEEERKNSt7__cxx1112basic_stringIcSt11char_traitsIcESaIcEEERSt6vectorINS_10DataExtentESaISK_EEPKN5osgDB7OptionsE
libosgEarth.so.0:_ZN8osgEarth4Fill11mergeConfigERKNS_6ConfigE
libosgEarth.so.0:_ZN8osgEarth4Fill4initEv
libosgEarth.so.0:_ZN8osgEarth4FillC1ERKNS_5ColorE
libosgEarth.so.0:_ZN8osgEarth4FillC1ERKNS_6ConfigE
libosgEarth.so.0:_ZN8osgEarth4FillC1ERKS0_
libosgEarth.so.0:_ZN8osgEarth4FillC1Effff
libosgEarth.so.0:_ZN8osgEarth4FillC1Ev
libosgEarth.so.0:_ZN8osgEarth4FillC2ERKNS_5ColorE
libosgEarth.so.0:_ZN8osgEarth4FillC2ERKNS_6ConfigE
libosgEarth.so.0:_ZN8osgEarth4FillC2ERKS0_
libosgEarth.so.0:_ZN8osgEarth4FillC2Effff
libosgEarth.so.0:_ZN8osgEarth4FillC2Ev
libosgEarth.so.0:_ZN8osgEarth4GDAL12getGeoExtentERNSt7__cxx1112basic_stringIcSt11char_traitsIcESaIcEEE
libosgEarth.so.0:_ZN8osgEarth4GDAL18findBandByDataTypeEP11GDALDataset12GDALDataType
libosgEarth.so.0:_ZN8osgEarth4GDAL20getPalleteIndexColorEP14GDALRasterBandiRN3osg6Vec4ubE
libosgEarth.so.0:_ZN8osgEarth4GDAL21findBandByColorInterpEP11GDALDataset15GDALColorInterp
libosgEarth.so.0:_ZN8osgEarth4GDAL44GDALAutoCreateWarpedVRTforPolarStereographicEPvPKcS3_15GDALResampleAlgdPK15GDALWarpOptions
libosgEarth.so.0:_ZN8osgEarth4GDAL6Driver10geoToPixelEddRdS2_
libosgEarth.so.0:_ZN8osgEarth4GDAL6Driver10intersectsERKNS_7TileKeyE
libosgEarth.so.0:_ZN8osgEarth4GDAL6Driver10pixelToGeoEddRdS2_
libosgEarth.so.0:_ZN8osgEarth4GDAL6Driver11createImageERKNS_7TileKeyEjbPNS_16ProgressCallbackE
libosgEarth.so.0:_ZN8osgEarth4GDAL6Driver12isValidValueEfP14GDALRasterBand
libosgEarth.so.0:_ZN8osgEarth4GDAL6Driver17createHeightFieldERKNS_7TileKeyEjPNS_16ProgressCallbackE
libosgEarth.so.0:_ZN8osgEarth4GDAL6Driver18setExternalDatasetEPNS0_15ExternalDatasetE
libosgEarth.so.0:_ZN8osgEarth4GDAL6Driver19isValidValue_noLockEfP14GDALRasterBand
libosgEarth.so.0:_ZN8osgEarth4GDAL6Driver20getInterpolatedValueEP14GDALRasterBandddb
libosgEarth.so.0:_ZN8osgEarth4GDAL6Driver24createHeightFieldWithVRTERKNS_7TileKeyEjPNS_16ProgressCallbackE
libosgEarth.so.0:_ZN8osgEarth4GDAL6Driver4openERKNSt7__cxx1112basic_stringIcSt11char_traitsIcESaIcEEERKNS0_7OptionsEjRSt6vectorINS_10DataExtentESaISE_EEPKN5osgDB7OptionsE
libosgEarth.so.0:_ZN8osgEarth4GDAL6DriverC1Ev
libosgEarth.so.0:_ZN8osgEarth4GDAL6DriverC2Ev
libosgEarth.so.0:_ZN8osgEarth4GDAL7Options8readFromERKNS_6ConfigE
libosgEarth.so.0:_ZN8osgEarth4GDAL7OptionsC1ERKNS_13ConfigOptionsE
libosgEarth.so.0:_ZN8osgEarth4GDAL7OptionsC2ERKNS_13ConfigOptionsE
libosgEarth.so.0:_ZN8osgEarth4GDAL8rasterIOEP14GDALRasterBand10GDALRWFlagiiiiPvii12GDALDataTypexxNS_19RasterInterpolationE
libosgEarth.so.0:_ZN8osgEarth4GDAL9Hue_2_RGBEfff
libosgEarth.so.0:_ZN8osgEarth4Ring4openEv
libosgEarth.so.0:_ZN8osgEarth4Ring5closeEv
libosgEarth.so.0:_ZN8osgEarth4Ring6rewindENS_8Geometry11OrientationE
libosgEarth.so.0:_ZN8osgEarth4RingC1EPKSt6vectorIN3osg5Vec3dESaIS3_EE
libosgEarth.so.0:_ZN8osgEarth4RingC1ERKS0_
libosgEarth.so.0:_ZN8osgEarth4RingC2EPKSt6vectorIN3osg5Vec3dESaIS3_EE
libosgEarth.so.0:_ZN8osgEarth4RingC2ERKS0_
libosgEarth.so.0:_ZN8osgEarth4RingD0Ev
libosgEarth.so.0:_ZN8osgEarth4RingD1Ev
libosgEarth.so.0:_ZN8osgEarth4RingD2Ev
libosgEarth.so.0:_ZN8osgEarth4Text14createStateSetEv
libosgEarth.so.0:_ZN8osgEarth4Text7setFontEN3osg7ref_ptrIN7osgText4FontEEE
libosgEarth.so.0:_ZN8osgEarth4TextC1ERKNSt7__cxx1112basic_stringIcSt11char_traitsIcESaIcEEE
libosgEarth.so.0:_ZN8osgEarth4TextC1ERKS0_RKN3osg6CopyOpE
libosgEarth.so.0:_ZN8osgEarth4TextC1Ev
libosgEarth.so.0:_ZN8osgEarth4TextC2ERKNSt7__cxx1112basic_stringIcSt11char_traitsIcESaIcEEE
libosgEarth.so.0:_ZN8osgEarth4TextC2ERKS0_RKN3osg6CopyOpE
libosgEarth.so.0:_ZN8osgEarth4TextC2Ev
libosgEarth.so.0:_ZN8osgEarth4TextD0Ev
libosgEarth.so.0:_ZN8osgEarth4TextD1Ev
libosgEarth.so.0:_ZN8osgEarth4TextD2Ev
libosgEarth.so.0:_ZN8osgEarth4Util10FadeEffect11setMaxRangeEf
libosgEarth.so.0:_ZN8osgEarth4Util10FadeEffect15setFadeDurationEf
libosgEarth.so.0:_ZN8osgEarth4Util10FadeEffect22createStartTimeUniformEv
libosgEarth.so.0:_ZN8osgEarth4Util10FadeEffect22setAttenuationDistanceEf
libosgEarth.so.0:_ZN8osgEarth4Util10FadeEffectC1Ev
libosgEarth.so.0:_ZN8osgEarth4Util10FadeEffectC2Ev
libosgEarth.so.0:_ZN8osgEarth4Util10GeoLocator9setExtentERKNS_9GeoExtentE
libosgEarth.so.0:_ZN8osgEarth4Util10GeoLocatorC1ERKNS_9GeoExtentE
libosgEarth.so.0:_ZN8osgEarth4Util10GeoLocatorC2ERKNS_9GeoExtentE
libosgEarth.so.0:_ZN8osgEarth4Util10HTTPClient10doDownloadERKNSt7__cxx1112basic_stringIcSt11char_traitsIcESaIcEEES9_
libosgEarth.so.0:_ZN8osgEarth4Util10HTTPClient10doReadNodeERKNS0_11HTTPRequestEPKN5osgDB7OptionsEPNS_16ProgressCallbackE
libosgEarth.so.0:_ZN8osgEarth4Util10HTTPClient10getTimeoutEv
libosgEarth.so.0:_ZN8osgEarth4Util10HTTPClient10globalInitEv
libosgEarth.so.0:_ZN8osgEarth4Util10HTTPClient10readObjectERKNS0_11HTTPRequestEPKN5osgDB7OptionsEPNS_16ProgressCallbackE
libosgEarth.so.0:_ZN8osgEarth4Util10HTTPClient10readStringERKNS0_11HTTPRequestEPKN5osgDB7OptionsEPNS_16ProgressCallbackE
libosgEarth.so.0:_ZN8osgEarth4Util10HTTPClient10setTimeoutEl
libosgEarth.so.0:_ZN8osgEarth4Util10HTTPClient11doReadImageERKNS0_11HTTPRequestEPKN5osgDB7OptionsEPNS_16ProgressCallbackE
libosgEarth.so.0:_ZN8osgEarth4Util10HTTPClient12doReadObjectERKNS0_11HTTPRequestEPKN5osgDB7OptionsEPNS_16ProgressCallbackE
libosgEarth.so.0:_ZN8osgEarth4Util10HTTPClient12doReadStringERKNS0_11HTTPRequestEPKN5osgDB7OptionsEPNS_16ProgressCallbackE
libosgEarth.so.0:_ZN8osgEarth4Util10HTTPClient12getUserAgentB5cxx11Ev
libosgEarth.so.0:_ZN8osgEarth4Util10HTTPClient12setUserAgentERKNSt7__cxx1112basic_stringIcSt11char_traitsIcESaIcEEE
libosgEarth.so.0:_ZN8osgEarth4Util10HTTPClient13getRetryDelayEv
libosgEarth.so.0:_ZN8osgEarth4Util10HTTPClient13setRetryDelayEf
libosgEarth.so.0:_ZN8osgEarth4Util10HTTPClient14getURLRewriterEv
libosgEarth.so.0:_ZN8osgEarth4Util10HTTPClient14initializeImplEv
libosgEarth.so.0:_ZN8osgEarth4Util10HTTPClient14setURLRewriterEPNS0_11URLRewriterE
libosgEarth.so.0:_ZN8osgEarth4Util10HTTPClient16getConfigHandlerEv
libosgEarth.so.0:_ZN8osgEarth4Util10HTTPClient16getProxySettingsEv
libosgEarth.so.0:_ZN8osgEarth4Util10HTTPClient16setConfigHandlerEPNS0_13ConfigHandlerE
libosgEarth.so.0:_ZN8osgEarth4Util10HTTPClient16setProxySettingsERKNS_8optionalINS_13ProxySettingsEEE
libosgEarth.so.0:_ZN8osgEarth4Util10HTTPClient17getConnectTimeoutEv
libosgEarth.so.0:_ZN8osgEarth4Util10HTTPClient17setConnectTimeoutEl
libosgEarth.so.0:_ZN8osgEarth4Util10HTTPClient24setImplementationFactoryEPNS1_21ImplementationFactoryE
libosgEarth.so.0:_ZN8osgEarth4Util10HTTPClient3getERKNS0_11HTTPRequestEPKN5osgDB7OptionsEPNS_16ProgressCallbackE
libosgEarth.so.0:_ZN8osgEarth4Util10HTTPClient3getERKNSt7__cxx1112basic_stringIcSt11char_traitsIcESaIcEEEPKN5osgDB7OptionsEPNS_16ProgressCallbackE
libosgEarth.so.0:_ZN8osgEarth4Util10HTTPClient8downloadERKNSt7__cxx1112basic_stringIcSt11char_traitsIcESaIcEEES9_
libosgEarth.so.0:_ZN8osgEarth4Util10HTTPClient8readNodeERKNS0_11HTTPRequestEPKN5osgDB7OptionsEPNS_16ProgressCallbackE
libosgEarth.so.0:_ZN8osgEarth4Util10HTTPClient9getClientEv
libosgEarth.so.0:_ZN8osgEarth4Util10HTTPClient9readImageERKNS0_11HTTPRequestEPKN5osgDB7OptionsEPNS_16ProgressCallbackE
libosgEarth.so.0:_ZN8osgEarth4Util10HTTPClientC1Ev
libosgEarth.so.0:_ZN8osgEarth4Util10HTTPClientC2Ev
libosgEarth.so.0:_ZN8osgEarth4Util10HTTPClientD0Ev
libosgEarth.so.0:_ZN8osgEarth4Util10HTTPClientD1Ev
libosgEarth.so.0:_ZN8osgEarth4Util10HTTPClientD2Ev
libosgEarth.so.0:_ZN8osgEarth4Util10ImageUtils10canConvertEPKN3osg5ImageEjj
libosgEarth.so.0:_ZN8osgEarth4Util10ImageUtils10cloneImageEPKN3osg5ImageE
libosgEarth.so.0:_ZN8osgEarth4Util10ImageUtils10readStreamERSiPKN5osgDB7OptionsE
libosgEarth.so.0:_ZN8osgEarth4Util10ImageUtils10sameFormatEPKN3osg5ImageES5_
libosgEarth.so.0:_ZN8osgEarth4Util10ImageUtils11PixelReader10setTextureEPKN3osg7TextureE
libosgEarth.so.0:_ZN8osgEarth4Util10ImageUtils11PixelReader8setImageEPKN3osg5ImageE
libosgEarth.so.0:_ZN8osgEarth4Util10ImageUtils11PixelReader8supportsEjj
libosgEarth.so.0:_ZN8osgEarth4Util10ImageUtils11PixelReaderC1EPKN3osg5ImageE
libosgEarth.so.0:_ZN8osgEarth4Util10ImageUtils11PixelReaderC1Ev
libosgEarth.so.0:_ZN8osgEarth4Util10ImageUtils11PixelReaderC2EPKN3osg5ImageE
libosgEarth.so.0:_ZN8osgEarth4Util10ImageUtils11PixelReaderC2Ev
libosgEarth.so.0:_ZN8osgEarth4Util10ImageUtils11PixelWriter6assignERKN3osg5Vec4fE
libosgEarth.so.0:_ZN8osgEarth4Util10ImageUtils11PixelWriter8supportsEjj
libosgEarth.so.0:_ZN8osgEarth4Util10ImageUtils11PixelWriterC1EPN3osg5ImageE
libosgEarth.so.0:_ZN8osgEarth4Util10ImageUtils11PixelWriterC2EPN3osg5ImageE
libosgEarth.so.0:_ZN8osgEarth4Util10ImageUtils11resizeImageEPKN3osg5ImageEjjRNS2_7ref_ptrIS3_EEjb
libosgEarth.so.0:_ZN8osgEarth4Util10ImageUtils12flattenImageEPN3osg5ImageERSt6vectorINS2_7ref_ptrIS3_EESaIS7_EE
libosgEarth.so.0:_ZN8osgEarth4Util10ImageUtils12isCompressedEPKN3osg5ImageE
libosgEarth.so.0:_ZN8osgEarth4Util10ImageUtils12isEmptyImageEPKN3osg5ImageEf
libosgEarth.so.0:_ZN8osgEarth4Util10ImageUtils12isPowerOfTwoEPKN3osg5ImageE
libosgEarth.so.0:_ZN8osgEarth4Util10ImageUtils13areEquivalentEPKN3osg5ImageES5_
libosgEarth.so.0:_ZN8osgEarth4Util10ImageUtils13convertToRGB8EPKN3osg5ImageE
libosgEarth.so.0:_ZN8osgEarth4Util10ImageUtils13createBumpMapEPKN3osg5ImageE
libosgEarth.so.0:_ZN8osgEarth4Util10ImageUtils14convertToRGBA8EPKN3osg5ImageE
libosgEarth.so.0:_ZN8osgEarth4Util10ImageUtils14copyAsSubImageEPKN3osg5ImageEPS3_ii
libosgEarth.so.0:_ZN8osgEarth4Util10ImageUtils15bicubicUpsampleEPKN3osg5ImageEPS3_jj
libosgEarth.so.0:_ZN8osgEarth4Util10ImageUtils15generateMipmapsEPN3osg5ImageE
libosgEarth.so.0:_ZN8osgEarth4Util10ImageUtils15generateMipmapsEPN3osg7TextureE
libosgEarth.so.0:_ZN8osgEarth4Util10ImageUtils15hasAlphaChannelEPKN3osg5ImageE
libosgEarth.so.0:_ZN8osgEarth4Util10ImageUtils15hasTransparencyEPKN3osg5ImageEf
libosgEarth.so.0:_ZN8osgEarth4Util10ImageUtils16createEmptyImageEjjj
libosgEarth.so.0:_ZN8osgEarth4Util10ImageUtils16createEmptyImageEv
libosgEarth.so.0:_ZN8osgEarth4Util10ImageUtils18isSingleColorImageEPKN3osg5ImageEf
libosgEarth.so.0:_ZN8osgEarth4Util10ImageUtils18makeTexture2DArrayEPN3osg5ImageE
libosgEarth.so.0:_ZN8osgEarth4Util10ImageUtils19createOnePixelImageERKN3osg5Vec4fE
libosgEarth.so.0:_ZN8osgEarth4Util10ImageUtils19featherAlphaRegionsEPN3osg5ImageEf
libosgEarth.so.0:_ZN8osgEarth4Util10ImageUtils19replaceNoDataValuesEPN3osg5ImageERKNS_6BoundsEPKS3_S7_
libosgEarth.so.0:_ZN8osgEarth4Util10ImageUtils20createSharpenedImageEPKN3osg5ImageE
libosgEarth.so.0:_ZN8osgEarth4Util10ImageUtils22textureArrayCompatibleEPKN3osg5ImageES5_
libosgEarth.so.0:_ZN8osgEarth4Util10ImageUtils24createMipmapBlendedImageEPKN3osg5ImageES5_
libosgEarth.so.0:_ZN8osgEarth4Util10ImageUtils24getReaderWriterForStreamERSi
libosgEarth.so.0:_ZN8osgEarth4Util10ImageUtils27convertToPremultipliedAlphaEPN3osg5ImageE
libosgEarth.so.0:_ZN8osgEarth4Util10ImageUtils29computeTextureCompressionModeEPKN3osg5ImageERNS2_7Texture18InternalFormatModeE
libosgEarth.so.0:_ZN8osgEarth4Util10ImageUtils29isFloatingPointInternalFormatEi
libosgEarth.so.0:_ZN8osgEarth4Util10ImageUtils3mixEPN3osg5ImageEPKS3_f
libosgEarth.so.0:_ZN8osgEarth4Util10ImageUtils7convertEPKN3osg5ImageEjj
libosgEarth.so.0:_ZN8osgEarth4Util10ImageUtils9cropImageEPKN3osg5ImageEddddRdS6_S6_S6_
libosgEarth.so.0:_ZN8osgEarth4Util10PolyShader11setLocationENS_10ShaderComp16FunctionLocationE
libosgEarth.so.0:_ZN8osgEarth4Util10PolyShader12lookUpShaderERKNSt7__cxx1112basic_stringIcSt11char_traitsIcESaIcEEES9_NS_10ShaderComp16FunctionLocationE
libosgEarth.so.0:_ZN8osgEarth4Util10PolyShader15setShaderSourceERKNSt7__cxx1112basic_stringIcSt11char_traitsIcESaIcEEE
libosgEarth.so.0:_ZN8osgEarth4Util10PolyShader16clearShaderCacheEv
libosgEarth.so.0:_ZN8osgEarth4Util10PolyShader21resizeGLObjectBuffersEj
libosgEarth.so.0:_ZN8osgEarth4Util10PolyShader7getHashEv
libosgEarth.so.0:_ZN8osgEarth4Util10PolyShader7prepareEv
libosgEarth.so.0:_ZN8osgEarth4Util10PolyShaderC1EPN3osg6ShaderE
libosgEarth.so.0:_ZN8osgEarth4Util10PolyShaderC1Ev
libosgEarth.so.0:_ZN8osgEarth4Util10PolyShaderC2EPN3osg6ShaderE
libosgEarth.so.0:_ZN8osgEarth4Util10PolyShaderC2Ev
libosgEarth.so.0:_ZN8osgEarth4Util10SkinSymbol11mergeConfigERKNS_6ConfigE
libosgEarth.so.0:_ZN8osgEarth4Util10SkinSymbol8parseSLDERKNS_6ConfigERNS_5StyleE
libosgEarth.so.0:_ZN8osgEarth4Util10SkinSymbolC1ERKNS_6ConfigE
libosgEarth.so.0:_ZN8osgEarth4Util10SkinSymbolC1ERKS1_RKN3osg6CopyOpE
libosgEarth.so.0:_ZN8osgEarth4Util10SkinSymbolC2ERKNS_6ConfigE
libosgEarth.so.0:_ZN8osgEarth4Util10SkinSymbolC2ERKS1_RKN3osg6CopyOpE
libosgEarth.so.0:_ZN8osgEarth4Util10TaskThread3runEv
libosgEarth.so.0:_ZN8osgEarth4Util10TaskThread6cancelEv
libosgEarth.so.0:_ZN8osgEarth4Util10TaskThreadC1EPNS0_16TaskRequestQueueE
libosgEarth.so.0:_ZN8osgEarth4Util10TaskThreadC2EPNS0_16TaskRequestQueueE
libosgEarth.so.0:_ZN8osgEarth4Util10ViewFitterC1EPKNS_16SpatialReferenceEPKN3osg6CameraE
libosgEarth.so.0:_ZN8osgEarth4Util10ViewFitterC2EPKNS_16SpatialReferenceEPKN3osg6CameraE
libosgEarth.so.0:_ZN8osgEarth4Util10XmlElement11getChildrenEv
libosgEarth.so.0:_ZN8osgEarth4Util10XmlElement13addSubElementERKNSt7__cxx1112basic_stringIcSt11char_traitsIcESaIcEEES9_
libosgEarth.so.0:_ZN8osgEarth4Util10XmlElement7setNameERKNSt7__cxx1112basic_stringIcSt11char_traitsIcESaIcEEE
libosgEarth.so.0:_ZN8osgEarth4Util10XmlElement8getAttrsB5cxx11Ev
libosgEarth.so.0:_ZN8osgEarth4Util10XmlElementC1ERKNS_6ConfigE
libosgEarth.so.0:_ZN8osgEarth4Util10XmlElementC1ERKNSt7__cxx1112basic_stringIcSt11char_traitsIcESaIcEEE
libosgEarth.so.0:_ZN8osgEarth4Util10XmlElementC1ERKNSt7__cxx1112basic_stringIcSt11char_traitsIcESaIcEEERKSt3mapIS7_S7_St4lessIS7_ESaISt4pairIS8_S7_EEE
libosgEarth.so.0:_ZN8osgEarth4Util10XmlElementC2ERKNS_6ConfigE
libosgEarth.so.0:_ZN8osgEarth4Util10XmlElementC2ERKNSt7__cxx1112basic_stringIcSt11char_traitsIcESaIcEEE
libosgEarth.so.0:_ZN8osgEarth4Util10XmlElementC2ERKNSt7__cxx1112basic_stringIcSt11char_traitsIcESaIcEEERKSt3mapIS7_S7_St4lessIS7_ESaISt4pairIS8_S7_EEE
libosgEarth.so.0:_ZN8osgEarth4Util10hashStringERKNSt7__cxx1112basic_stringIcSt11char_traitsIcESaIcEEE
libosgEarth.so.0:_ZN8osgEarth4Util10startsWithERKNSt7__cxx1112basic_stringIcSt11char_traitsIcESaIcEEES8_bRKSt6locale
libosgEarth.so.0:_ZN8osgEarth4Util11CacheDriverD0Ev
libosgEarth.so.0:_ZN8osgEarth4Util11CacheDriverD1Ev
libosgEarth.so.0:_ZN8osgEarth4Util11CacheDriverD2Ev
libosgEarth.so.0:_ZN8osgEarth4Util11CameraUtils13isDepthCameraEPKN3osg6CameraE
libosgEarth.so.0:_ZN8osgEarth4Util11CameraUtils14isShadowCameraEPKN3osg6CameraE
libosgEarth.so.0:_ZN8osgEarth4Util11CameraUtils16setIsDepthCameraEPN3osg6CameraE
libosgEarth.so.0:_ZN8osgEarth4Util11CameraUtils17setIsShadowCameraEPN3osg6CameraE
libosgEarth.so.0:_ZN8osgEarth4Util11GEOSContext14exportGeometryEPKN4geos4geom8GeometryE
libosgEarth.so.0:_ZN8osgEarth4Util11GEOSContext14importGeometryEPKNS_8GeometryE
libosgEarth.so.0:_ZN8osgEarth4Util11GEOSContext15disposeGeometryEPN4geos4geom8GeometryE
libosgEarth.so.0:_ZN8osgEarth4Util11GEOSContextC1Ev
libosgEarth.so.0:_ZN8osgEarth4Util11GEOSContextC2Ev
libosgEarth.so.0:_ZN8osgEarth4Util11GEOSContextD1Ev
libosgEarth.so.0:_ZN8osgEarth4Util11GEOSContextD2Ev
libosgEarth.so.0:_ZN8osgEarth4Util11HTTPRequest10getHeadersB5cxx11Ev
libosgEarth.so.0:_ZN8osgEarth4Util11HTTPRequest12addParameterERKNSt7__cxx1112basic_stringIcSt11char_traitsIcESaIcEEES9_
libosgEarth.so.0:_ZN8osgEarth4Util11HTTPRequest12addParameterERKNSt7__cxx1112basic_stringIcSt11char_traitsIcESaIcEEEd
libosgEarth.so.0:_ZN8osgEarth4Util11HTTPRequest12addParameterERKNSt7__cxx1112basic_stringIcSt11char_traitsIcESaIcEEEi
libosgEarth.so.0:_ZN8osgEarth4Util11HTTPRequest15setLastModifiedERKNS_8DateTimeE
libosgEarth.so.0:_ZN8osgEarth4Util11HTTPRequest9addHeaderERKNSt7__cxx1112basic_stringIcSt11char_traitsIcESaIcEEES9_
libosgEarth.so.0:_ZN8osgEarth4Util11HTTPRequestC1ERKNSt7__cxx1112basic_stringIcSt11char_traitsIcESaIcEEE
libosgEarth.so.0:_ZN8osgEarth4Util11HTTPRequestC1ERKS1_
libosgEarth.so.0:_ZN8osgEarth4Util11HTTPRequestC2ERKNSt7__cxx1112basic_stringIcSt11char_traitsIcESaIcEEE
libosgEarth.so.0:_ZN8osgEarth4Util11HTTPRequestC2ERKS1_
libosgEarth.so.0:_ZN8osgEarth4Util11ImageMosaic10getExtentsERdS2_S2_S2_
libosgEarth.so.0:_ZN8osgEarth4Util11ImageMosaic11createImageEv
libosgEarth.so.0:_ZN8osgEarth4Util11ImageMosaicC1Ev
libosgEarth.so.0:_ZN8osgEarth4Util11ImageMosaicC2Ev
libosgEarth.so.0:_ZN8osgEarth4Util11ImageMosaicD0Ev
libosgEarth.so.0:_ZN8osgEarth4Util11ImageMosaicD1Ev
libosgEarth.so.0:_ZN8osgEarth4Util11ImageMosaicD2Ev
libosgEarth.so.0:_ZN8osgEarth4Util11LayerShader7installEPNS_5LayerEPNS_16TerrainResourcesE
libosgEarth.so.0:_ZN8osgEarth4Util11LayerShaderC1ERKNS0_13ShaderOptionsE
libosgEarth.so.0:_ZN8osgEarth4Util11LayerShaderC2ERKNS0_13ShaderOptionsE
libosgEarth.so.0:_ZN8osgEarth4Util11LayerShaderD0Ev
libosgEarth.so.0:_ZN8osgEarth4Util11LayerShaderD1Ev
libosgEarth.so.0:_ZN8osgEarth4Util11LayerShaderD2Ev
libosgEarth.so.0:_ZN8osgEarth4Util11ProgramRepo11linkProgramERKSt6vectorIjSaIjEEPN3osg7ProgramEPNS8_17PerContextProgramERNS7_5StateE
libosgEarth.so.0:_ZN8osgEarth4Util11ProgramRepo21resizeGLObjectBuffersEj
libosgEarth.so.0:_ZN8osgEarth4Util11ProgramRepo24setReleaseUnusedProgramsEb
libosgEarth.so.0:_ZN8osgEarth4Util11ProgramRepo29setProgramBinaryCacheLocationERKNSt7__cxx1112basic_stringIcSt11char_traitsIcESaIcEEE
libosgEarth.so.0:_ZN8osgEarth4Util11ProgramRepo3addERKSt6vectorIjSaIjEERN3osg7ref_ptrINS7_7ProgramEEEji
libosgEarth.so.0:_ZN8osgEarth4Util11ProgramRepo3useERKSt6vectorIjSaIjEEji
libosgEarth.so.0:_ZN8osgEarth4Util11ProgramRepo5pruneEjPN3osg5StateE
libosgEarth.so.0:_ZN8osgEarth4Util11ProgramRepo7releaseEiPN3osg5StateE
libosgEarth.so.0:_ZN8osgEarth4Util11ProgramRepoC1Ev
libosgEarth.so.0:_ZN8osgEarth4Util11ProgramRepoC2Ev
libosgEarth.so.0:_ZN8osgEarth4Util11ProgramRepoD0Ev
libosgEarth.so.0:_ZN8osgEarth4Util11ProgramRepoD1Ev
libosgEarth.so.0:_ZN8osgEarth4Util11ProgramRepoD2Ev
libosgEarth.so.0:_ZN8osgEarth4Util11ShaderUtils20installDefaultShaderEPN3osg8StateSetE
libosgEarth.so.0:_ZN8osgEarth4Util11SimplePager10createNodeERKNS_7TileKeyEPNS_16ProgressCallbackE
libosgEarth.so.0:_ZN8osgEarth4Util11SimplePager11addCallbackEPNS1_8CallbackE
libosgEarth.so.0:_ZN8osgEarth4Util11SimplePager13buildRootNodeEv
libosgEarth.so.0:_ZN8osgEarth4Util11SimplePager14removeCallbackEPNS1_8CallbackE
libosgEarth.so.0:_ZN8osgEarth4Util11SimplePager15ProgressTrackerC1EPN3osg12NodeCallbackE
libosgEarth.so.0:_ZN8osgEarth4Util11SimplePager15ProgressTrackerC2EPN3osg12NodeCallbackE
libosgEarth.so.0:_ZN8osgEarth4Util11SimplePager15ProgressTrackerclEPN3osg4NodeEPNS3_11NodeVisitorE
libosgEarth.so.0:_ZN8osgEarth4Util11SimplePager15createPagedNodeERKNS_7TileKeyEPNS_16ProgressCallbackE
libosgEarth.so.0:_ZN8osgEarth4Util11SimplePager17fire_onCreateNodeERKNS_7TileKeyEPN3osg4NodeE
libosgEarth.so.0:_ZN8osgEarth4Util11SimplePager20setEnableCancelationEb
libosgEarth.so.0:_ZN8osgEarth4Util11SimplePager5buildEv
libosgEarth.so.0:_ZN8osgEarth4Util11SimplePager7loadKeyERKNS_7TileKeyEPNS1_15ProgressTrackerE
libosgEarth.so.0:_ZN8osgEarth4Util11SimplePagerC1EPKNS_7ProfileE
libosgEarth.so.0:_ZN8osgEarth4Util11SimplePagerC2EPKNS_7ProfileE
libosgEarth.so.0:_ZN8osgEarth4Util11TaskRequest3runEv
libosgEarth.so.0:_ZN8osgEarth4Util11TaskRequest6cancelEv
libosgEarth.so.0:_ZN8osgEarth4Util11TaskRequestC1Ef
libosgEarth.so.0:_ZN8osgEarth4Util11TaskRequestC2Ef
libosgEarth.so.0:_ZN8osgEarth4Util11TaskService13setNumThreadsEi
libosgEarth.so.0:_ZN8osgEarth4Util11TaskService17adjustThreadCountEv
libosgEarth.so.0:_ZN8osgEarth4Util11TaskService17areThreadsRunningEv
libosgEarth.so.0:_ZN8osgEarth4Util11TaskService21removeFinishedThreadsEv
libosgEarth.so.0:_ZN8osgEarth4Util11TaskService24waitforThreadsToCompleteEv
libosgEarth.so.0:_ZN8osgEarth4Util11TaskService3addEPNS0_11TaskRequestE
libosgEarth.so.0:_ZN8osgEarth4Util11TaskService8setStampEi
libosgEarth.so.0:_ZN8osgEarth4Util11TaskService9cancelAllEv
libosgEarth.so.0:_ZN8osgEarth4Util11TaskServiceC1ERKNSt7__cxx1112basic_stringIcSt11char_traitsIcESaIcEEEij
libosgEarth.so.0:_ZN8osgEarth4Util11TaskServiceC2ERKNSt7__cxx1112basic_stringIcSt11char_traitsIcESaIcEEEij
libosgEarth.so.0:_ZN8osgEarth4Util11TaskServiceD0Ev
libosgEarth.so.0:_ZN8osgEarth4Util11TaskServiceD1Ev
libosgEarth.so.0:_ZN8osgEarth4Util11TaskServiceD2Ev
libosgEarth.so.0:_ZN8osgEarth4Util11Tessellator18tessellateGeometryERN3osg8GeometryE
libosgEarth.so.0:_ZN8osgEarth4Util11Tessellator19tessellatePrimitiveEPN3osg12PrimitiveSetEPNS2_13TemplateArrayINS2_5Vec3fELNS2_5Array4TypeE28ELi3ELi5126EEE
libosgEarth.so.0:_ZN8osgEarth4Util11Tessellator19tessellatePrimitiveEjjPN3osg13TemplateArrayINS2_5Vec3fELNS2_5Array4TypeE28ELi3ELi5126EEE
libosgEarth.so.0:_ZN8osgEarth4Util11Tessellator5isEarERKN3osg13TemplateArrayINS2_5Vec3fELNS2_5Array4TypeE28ELi3ELi5126EEERKSt6vectorIjSaIjEEjRb
libosgEarth.so.0:_ZN8osgEarth4Util11Tessellator8isConvexERKN3osg13TemplateArrayINS2_5Vec3fELNS2_5Array4TypeE28ELi3ELi5126EEERKSt6vectorIjSaIjEEj
libosgEarth.so.0:_ZN8osgEarth4Util11TileHandler10handleTileERKNS_7TileKeyERKNS0_11TileVisitorE
libosgEarth.so.0:_ZN8osgEarth4Util11TileVisitor10handleTileERKNS_7TileKeyE
libosgEarth.so.0:_ZN8osgEarth4Util11TileVisitor10intersectsERKNS_9GeoExtentE
libosgEarth.so.0:_ZN8osgEarth4Util11TileVisitor10processKeyERKNS_7TileKeyE
libosgEarth.so.0:_ZN8osgEarth4Util11TileVisitor13resetProgressEv
libosgEarth.so.0:_ZN8osgEarth4Util11TileVisitor14setTileHandlerEPNS0_11TileHandlerE
libosgEarth.so.0:_ZN8osgEarth4Util11TileVisitor17incrementProgressEj
libosgEarth.so.0:_ZN8osgEarth4Util11TileVisitor19setProgressCallbackEPNS_16ProgressCallbackE
libosgEarth.so.0:_ZN8osgEarth4Util11TileVisitor3runEPKNS_7ProfileE
libosgEarth.so.0:_ZN8osgEarth4Util11TileVisitor8estimateEv
libosgEarth.so.0:_ZN8osgEarth4Util11TileVisitor9addExtentERKNS_9GeoExtentE
libosgEarth.so.0:_ZN8osgEarth4Util11TileVisitorC1EPNS0_11TileHandlerE
libosgEarth.so.0:_ZN8osgEarth4Util11TileVisitorC1Ev
libosgEarth.so.0:_ZN8osgEarth4Util11TileVisitorC2EPNS0_11TileHandlerE
libosgEarth.so.0:_ZN8osgEarth4Util11TileVisitorC2Ev
libosgEarth.so.0:_ZN8osgEarth4Util11VisitorData5isSetERN3osg11NodeVisitorERKNSt7__cxx1112basic_stringIcSt11char_traitsIcESaIcEEE
libosgEarth.so.0:_ZN8osgEarth4Util11VisitorData5storeERN3osg11NodeVisitorERKNSt7__cxx1112basic_stringIcSt11char_traitsIcESaIcEEEPNS2_10ReferencedE
libosgEarth.so.0:_ZN8osgEarth4Util11VisitorData6_fetchERN3osg11NodeVisitorERKNSt7__cxx1112basic_stringIcSt11char_traitsIcESaIcEEE
libosgEarth.so.0:_ZN8osgEarth4Util11VisitorData6removeERN3osg11NodeVisitorERKNSt7__cxx1112basic_stringIcSt11char_traitsIcESaIcEEE
libosgEarth.so.0:_ZN8osgEarth4Util11XmlDocument4loadERKNS_3URIEPKN5osgDB7OptionsE
libosgEarth.so.0:_ZN8osgEarth4Util11XmlDocument4loadERKNSt7__cxx1112basic_stringIcSt11char_traitsIcESaIcEEEPKN5osgDB7OptionsE
libosgEarth.so.0:_ZN8osgEarth4Util11XmlDocument4loadERSiRKNS_10URIContextE
libosgEarth.so.0:_ZN8osgEarth4Util11XmlDocumentC1ERKNS_6ConfigE
libosgEarth.so.0:_ZN8osgEarth4Util11XmlDocumentC1Ev
libosgEarth.so.0:_ZN8osgEarth4Util11XmlDocumentC2ERKNS_6ConfigE
libosgEarth.so.0:_ZN8osgEarth4Util11XmlDocumentC2Ev
libosgEarth.so.0:_ZN8osgEarth4Util11XmlDocumentD0Ev
libosgEarth.so.0:_ZN8osgEarth4Util11XmlDocumentD1Ev
libosgEarth.so.0:_ZN8osgEarth4Util11XmlDocumentD2Ev
libosgEarth.so.0:_ZN8osgEarth4Util11ciReplaceInERNSt7__cxx1112basic_stringIcSt11char_traitsIcESaIcEEERKS6_S9_
libosgEarth.so.0:_ZN8osgEarth4Util11getFullPathERKNSt7__cxx1112basic_stringIcSt11char_traitsIcESaIcEEES8_
libosgEarth.so.0:_ZN8osgEarth4Util11getTempNameERKNSt7__cxx1112basic_stringIcSt11char_traitsIcESaIcEEES8_
libosgEarth.so.0:_ZN8osgEarth4Util11getTempPathB5cxx11Ev
libosgEarth.so.0:_ZN8osgEarth4Util11joinStringsERKSt6vectorINSt7__cxx1112basic_stringIcSt11char_traitsIcESaIcEEESaIS7_EEc
libosgEarth.so.0:_ZN8osgEarth4Util12ArrayUniform10setElementEjRKN3osg5Vec3fE
libosgEarth.so.0:_ZN8osgEarth4Util12ArrayUniform10setElementEjRKN3osg7MatrixdE
libosgEarth.so.0:_ZN8osgEarth4Util12ArrayUniform10setElementEjb
libosgEarth.so.0:_ZN8osgEarth4Util12ArrayUniform10setElementEjf
libosgEarth.so.0:_ZN8osgEarth4Util12ArrayUniform10setElementEji
libosgEarth.so.0:_ZN8osgEarth4Util12ArrayUniform10setElementEjj
libosgEarth.so.0:_ZN8osgEarth4Util12ArrayUniform14ensureCapacityEj
libosgEarth.so.0:_ZN8osgEarth4Util12ArrayUniform6attachERKNSt7__cxx1112basic_stringIcSt11char_traitsIcESaIcEEEN3osg7Uniform4TypeEPNSA_8StateSetEj
libosgEarth.so.0:_ZN8osgEarth4Util12ArrayUniform6detachEv
libosgEarth.so.0:_ZN8osgEarth4Util12ArrayUniformC1ERKNSt7__cxx1112basic_stringIcSt11char_traitsIcESaIcEEEN3osg7Uniform4TypeEPNSA_8StateSetEj
libosgEarth.so.0:_ZN8osgEarth4Util12ArrayUniformC2ERKNSt7__cxx1112basic_stringIcSt11char_traitsIcESaIcEEEN3osg7Uniform4TypeEPNSA_8StateSetEj
libosgEarth.so.0:_ZN8osgEarth4Util12BboxDrawableC1ERKN3osg15BoundingBoxImplINS2_5Vec3fEEERKNS_10BBoxSymbolE
libosgEarth.so.0:_ZN8osgEarth4Util12BboxDrawableC2ERKN3osg15BoundingBoxImplINS2_5Vec3fEEERKNS_10BBoxSymbolE
libosgEarth.so.0:_ZN8osgEarth4Util12BufferFilter11isSupportedEv
libosgEarth.so.0:_ZN8osgEarth4Util12BufferFilter4pushERNSt7__cxx114listIN3osg7ref_ptrINS_7FeatureEEESaIS7_EEERNS0_13FilterContextE
libosgEarth.so.0:_ZN8osgEarth4Util12BufferFilterC1ERKNS_6ConfigE
libosgEarth.so.0:_ZN8osgEarth4Util12BufferFilterC1ERKS1_
libosgEarth.so.0:_ZN8osgEarth4Util12BufferFilterC1Ev
libosgEarth.so.0:_ZN8osgEarth4Util12BufferFilterC2ERKNS_6ConfigE
libosgEarth.so.0:_ZN8osgEarth4Util12BufferFilterC2ERKS1_
libosgEarth.so.0:_ZN8osgEarth4Util12BufferFilterC2Ev
libosgEarth.so.0:_ZN8osgEarth4Util12CacheFactory6createERKNS_12CacheOptionsE
libosgEarth.so.0:_ZN8osgEarth4Util12HTTPResponseC1ERKS1_
libosgEarth.so.0:_ZN8osgEarth4Util12HTTPResponseC1El
libosgEarth.so.0:_ZN8osgEarth4Util12HTTPResponseC2ERKS1_
libosgEarth.so.0:_ZN8osgEarth4Util12HTTPResponseC2El
libosgEarth.so.0:_ZN8osgEarth4Util12IconResource11mergeConfigERKNS_6ConfigE
libosgEarth.so.0:_ZN8osgEarth4Util12IconResourceC1ERKNS_6ConfigE
libosgEarth.so.0:_ZN8osgEarth4Util12IconResourceC2ERKNS_6ConfigE
libosgEarth.so.0:_ZN8osgEarth4Util12ShaderLoader14getPragmaValueERKNSt7__cxx1112basic_stringIcSt11char_traitsIcESaIcEEES9_
libosgEarth.so.0:_ZN8osgEarth4Util12ShaderLoader18getAllPragmaValuesERKNSt7__cxx1112basic_stringIcSt11char_traitsIcESaIcEEES9_RSt3setIS7_St4lessIS7_ESaIS7_EE
libosgEarth.so.0:_ZN8osgEarth4Util12ShaderLoader4loadEPNS_14VirtualProgramERKNSt7__cxx1112basic_stringIcSt11char_traitsIcESaIcEEERKNS0_13ShaderPackageEPKN5osgDB7OptionsE
libosgEarth.so.0:_ZN8osgEarth4Util12ShaderLoader4loadERKNSt7__cxx1112basic_stringIcSt11char_traitsIcESaIcEEERKNS0_13ShaderPackageEPKN5osgDB7OptionsE
libosgEarth.so.0:_ZN8osgEarth4Util12ShaderLoader4loadERKNSt7__cxx1112basic_stringIcSt11char_traitsIcESaIcEEES9_PKN5osgDB7OptionsE
libosgEarth.so.0:_ZN8osgEarth4Util12ShaderLoader5splitERKNSt7__cxx1112basic_stringIcSt11char_traitsIcESaIcEEERSt6vectorIS7_SaIS7_EE
libosgEarth.so.0:_ZN8osgEarth4Util12ShaderLoader6unloadEPNS_14VirtualProgramERKNSt7__cxx1112basic_stringIcSt11char_traitsIcESaIcEEERKNS0_13ShaderPackageEPKN5osgDB7OptionsE
libosgEarth.so.0:_ZN8osgEarth4Util12ShaderMerger3addEPKN3osg6ShaderE
libosgEarth.so.0:_ZN8osgEarth4Util12ShaderMerger5mergeEPN3osg6ShaderE
libosgEarth.so.0:_ZN8osgEarth4Util12ShaderMerger5mergeEPN3osg7ProgramE
libosgEarth.so.0:_ZN8osgEarth4Util12ShadowCaster12reinitializeEv
libosgEarth.so.0:_ZN8osgEarth4Util12ShadowCaster13setBlurFactorEf
libosgEarth.so.0:_ZN8osgEarth4Util12ShadowCaster14setShadowColorEf
libosgEarth.so.0:_ZN8osgEarth4Util12ShadowCaster14setTextureSizeEj
libosgEarth.so.0:_ZN8osgEarth4Util12ShadowCaster19setTextureImageUnitEi
libosgEarth.so.0:_ZN8osgEarth4Util12ShadowCaster21resizeGLObjectBuffersEj
libosgEarth.so.0:_ZN8osgEarth4Util12ShadowCaster8traverseERN3osg11NodeVisitorE
libosgEarth.so.0:_ZN8osgEarth4Util12ShadowCaster9setRangesERKSt6vectorIfSaIfEE
libosgEarth.so.0:_ZN8osgEarth4Util12ShadowCasterC1Ev
libosgEarth.so.0:_ZN8osgEarth4Util12ShadowCasterC2Ev
libosgEarth.so.0:_ZN8osgEarth4Util12SimplexNoise3DotERKNS1_4GradEdd
libosgEarth.so.0:_ZN8osgEarth4Util12SimplexNoise3DotERKNS1_4GradEddd
libosgEarth.so.0:_ZN8osgEarth4Util12SimplexNoise3DotERKNS1_4GradEdddd
libosgEarth.so.0:_ZN8osgEarth4Util12SimplexNoise4GradC1Eddd
libosgEarth.so.0:_ZN8osgEarth4Util12SimplexNoise4GradC1Edddd
libosgEarth.so.0:_ZN8osgEarth4Util12SimplexNoise4GradC2Eddd
libosgEarth.so.0:_ZN8osgEarth4Util12SimplexNoise4GradC2Edddd
libosgEarth.so.0:_ZN8osgEarth4Util12SimplexNoiseC1ERKS1_
libosgEarth.so.0:_ZN8osgEarth4Util12SimplexNoiseC1Ev
libosgEarth.so.0:_ZN8osgEarth4Util12SimplexNoiseC2ERKS1_
libosgEarth.so.0:_ZN8osgEarth4Util12SimplexNoiseC2Ev
libosgEarth.so.0:_ZN8osgEarth4Util12SkinResource11mergeConfigERKNS_6ConfigE
libosgEarth.so.0:_ZN8osgEarth4Util12SkinResourceC1ERKNS_6ConfigE
libosgEarth.so.0:_ZN8osgEarth4Util12SkinResourceC2ERKNS_6ConfigE
libosgEarth.so.0:_ZN8osgEarth4Util12UTMGraticule10addedToMapEPKNS_3MapE
libosgEarth.so.0:_ZN8osgEarth4Util12UTMGraticule11setGZDStyleERKNS_5StyleE
libosgEarth.so.0:_ZN8osgEarth4Util12UTMGraticule12setTextScaleERKf
libosgEarth.so.0:_ZN8osgEarth4Util12UTMGraticule14removedFromMapEPKNS_3MapE
libosgEarth.so.0:_ZN8osgEarth4Util12UTMGraticule4initEv
libosgEarth.so.0:_ZN8osgEarth4Util12UTMGraticule5dirtyEv
libosgEarth.so.0:_ZN8osgEarth4Util12UTMGraticule7Options10fromConfigERKNS_6ConfigE
libosgEarth.so.0:_ZN8osgEarth4Util12UTMGraticule7UTMData12buildGZDTileERKNSt7__cxx1112basic_stringIcSt11char_traitsIcESaIcEEERKNS_9GeoExtentERKNS_5StyleEPKNS_14FeatureProfileEPKNS_3MapE
libosgEarth.so.0:_ZN8osgEarth4Util12UTMGraticule7UTMData7rebuildEPKNS_7ProfileE
libosgEarth.so.0:_ZN8osgEarth4Util12UTMGraticule7rebuildEv
libosgEarth.so.0:_ZN8osgEarth4Util12hashToStringERKNSt7__cxx1112basic_stringIcSt11char_traitsIcESaIcEEE
libosgEarth.so.0:_ZN8osgEarth4Util13CacheSettings20integrateCachePolicyERKNS_11CachePolicyE
libosgEarth.so.0:_ZN8osgEarth4Util13CacheSettings20integrateCachePolicyERKNS_8optionalINS_11CachePolicyEEE
libosgEarth.so.0:_ZN8osgEarth4Util13CacheSettings3getEPKN5osgDB7OptionsE
libosgEarth.so.0:_ZN8osgEarth4Util13CacheSettings5storeEPN5osgDB7OptionsE
libosgEarth.so.0:_ZN8osgEarth4Util13CacheSettingsC1ERKS1_RKN3osg6CopyOpE
libosgEarth.so.0:_ZN8osgEarth4Util13CacheSettingsC1Ev
libosgEarth.so.0:_ZN8osgEarth4Util13CacheSettingsC2ERKS1_RKN3osg6CopyOpE
libosgEarth.so.0:_ZN8osgEarth4Util13CacheSettingsC2Ev
libosgEarth.so.0:_ZN8osgEarth4Util13DirtyNotifier12removeParentEPS1_
libosgEarth.so.0:_ZN8osgEarth4Util13DirtyNotifier8setDirtyEv
libosgEarth.so.0:_ZN8osgEarth4Util13DirtyNotifier9addParentEPS1_
libosgEarth.so.0:_ZN8osgEarth4Util13DirtyNotifierC1Ev
libosgEarth.so.0:_ZN8osgEarth4Util13DirtyNotifierC2Ev
libosgEarth.so.0:_ZN8osgEarth4Util13DrawInstanced15getMatrixVectorEPN3osg4NodeE
libosgEarth.so.0:_ZN8osgEarth4Util13DrawInstanced22ConvertToDrawInstanced5applyERN3osg3LODE
libosgEarth.so.0:_ZN8osgEarth4Util13DrawInstanced22ConvertToDrawInstanced5applyERN3osg4NodeE
libosgEarth.so.0:_ZN8osgEarth4Util13DrawInstanced22ConvertToDrawInstanced5applyERN3osg8DrawableE
libosgEarth.so.0:_ZN8osgEarth4Util13DrawInstanced22ConvertToDrawInstancedC1EjRKN3osg15BoundingBoxImplINS3_5Vec3fEEEbPNS3_13TextureBufferEi
libosgEarth.so.0:_ZN8osgEarth4Util13DrawInstanced22ConvertToDrawInstancedC2EjRKN3osg15BoundingBoxImplINS3_5Vec3fEEEbPNS3_13TextureBufferEi
libosgEarth.so.0:_ZN8osgEarth4Util13DrawInstanced30convertGraphToUseDrawInstancedEPN3osg5GroupE
libosgEarth.so.0:_ZN8osgEarth4Util13DrawInstanced6removeEPN3osg8StateSetE
libosgEarth.so.0:_ZN8osgEarth4Util13DrawInstanced7installEPN3osg8StateSetE
libosgEarth.so.0:_ZN8osgEarth4Util13FeatureFilterD0Ev
libosgEarth.so.0:_ZN8osgEarth4Util13FeatureFilterD1Ev
libosgEarth.so.0:_ZN8osgEarth4Util13FeatureFilterD2Ev
libosgEarth.so.0:_ZN8osgEarth4Util13FilterContext10getSessionEv
libosgEarth.so.0:_ZN8osgEarth4Util13FilterContext10setProfileEPKNS_14FeatureProfileE
libosgEarth.so.0:_ZN8osgEarth4Util13FilterContext13resourceCacheEv
libosgEarth.so.0:_ZN8osgEarth4Util13FilterContextC1EPNS0_7SessionEPKNS_14FeatureProfileERKNS_9GeoExtentEPNS_19FeatureIndexBuilderE
libosgEarth.so.0:_ZN8osgEarth4Util13FilterContextC1ERKS1_
libosgEarth.so.0:_ZN8osgEarth4Util13FilterContextC1Ev
libosgEarth.so.0:_ZN8osgEarth4Util13FilterContextC2EPNS0_7SessionEPKNS_14FeatureProfileERKNS_9GeoExtentEPNS_19FeatureIndexBuilderE
libosgEarth.so.0:_ZN8osgEarth4Util13FilterContextC2ERKS1_
libosgEarth.so.0:_ZN8osgEarth4Util13FilterContextC2Ev
libosgEarth.so.0:_ZN8osgEarth4Util13FilterContextD1Ev
libosgEarth.so.0:_ZN8osgEarth4Util13FilterContextD2Ev
libosgEarth.so.0:_ZN8osgEarth4Util13GARSGraticule10addedToMapEPKNS_3MapE
libosgEarth.so.0:_ZN8osgEarth4Util13GARSGraticule14removedFromMapEPKNS_3MapE
libosgEarth.so.0:_ZN8osgEarth4Util13GARSGraticule15build30MinCellsEv
libosgEarth.so.0:_ZN8osgEarth4Util13GARSGraticule4initEv
libosgEarth.so.0:_ZN8osgEarth4Util13GARSGraticule5dirtyEv
libosgEarth.so.0:_ZN8osgEarth4Util13GARSGraticule7Options10fromConfigERKNS_6ConfigE
libosgEarth.so.0:_ZN8osgEarth4Util13GARSGraticule7rebuildEv
libosgEarth.so.0:_ZN8osgEarth4Util13GARSGraticule8setStyleERKNS_5StyleE
libosgEarth.so.0:_ZN8osgEarth4Util13LODScaleGroup8traverseERN3osg11NodeVisitorE
libosgEarth.so.0:_ZN8osgEarth4Util13LODScaleGroupC1Ev
libosgEarth.so.0:_ZN8osgEarth4Util13LODScaleGroupC2Ev
libosgEarth.so.0:_ZN8osgEarth4Util13MGRSFormatterC1ENS1_9PrecisionEPKNS_16SpatialReferenceEj
libosgEarth.so.0:_ZN8osgEarth4Util13MGRSFormatterC2ENS1_9PrecisionEPKNS_16SpatialReferenceEj
libosgEarth.so.0:_ZN8osgEarth4Util13MGRSGraticule10addedToMapEPKNS_3MapE
libosgEarth.so.0:_ZN8osgEarth4Util13MGRSGraticule13setStyleSheetEPNS_10StyleSheetE
libosgEarth.so.0:_ZN8osgEarth4Util13MGRSGraticule14removedFromMapEPKNS_3MapE
libosgEarth.so.0:_ZN8osgEarth4Util13MGRSGraticule14setSQIDDataURLERKNS_3URIE
libosgEarth.so.0:_ZN8osgEarth4Util13MGRSGraticule18openImplementationEv
libosgEarth.so.0:_ZN8osgEarth4Util13MGRSGraticule18setUpDefaultStylesEv
libosgEarth.so.0:_ZN8osgEarth4Util13MGRSGraticule19setUseDefaultStylesERKb
libosgEarth.so.0:_ZN8osgEarth4Util13MGRSGraticule4initEv
libosgEarth.so.0:_ZN8osgEarth4Util13MGRSGraticule5dirtyEv
libosgEarth.so.0:_ZN8osgEarth4Util13MGRSGraticule7Options10fromConfigERKNS_6ConfigE
libosgEarth.so.0:_ZN8osgEarth4Util13MGRSGraticule7rebuildEv
libosgEarth.so.0:_ZN8osgEarth4Util13MeshFlattener3runEPN3osg5GroupE
libosgEarth.so.0:_ZN8osgEarth4Util13MeshFlattener3runEPN3osg5GroupEj
libosgEarth.so.0:_ZN8osgEarth4Util13ModelResource11mergeConfigERKNS_6ConfigE
libosgEarth.so.0:_ZN8osgEarth4Util13ModelResource14getBoundingBoxEPKN5osgDB7OptionsE
libosgEarth.so.0:_ZN8osgEarth4Util13ModelResourceC1ERKNS_6ConfigE
libosgEarth.so.0:_ZN8osgEarth4Util13ModelResourceC2ERKNS_6ConfigE
libosgEarth.so.0:_ZN8osgEarth4Util13ObserverGroup8traverseERN3osg11NodeVisitorE
libosgEarth.so.0:_ZN8osgEarth4Util13ObserverGroupC1Ev
libosgEarth.so.0:_ZN8osgEarth4Util13ObserverGroupC2Ev
libosgEarth.so.0:_ZN8osgEarth4Util13ResourceCache19getOrCreateStateSetEPNS0_12SkinResourceERN3osg7ref_ptrINS4_8StateSetEEEPKN5osgDB7OptionsE
libosgEarth.so.0:_ZN8osgEarth4Util13ResourceCache22getOrCreateLineTextureERKNS_3URIERN3osg7ref_ptrINS5_7TextureEEEPKN5osgDB7OptionsE
libosgEarth.so.0:_ZN8osgEarth4Util13ResourceCache23getOrCreateInstanceNodeEPNS0_16InstanceResourceERN3osg7ref_ptrINS4_4NodeEEEPKN5osgDB7OptionsE
libosgEarth.so.0:_ZN8osgEarth4Util13ResourceCache25cloneOrCreateInstanceNodeEPNS0_16InstanceResourceERN3osg7ref_ptrINS4_4NodeEEEPKN5osgDB7OptionsE
libosgEarth.so.0:_ZN8osgEarth4Util13ResourceCacheC1Ev
libosgEarth.so.0:_ZN8osgEarth4Util13ResourceCacheC2Ev
libosgEarth.so.0:_ZN8osgEarth4Util13ShaderFactoryC1Ev
libosgEarth.so.0:_ZN8osgEarth4Util13ShaderFactoryC2Ev
libosgEarth.so.0:_ZN8osgEarth4Util13ShaderOptions10fromConfigERKNS_6ConfigE
libosgEarth.so.0:_ZN8osgEarth4Util13ShaderPackage6defineERKNSt7__cxx1112basic_stringIcSt11char_traitsIcESaIcEEEb
libosgEarth.so.0:_ZN8osgEarth4Util13ShaderPackage7replaceERKNSt7__cxx1112basic_stringIcSt11char_traitsIcESaIcEEES9_
libosgEarth.so.0:_ZN8osgEarth4Util13TopologyGraph12dumpBoundaryERKSt6vectorISt23_Rb_tree_const_iteratorINS1_6VertexEESaIS5_EERKNSt7__cxx1112basic_stringIcSt11char_traitsIcESaIcEEE
libosgEarth.so.0:_ZN8osgEarth4Util13TopologyGraphC1Ev
libosgEarth.so.0:_ZN8osgEarth4Util13TopologyGraphC2Ev
libosgEarth.so.0:_ZN8osgEarth4Util13colorToStringB5cxx11ERKN3osg6Vec4ubE
libosgEarth.so.0:_ZN8osgEarth4Util13makeDirectoryERKNSt7__cxx1112basic_stringIcSt11char_traitsIcESaIcEEE
libosgEarth.so.0:_ZN8osgEarth4Util13stringToColorERKNSt7__cxx1112basic_stringIcSt11char_traitsIcESaIcEEEN3osg6Vec4ubE
libosgEarth.so.0:_ZN8osgEarth4Util13stringToVec3fERKNSt7__cxx1112basic_stringIcSt11char_traitsIcESaIcEEERKN3osg5Vec3fE
libosgEarth.so.0:_ZN8osgEarth4Util13vec3fToStringB5cxx11ERKN3osg5Vec3fE
libosgEarth.so.0:_ZN8osgEarth4Util14AltitudeFilter12pushAndClampERNSt7__cxx114listIN3osg7ref_ptrINS_7FeatureEEESaIS7_EEERNS0_13FilterContextE
libosgEarth.so.0:_ZN8osgEarth4Util14AltitudeFilter16pushAndDontClampERNSt7__cxx114listIN3osg7ref_ptrINS_7FeatureEEESaIS7_EEERNS0_13FilterContextE
libosgEarth.so.0:_ZN8osgEarth4Util14AltitudeFilter22setPropertiesFromStyleERKNS_5StyleE
libosgEarth.so.0:_ZN8osgEarth4Util14AltitudeFilter4pushERNSt7__cxx114listIN3osg7ref_ptrINS_7FeatureEEESaIS7_EEERNS0_13FilterContextE
libosgEarth.so.0:_ZN8osgEarth4Util14AltitudeFilterC1Ev
libosgEarth.so.0:_ZN8osgEarth4Util14AltitudeFilterC2Ev
libosgEarth.so.0:_ZN8osgEarth4Util14CacheEstimator9addExtentERKNS_9GeoExtentE
libosgEarth.so.0:_ZN8osgEarth4Util14CacheEstimatorC1Ev
libosgEarth.so.0:_ZN8osgEarth4Util14CacheEstimatorC2Ev
libosgEarth.so.0:_ZN8osgEarth4Util14CentroidFilter4pushERNSt7__cxx114listIN3osg7ref_ptrINS_7FeatureEEESaIS7_EEERNS0_13FilterContextE
libosgEarth.so.0:_ZN8osgEarth4Util14CentroidFilterC1Ev
libosgEarth.so.0:_ZN8osgEarth4Util14CentroidFilterC2Ev
libosgEarth.so.0:_ZN8osgEarth4Util14DrapingCullSet4pushEPNS_13DrapeableNodeERKSt6vectorIPN3osg4NodeESaIS7_EEPKNS5_10FrameStampE
libosgEarth.so.0:_ZN8osgEarth4Util14DrapingCullSet6acceptERN3osg11NodeVisitorE
libosgEarth.so.0:_ZN8osgEarth4Util14DrapingCullSetC1Ev
libosgEarth.so.0:_ZN8osgEarth4Util14DrapingCullSetC2Ev
libosgEarth.so.0:_ZN8osgEarth4Util14DrapingManager3getEPKN3osg6CameraE
libosgEarth.so.0:_ZN8osgEarth4Util14ElevationQuery12getElevationERKNS_8GeoPointEdPd
libosgEarth.so.0:_ZN8osgEarth4Util14ElevationQuery13getElevationsERKSt6vectorIN3osg5Vec3dESaIS4_EEPKNS_16SpatialReferenceERS2_IfSaIfEEd
libosgEarth.so.0:_ZN8osgEarth4Util14ElevationQuery13getElevationsERSt6vectorIN3osg5Vec3dESaIS4_EEPKNS_16SpatialReferenceEbd
libosgEarth.so.0:_ZN8osgEarth4Util14ElevationQuery16getElevationImplERKNS_8GeoPointERfdPd
libosgEarth.so.0:_ZN8osgEarth4Util14ElevationQuery24gatherTerrainModelLayersEPKNS_3MapE
libosgEarth.so.0:_ZN8osgEarth4Util14ElevationQuery4syncEv
libosgEarth.so.0:_ZN8osgEarth4Util14ElevationQuery5resetEv
libosgEarth.so.0:_ZN8osgEarth4Util14ElevationQuery6setMapEPKNS_3MapE
libosgEarth.so.0:_ZN8osgEarth4Util14ElevationQueryC1EPKNS_3MapE
libosgEarth.so.0:_ZN8osgEarth4Util14ElevationQueryC1Ev
libosgEarth.so.0:_ZN8osgEarth4Util14ElevationQueryC2EPKNS_3MapE
libosgEarth.so.0:_ZN8osgEarth4Util14ElevationQueryC2Ev
libosgEarth.so.0:_ZN8osgEarth4Util14RenderBinUtils23getTotalNumRenderLeavesEPN7osgUtil9RenderBinE
libosgEarth.so.0:_ZN8osgEarth4Util14ResampleFilter11isSupportedEv
libosgEarth.so.0:_ZN8osgEarth4Util14ResampleFilter4pushEPNS_7FeatureERNS0_13FilterContextE
libosgEarth.so.0:_ZN8osgEarth4Util14ResampleFilter4pushERNSt7__cxx114listIN3osg7ref_ptrINS_7FeatureEEESaIS7_EEERNS0_13FilterContextE
libosgEarth.so.0:_ZN8osgEarth4Util14ResampleFilterC1ERKNS_6ConfigE
libosgEarth.so.0:_ZN8osgEarth4Util14ResampleFilterC1Edd
libosgEarth.so.0:_ZN8osgEarth4Util14ResampleFilterC1Ev
libosgEarth.so.0:_ZN8osgEarth4Util14ResampleFilterC2ERKNS_6ConfigE
libosgEarth.so.0:_ZN8osgEarth4Util14ResampleFilterC2Edd
libosgEarth.so.0:_ZN8osgEarth4Util14ResampleFilterC2Ev
libosgEarth.so.0:_ZN8osgEarth4Util14SymbolRegistry3addEPNS0_13SymbolFactoryE
libosgEarth.so.0:_ZN8osgEarth4Util14SymbolRegistry6createERKNS_6ConfigE
libosgEarth.so.0:_ZN8osgEarth4Util14SymbolRegistry8instanceEv
libosgEarth.so.0:_ZN8osgEarth4Util14SymbolRegistryC1Ev
libosgEarth.so.0:_ZN8osgEarth4Util14SymbolRegistryC2Ev
libosgEarth.so.0:_ZN8osgEarth4Util14TextSymbolizerC1EPKNS_10TextSymbolE
libosgEarth.so.0:_ZN8osgEarth4Util14TextSymbolizerC2EPKNS_10TextSymbolE
libosgEarth.so.0:_ZN8osgEarth4Util14isRelativePathERKNSt7__cxx1112basic_stringIcSt11char_traitsIcESaIcEEE
libosgEarth.so.0:_ZN8osgEarth4Util15BuildTextFilter4pushERNSt7__cxx114listIN3osg7ref_ptrINS_7FeatureEEESaIS7_EEERNS0_13FilterContextE
libosgEarth.so.0:_ZN8osgEarth4Util15BuildTextFilterC1ERKNS_5StyleE
libosgEarth.so.0:_ZN8osgEarth4Util15BuildTextFilterC2ERKNS_5StyleE
libosgEarth.so.0:_ZN8osgEarth4Util15ClampingCullSet4pushEPNS_13ClampableNodeERKSt6vectorIPN3osg4NodeESaIS7_EEPKNS5_10FrameStampE
libosgEarth.so.0:_ZN8osgEarth4Util15ClampingCullSet6acceptERN3osg11NodeVisitorE
libosgEarth.so.0:_ZN8osgEarth4Util15ClampingCullSetC1Ev
libosgEarth.so.0:_ZN8osgEarth4Util15ClampingCullSetC2Ev
libosgEarth.so.0:_ZN8osgEarth4Util15ClampingManager3getEPKN3osg6CameraE
libosgEarth.so.0:_ZN8osgEarth4Util15DebugImageLayer18openImplementationEv
libosgEarth.so.0:_ZN8osgEarth4Util15DebugImageLayer4initEv
libosgEarth.so.0:_ZN8osgEarth4Util15DebugImageLayer7Options10fromConfigERKNS_6ConfigE
libosgEarth.so.0:_ZN8osgEarth4Util15DebugImageLayer7Options11getMetadataEv
libosgEarth.so.0:_ZN8osgEarth4Util15GeometryClamper5applyERN3osg8DrawableE
libosgEarth.so.0:_ZN8osgEarth4Util15GeometryClamper5applyERN3osg9TransformE
libosgEarth.so.0:_ZN8osgEarth4Util15GeometryClamperC1ERSt3mapIPN3osg5ArrayENS1_12GeometryDataESt4lessIS5_ESaISt4pairIKS5_S6_EEE
libosgEarth.so.0:_ZN8osgEarth4Util15GeometryClamperC2ERSt3mapIPN3osg5ArrayENS1_12GeometryDataESt4lessIS5_ESaISt4pairIKS5_S6_EEE
libosgEarth.so.0:_ZN8osgEarth4Util15ResourceLibrary10initializeEPKN5osgDB7OptionsE
libosgEarth.so.0:_ZN8osgEarth4Util15ResourceLibrary11addResourceEPNS0_8ResourceE
libosgEarth.so.0:_ZN8osgEarth4Util15ResourceLibrary11mergeConfigERKNS_6ConfigE
libosgEarth.so.0:_ZN8osgEarth4Util15ResourceLibrary14removeResourceEPNS0_8ResourceE
libosgEarth.so.0:_ZN8osgEarth4Util15ResourceLibraryC1ERKNS_6ConfigE
libosgEarth.so.0:_ZN8osgEarth4Util15ResourceLibraryC1ERKNSt7__cxx1112basic_stringIcSt11char_traitsIcESaIcEEERKNS_3URIE
libosgEarth.so.0:_ZN8osgEarth4Util15ResourceLibraryC2ERKNS_6ConfigE
libosgEarth.so.0:_ZN8osgEarth4Util15ResourceLibraryC2ERKNSt7__cxx1112basic_stringIcSt11char_traitsIcESaIcEEERKNS_3URIE
libosgEarth.so.0:_ZN8osgEarth4Util15StringTokenizer8addDelimEcb
libosgEarth.so.0:_ZN8osgEarth4Util15StringTokenizer8addQuoteEcb
libosgEarth.so.0:_ZN8osgEarth4Util15StringTokenizer9addDelimsERKNSt7__cxx1112basic_stringIcSt11char_traitsIcESaIcEEEb
libosgEarth.so.0:_ZN8osgEarth4Util15StringTokenizer9addQuotesERKNSt7__cxx1112basic_stringIcSt11char_traitsIcESaIcEEEb
libosgEarth.so.0:_ZN8osgEarth4Util15StringTokenizerC1ERKNSt7__cxx1112basic_stringIcSt11char_traitsIcESaIcEEERSt6vectorIS7_SaIS7_EES9_S9_bb
libosgEarth.so.0:_ZN8osgEarth4Util15StringTokenizerC1ERKNSt7__cxx1112basic_stringIcSt11char_traitsIcESaIcEEES9_
libosgEarth.so.0:_ZN8osgEarth4Util15StringTokenizerC2ERKNSt7__cxx1112basic_stringIcSt11char_traitsIcESaIcEEERSt6vectorIS7_SaIS7_EES9_S9_bb
libosgEarth.so.0:_ZN8osgEarth4Util15StringTokenizerC2ERKNSt7__cxx1112basic_stringIcSt11char_traitsIcESaIcEEES9_
libosgEarth.so.0:_ZN8osgEarth4Util15TopologyBuilder18assignAndPropagateERSt23_Rb_tree_const_iteratorINS0_13TopologyGraph6VertexEEj
libosgEarth.so.0:_ZN8osgEarth4Util15TopologyBuilder3addEj
libosgEarth.so.0:_ZN8osgEarth4Util15TopologyBuilder6createEPKN3osg13TemplateArrayINS2_5Vec3fELNS2_5Array4TypeE28ELi3ELi5126EEEPKNS2_12PrimitiveSetERKNSt7__cxx1112basic_stringIcSt11char_traitsIcESaIcEEE
libosgEarth.so.0:_ZN8osgEarth4Util15TopologyBuilderC1Ev
libosgEarth.so.0:_ZN8osgEarth4Util15TopologyBuilderC2Ev
libosgEarth.so.0:_ZN8osgEarth4Util15TopologyBuilderclEjjj
libosgEarth.so.0:_ZN8osgEarth4Util15getAbsolutePathERKNSt7__cxx1112basic_stringIcSt11char_traitsIcESaIcEEE
libosgEarth.so.0:_ZN8osgEarth4Util15prettyPrintSizeB5cxx11Ed
libosgEarth.so.0:_ZN8osgEarth4Util15prettyPrintTimeB5cxx11Ed
libosgEarth.so.0:_ZN8osgEarth4Util15toLegalFileNameERKNSt7__cxx1112basic_stringIcSt11char_traitsIcESaIcEEEbPKc
libosgEarth.so.0:_ZN8osgEarth4Util15trimAndCompressERKNSt7__cxx1112basic_stringIcSt11char_traitsIcESaIcEEE
libosgEarth.so.0:_ZN8osgEarth4Util16DirectoryVisitor10handleFileERKNSt7__cxx1112basic_stringIcSt11char_traitsIcESaIcEEE
libosgEarth.so.0:_ZN8osgEarth4Util16DirectoryVisitor8traverseERKNSt7__cxx1112basic_stringIcSt11char_traitsIcESaIcEEE
libosgEarth.so.0:_ZN8osgEarth4Util16DirectoryVisitor9handleDirERKNSt7__cxx1112basic_stringIcSt11char_traitsIcESaIcEEE
libosgEarth.so.0:_ZN8osgEarth4Util16DirectoryVisitorC1Ev
libosgEarth.so.0:_ZN8osgEarth4Util16DirectoryVisitorC2Ev
libosgEarth.so.0:_ZN8osgEarth4Util16DrapingTechnique11onUninstallEPNS_17TerrainEngineNodeE
libosgEarth.so.0:_ZN8osgEarth4Util16DrapingTechnique11setUpCameraERNS0_16OverlayDecorator13TechRTTParamsE
libosgEarth.so.0:_ZN8osgEarth4Util16DrapingTechnique13setMipMappingEb
libosgEarth.so.0:_ZN8osgEarth4Util16DrapingTechnique14preCullTerrainERNS0_16OverlayDecorator13TechRTTParamsEPN7osgUtil11CullVisitorE
libosgEarth.so.0:_ZN8osgEarth4Util16DrapingTechnique14setTextureSizeEi
libosgEarth.so.0:_ZN8osgEarth4Util16DrapingTechnique14setTextureUnitEi
libosgEarth.so.0:_ZN8osgEarth4Util16DrapingTechnique16cullOverlayGroupERNS0_16OverlayDecorator13TechRTTParamsEPN7osgUtil11CullVisitorE
libosgEarth.so.0:_ZN8osgEarth4Util16DrapingTechnique16setAttachStencilEb
libosgEarth.so.0:_ZN8osgEarth4Util16DrapingTechnique18setOverlayBlendingEb
libosgEarth.so.0:_ZN8osgEarth4Util16DrapingTechnique18setResolutionRatioEf
libosgEarth.so.0:_ZN8osgEarth4Util16DrapingTechnique9onInstallEPNS_17TerrainEngineNodeE
libosgEarth.so.0:_ZN8osgEarth4Util16DrapingTechniqueC1Ev
libosgEarth.so.0:_ZN8osgEarth4Util16DrapingTechniqueC2Ev
libosgEarth.so.0:_ZN8osgEarth4Util16EarthManipulator10resetMouseERN5osgGA16GUIActionAdapterEb
libosgEarth.so.0:_ZN8osgEarth4Util16EarthManipulator11establishedEv
libosgEarth.so.0:_ZN8osgEarth4Util16EarthManipulator11resetLookAtEv
libosgEarth.so.0:_ZN8osgEarth4Util16EarthManipulator11serviceTaskEPN3osg4ViewE
libosgEarth.so.0:_ZN8osgEarth4Util16EarthManipulator11setByLookAtERKN3osg5Vec3dES5_S5_
libosgEarth.so.0:_ZN8osgEarth4Util16EarthManipulator11setByMatrixERKN3osg7MatrixdE
libosgEarth.so.0:_ZN8osgEarth4Util16EarthManipulator11setDistanceEd
libosgEarth.so.0:_ZN8osgEarth4Util16EarthManipulator12handleActionERKNS1_6ActionEddd
libosgEarth.so.0:_ZN8osgEarth4Util16EarthManipulator12reinitializeEv
libosgEarth.so.0:_ZN8osgEarth4Util16EarthManipulator12setViewpointERKNS_9ViewpointEd
libosgEarth.so.0:_ZN8osgEarth4Util16EarthManipulator12updateCameraERN3osg6CameraE
libosgEarth.so.0:_ZN8osgEarth4Util16EarthManipulator12updateTetherEd
libosgEarth.so.0:_ZN8osgEarth4Util16EarthManipulator13addMouseEventERKN5osgGA15GUIEventAdapterE
libosgEarth.so.0:_ZN8osgEarth4Util16EarthManipulator13applySettingsEPNS1_8SettingsE
libosgEarth.so.0:_ZN8osgEarth4Util16EarthManipulator14addTouchEventsERKN5osgGA15GUIEventAdapterE
libosgEarth.so.0:_ZN8osgEarth4Util16EarthManipulator14clearViewpointEv
libosgEarth.so.0:_ZN8osgEarth4Util16EarthManipulator14setByLookAtRawERKN3osg5Vec3dES5_S5_
libosgEarth.so.0:_ZN8osgEarth4Util16EarthManipulator14setInitialVFOVEd
libosgEarth.so.0:_ZN8osgEarth4Util16EarthManipulator15collisionDetectEv
libosgEarth.so.0:_ZN8osgEarth4Util16EarthManipulator15recalculateRollEv
libosgEarth.so.0:_ZN8osgEarth4Util16EarthManipulator16handleTileUpdateERKNS_7TileKeyEPN3osg4NodeERNS_22TerrainCallbackContextE
libosgEarth.so.0:_ZN8osgEarth4Util16EarthManipulator16parseTouchEventsERSt6vectorINS1_10TouchEventESaIS3_EE
libosgEarth.so.0:_ZN8osgEarth4Util16EarthManipulator16setHomeViewpointERKNS_9ViewpointEd
libosgEarth.so.0:_ZN8osgEarth4Util16EarthManipulator16updateProjectionEPN3osg6CameraE
libosgEarth.so.0:_ZN8osgEarth4Util16EarthManipulator17handleMouseActionERKNS1_6ActionEPN3osg4ViewE
libosgEarth.so.0:_ZN8osgEarth4Util16EarthManipulator17handlePointActionERKNS1_6ActionEffPN3osg4ViewE
libosgEarth.so.0:_ZN8osgEarth4Util16EarthManipulator17recalculateCenterERKN3osg7MatrixdE
libosgEarth.so.0:_ZN8osgEarth4Util16EarthManipulator17setViewpointFrameEd
libosgEarth.so.0:_ZN8osgEarth4Util16EarthManipulator18handleScrollActionERKNS1_6ActionEd
libosgEarth.so.0:_ZN8osgEarth4Util16EarthManipulator19computeHomePositionEPKN3osg6CameraEb
libosgEarth.so.0:_ZN8osgEarth4Util16EarthManipulator20applyOptionsToDeltasERKNS1_6ActionERdS5_
libosgEarth.so.0:_ZN8osgEarth4Util16EarthManipulator20flushMouseEventStackEv
libosgEarth.so.0:_ZN8osgEarth4Util16EarthManipulator20handleKeyboardActionERKNS1_6ActionEd
libosgEarth.so.0:_ZN8osgEarth4Util16EarthManipulator20handleMovementActionERKNS1_10ActionTypeEddPN3osg4ViewE
libosgEarth.so.0:_ZN8osgEarth4Util16EarthManipulator22handleContinuousActionERKNS1_6ActionEPN3osg4ViewE
libosgEarth.so.0:_ZN8osgEarth4Util16EarthManipulator22handleMouseClickActionERKNS1_6ActionE
libosgEarth.so.0:_ZN8osgEarth4Util16EarthManipulator24configureDefaultSettingsEv
libosgEarth.so.0:_ZN8osgEarth4Util16EarthManipulator26setUpdateCameraNodeVisitorEPN3osg11NodeVisitorE
libosgEarth.so.0:_ZN8osgEarth4Util16EarthManipulator31recalculateCenterFromLookVectorEv
libosgEarth.so.0:_ZN8osgEarth4Util16EarthManipulator34collapseTetherRotationIntoRotationEv
libosgEarth.so.0:_ZN8osgEarth4Util16EarthManipulator3panEdd
libosgEarth.so.0:_ZN8osgEarth4Util16EarthManipulator4dragEddPN3osg4ViewE
libosgEarth.so.0:_ZN8osgEarth4Util16EarthManipulator4homeERKN5osgGA15GUIEventAdapterERNS2_16GUIActionAdapterE
libosgEarth.so.0:_ZN8osgEarth4Util16EarthManipulator4homeEd
libosgEarth.so.0:_ZN8osgEarth4Util16EarthManipulator4initERKN5osgGA15GUIEventAdapterERNS2_16GUIActionAdapterE
libosgEarth.so.0:_ZN8osgEarth4Util16EarthManipulator4zoomEddPN3osg4ViewE
libosgEarth.so.0:_ZN8osgEarth4Util16EarthManipulator6Action4initEv
libosgEarth.so.0:_ZN8osgEarth4Util16EarthManipulator6ActionC1ENS1_10ActionTypeE
libosgEarth.so.0:_ZN8osgEarth4Util16EarthManipulator6ActionC1ENS1_10ActionTypeERKNS1_13ActionOptionsE
libosgEarth.so.0:_ZN8osgEarth4Util16EarthManipulator6ActionC1ERKS2_
libosgEarth.so.0:_ZN8osgEarth4Util16EarthManipulator6ActionC2ENS1_10ActionTypeE
libosgEarth.so.0:_ZN8osgEarth4Util16EarthManipulator6ActionC2ENS1_10ActionTypeERKNS1_13ActionOptionsE
libosgEarth.so.0:_ZN8osgEarth4Util16EarthManipulator6ActionC2ERKS2_
libosgEarth.so.0:_ZN8osgEarth4Util16EarthManipulator6handleERKN5osgGA15GUIEventAdapterERNS2_16GUIActionAdapterE
libosgEarth.so.0:_ZN8osgEarth4Util16EarthManipulator6rotateEdd
libosgEarth.so.0:_ZN8osgEarth4Util16EarthManipulator7getNodeEv
libosgEarth.so.0:_ZN8osgEarth4Util16EarthManipulator7setNodeEPN3osg4NodeE
libosgEarth.so.0:_ZN8osgEarth4Util16EarthManipulator8Settings10bindScrollENS1_10ActionTypeEiiRKNS1_13ActionOptionsE
libosgEarth.so.0:_ZN8osgEarth4Util16EarthManipulator8Settings12setMaxOffsetEdd
libosgEarth.so.0:_ZN8osgEarth4Util16EarthManipulator8Settings13bindMultiDragENS1_10ActionTypeERKNS1_13ActionOptionsE
libosgEarth.so.0:_ZN8osgEarth4Util16EarthManipulator8Settings14bindMouseClickENS1_10ActionTypeEiiRKNS1_13ActionOptionsE
libosgEarth.so.0:_ZN8osgEarth4Util16EarthManipulator8Settings14setMinMaxPitchEdd
libosgEarth.so.0:_ZN8osgEarth4Util16EarthManipulator8Settings17setMinMaxDistanceEdd
libosgEarth.so.0:_ZN8osgEarth4Util16EarthManipulator8Settings20bindMouseDoubleClickENS1_10ActionTypeEiiRKNS1_13ActionOptionsE
libosgEarth.so.0:_ZN8osgEarth4Util16EarthManipulator8Settings26setArcViewpointTransitionsEb
libosgEarth.so.0:_ZN8osgEarth4Util16EarthManipulator8Settings30setAutoViewpointDurationLimitsEdd
libosgEarth.so.0:_ZN8osgEarth4Util16EarthManipulator8Settings31setAutoViewpointDurationEnabledEb
libosgEarth.so.0:_ZN8osgEarth4Util16EarthManipulator8Settings4bindERKNS1_9InputSpecERKNS1_6ActionE
libosgEarth.so.0:_ZN8osgEarth4Util16EarthManipulator8Settings5applyERN3osg14ArgumentParserE
libosgEarth.so.0:_ZN8osgEarth4Util16EarthManipulator8Settings7bindKeyENS1_10ActionTypeEiiRKNS1_13ActionOptionsE
libosgEarth.so.0:_ZN8osgEarth4Util16EarthManipulator8Settings9bindMouseENS1_10ActionTypeEiiRKNS1_13ActionOptionsE
libosgEarth.so.0:_ZN8osgEarth4Util16EarthManipulator8Settings9bindPinchENS1_10ActionTypeERKNS1_13ActionOptionsE
libosgEarth.so.0:_ZN8osgEarth4Util16EarthManipulator8Settings9bindTwistENS1_10ActionTypeERKNS1_13ActionOptionsE
libosgEarth.so.0:_ZN8osgEarth4Util16EarthManipulator8SettingsC1ERKS2_
libosgEarth.so.0:_ZN8osgEarth4Util16EarthManipulator8SettingsC1Ev
libosgEarth.so.0:_ZN8osgEarth4Util16EarthManipulator8SettingsC2ERKS2_
libosgEarth.so.0:_ZN8osgEarth4Util16EarthManipulator8SettingsC2Ev
libosgEarth.so.0:_ZN8osgEarth4Util16EarthManipulator9ctor_initEv
libosgEarth.so.0:_ZN8osgEarth4Util16EarthManipulator9setCenterERKN3osg5Vec3dE
libosgEarth.so.0:_ZN8osgEarth4Util16EarthManipulator9setLookAtERKN3osg5Vec3dEdddS5_
libosgEarth.so.0:_ZN8osgEarth4Util16EarthManipulatorC1ERKS1_
libosgEarth.so.0:_ZN8osgEarth4Util16EarthManipulatorC1ERN3osg14ArgumentParserE
libosgEarth.so.0:_ZN8osgEarth4Util16EarthManipulatorC1Ev
libosgEarth.so.0:_ZN8osgEarth4Util16EarthManipulatorC2ERKS1_
libosgEarth.so.0:_ZN8osgEarth4Util16EarthManipulatorC2ERN3osg14ArgumentParserE
libosgEarth.so.0:_ZN8osgEarth4Util16EarthManipulatorC2Ev
libosgEarth.so.0:_ZN8osgEarth4Util16EarthManipulatorD0Ev
libosgEarth.so.0:_ZN8osgEarth4Util16EarthManipulatorD1Ev
libosgEarth.so.0:_ZN8osgEarth4Util16EarthManipulatorD2Ev
libosgEarth.so.0:_ZN8osgEarth4Util16HeightFieldUtils15createNormalMapEPKN3osg5ImageEPNS_9NormalMapERKNS_9GeoExtentE
libosgEarth.so.0:_ZN8osgEarth4Util16HeightFieldUtils15createSubSampleEPKN3osg11HeightFieldERKNS_9GeoExtentES8_NS_19RasterInterpolationE
libosgEarth.so.0:_ZN8osgEarth4Util16HeightFieldUtils15validateSamplesERfS2_S2_S2_
libosgEarth.so.0:_ZN8osgEarth4Util16HeightFieldUtils16getHeightAtPixelEPKN3osg11HeightFieldEddNS_19RasterInterpolationE
libosgEarth.so.0:_ZN8osgEarth4Util16HeightFieldUtils18convertToNormalMapERKNS0_23HeightFieldNeighborhoodEPKNS_16SpatialReferenceE
libosgEarth.so.0:_ZN8osgEarth4Util16HeightFieldUtils19getHeightAtLocationEPKN3osg11HeightFieldEddddddNS_19RasterInterpolationE
libosgEarth.so.0:_ZN8osgEarth4Util16HeightFieldUtils19getNormalAtLocationERKNS0_23HeightFieldNeighborhoodEddddddNS_19RasterInterpolationE
libosgEarth.so.0:_ZN8osgEarth4Util16HeightFieldUtils19resampleHeightFieldEPN3osg11HeightFieldERKNS_9GeoExtentEiiNS_19RasterInterpolationE
libosgEarth.so.0:_ZN8osgEarth4Util16HeightFieldUtils21getInterpolatedHeightEPKN3osg11HeightFieldEjjRfNS_19RasterInterpolationE
libosgEarth.so.0:_ZN8osgEarth4Util16HeightFieldUtils21resolveInvalidHeightsEPN3osg11HeightFieldERKNS_9GeoExtentEfPKNS_5GeoidE
libosgEarth.so.0:_ZN8osgEarth4Util16HeightFieldUtils25scaleHeightFieldToDegreesEPN3osg11HeightFieldE
libosgEarth.so.0:_ZN8osgEarth4Util16HeightFieldUtils26createReferenceHeightFieldERKNS_9GeoExtentEjjjb
libosgEarth.so.0:_ZN8osgEarth4Util16HeightFieldUtils28createClusterCullingCallbackEPKN3osg11HeightFieldEPKNS2_14EllipsoidModelEf
libosgEarth.so.0:_ZN8osgEarth4Util16HeightFieldUtils29getHeightAtNormalizedLocationEPKN3osg11HeightFieldEddNS_19RasterInterpolationE
libosgEarth.so.0:_ZN8osgEarth4Util16HeightFieldUtils29getHeightAtNormalizedLocationERKNS0_23HeightFieldNeighborhoodEddRfNS_19RasterInterpolationE
libosgEarth.so.0:_ZN8osgEarth4Util16InstanceResource11mergeConfigERKNS_6ConfigE
libosgEarth.so.0:_ZN8osgEarth4Util16InstanceResourceC1ERKNS_6ConfigE
libosgEarth.so.0:_ZN8osgEarth4Util16InstanceResourceC2ERKNS_6ConfigE
libosgEarth.so.0:_ZN8osgEarth4Util16LatLongFormatter10parseAngleERKNSt7__cxx1112basic_stringIcSt11char_traitsIcESaIcEEERNS_5AngleE
libosgEarth.so.0:_ZN8osgEarth4Util16LatLongFormatterC1ERKNS1_13AngularFormatEj
libosgEarth.so.0:_ZN8osgEarth4Util16LatLongFormatterC2ERKNS1_13AngularFormatEj
libosgEarth.so.0:_ZN8osgEarth4Util16MeshConsolidator18convertToTrianglesERN3osg8GeometryEb
libosgEarth.so.0:_ZN8osgEarth4Util16MeshConsolidator3runERN3osg5GeodeE
libosgEarth.so.0:_ZN8osgEarth4Util16OverlayDecorator12addTechniqueEPNS0_16OverlayTechniqueE
libosgEarth.so.0:_ZN8osgEarth4Util16OverlayDecorator14getPerViewDataEPN3osg6CameraE
libosgEarth.so.0:_ZN8osgEarth4Util16OverlayDecorator14onGroupChangedEPN3osg5GroupE
libosgEarth.so.0:_ZN8osgEarth4Util16OverlayDecorator16setTerrainEngineEPNS_17TerrainEngineNodeE
libosgEarth.so.0:_ZN8osgEarth4Util16OverlayDecorator21initializePerViewDataERNS1_11PerViewDataEPN3osg6CameraE
libosgEarth.so.0:_ZN8osgEarth4Util16OverlayDecorator21resizeGLObjectBuffersEj
libosgEarth.so.0:_ZN8osgEarth4Util16OverlayDecorator21setMaxHorizonDistanceEd
libosgEarth.so.0:_ZN8osgEarth4Util16OverlayDecorator28setOverlayGraphTraversalMaskEj
libosgEarth.so.0:_ZN8osgEarth4Util16OverlayDecorator32cullTerrainAndCalculateRTTParamsEPN7osgUtil11CullVisitorERNS1_11PerViewDataE
libosgEarth.so.0:_ZN8osgEarth4Util16OverlayDecorator8traverseERN3osg11NodeVisitorE
libosgEarth.so.0:_ZN8osgEarth4Util16OverlayDecoratorC1Ev
libosgEarth.so.0:_ZN8osgEarth4Util16OverlayDecoratorC2Ev
libosgEarth.so.0:_ZN8osgEarth4Util16ProxyCullVisitor22isCulledByProxyFrustumERKN3osg15BoundingBoxImplINS2_5Vec3fEEE
libosgEarth.so.0:_ZN8osgEarth4Util16ProxyCullVisitor22isCulledByProxyFrustumERN3osg4NodeE
libosgEarth.so.0:_ZN8osgEarth4Util16ProxyCullVisitor34handle_cull_callbacks_and_traverseERN3osg4NodeE
libosgEarth.so.0:_ZN8osgEarth4Util16ProxyCullVisitor5applyERN3osg3LODE
libosgEarth.so.0:_ZN8osgEarth4Util16ProxyCullVisitor5applyERN3osg4NodeE
libosgEarth.so.0:_ZN8osgEarth4Util16ProxyCullVisitor5applyERN3osg8DrawableE
libosgEarth.so.0:_ZN8osgEarth4Util16ProxyCullVisitor5applyERN3osg9TransformE
libosgEarth.so.0:_ZN8osgEarth4Util16ProxyCullVisitor8distanceERKN3osg5Vec3fERKNS2_7MatrixdE
libosgEarth.so.0:_ZN8osgEarth4Util16ProxyCullVisitorC1EPN7osgUtil11CullVisitorERKN3osg7MatrixdES8_
libosgEarth.so.0:_ZN8osgEarth4Util16ProxyCullVisitorC2EPN7osgUtil11CullVisitorERKN3osg7MatrixdES8_
libosgEarth.so.0:_ZN8osgEarth4Util16ResourceReleaser4pushEPN3osg6ObjectE
libosgEarth.so.0:_ZN8osgEarth4Util16ResourceReleaser4pushERKSt6vectorIN3osg7ref_ptrINS3_6ObjectEEESaIS6_EE
libosgEarth.so.0:_ZN8osgEarth4Util16ResourceReleaserC1Ev
libosgEarth.so.0:_ZN8osgEarth4Util16ResourceReleaserC2Ev
libosgEarth.so.0:_ZN8osgEarth4Util16TaskRequestQueue3addEPNS0_11TaskRequestE
libosgEarth.so.0:_ZN8osgEarth4Util16TaskRequestQueue3getEv
libosgEarth.so.0:_ZN8osgEarth4Util16TaskRequestQueue5clearEv
libosgEarth.so.0:_ZN8osgEarth4Util16TaskRequestQueue6cancelEv
libosgEarth.so.0:_ZN8osgEarth4Util16TaskRequestQueue7setDoneEv
libosgEarth.so.0:_ZN8osgEarth4Util16TaskRequestQueueC1Ej
libosgEarth.so.0:_ZN8osgEarth4Util16TaskRequestQueueC2Ej
libosgEarth.so.0:_ZN8osgEarth4Util16htmlColorToVec4fERKNSt7__cxx1112basic_stringIcSt11char_traitsIcESaIcEEE
libosgEarth.so.0:_ZN8osgEarth4Util16vec4fToHtmlColorB5cxx11ERKN3osg5Vec4fE
libosgEarth.so.0:_ZN8osgEarth4Util17BillboardResource11mergeConfigERKNS_6ConfigE
libosgEarth.so.0:_ZN8osgEarth4Util17BillboardResourceC1ERKNS_6ConfigE
libosgEarth.so.0:_ZN8osgEarth4Util17BillboardResourceC2ERKNS_6ConfigE
libosgEarth.so.0:_ZN8osgEarth4Util17ClampingTechnique11onUninstallEPNS_17TerrainEngineNodeE
libosgEarth.so.0:_ZN8osgEarth4Util17ClampingTechnique11reestablishEPNS_17TerrainEngineNodeE
libosgEarth.so.0:_ZN8osgEarth4Util17ClampingTechnique11setUpCameraERNS0_16OverlayDecorator13TechRTTParamsE
libosgEarth.so.0:_ZN8osgEarth4Util17ClampingTechnique14preCullTerrainERNS0_16OverlayDecorator13TechRTTParamsEPN7osgUtil11CullVisitorE
libosgEarth.so.0:_ZN8osgEarth4Util17ClampingTechnique14setTextureSizeEi
libosgEarth.so.0:_ZN8osgEarth4Util17ClampingTechnique16cullOverlayGroupERNS0_16OverlayDecorator13TechRTTParamsEPN7osgUtil11CullVisitorE
libosgEarth.so.0:_ZN8osgEarth4Util17ClampingTechnique9onInstallEPNS_17TerrainEngineNodeE
libosgEarth.so.0:_ZN8osgEarth4Util17ClampingTechniqueC1Ev
libosgEarth.so.0:_ZN8osgEarth4Util17ClampingTechniqueC2Ev
libosgEarth.so.0:_ZN8osgEarth4Util17ConvertTypeFilter4pushERNSt7__cxx114listIN3osg7ref_ptrINS_7FeatureEEESaIS7_EEERNS0_13FilterContextE
libosgEarth.so.0:_ZN8osgEarth4Util17ConvertTypeFilterC1ERKNS_6ConfigE
libosgEarth.so.0:_ZN8osgEarth4Util17ConvertTypeFilterC1ERKNS_8Geometry4TypeE
libosgEarth.so.0:_ZN8osgEarth4Util17ConvertTypeFilterC1ERKS1_
libosgEarth.so.0:_ZN8osgEarth4Util17ConvertTypeFilterC1Ev
libosgEarth.so.0:_ZN8osgEarth4Util17ConvertTypeFilterC2ERKNS_6ConfigE
libosgEarth.so.0:_ZN8osgEarth4Util17ConvertTypeFilterC2ERKNS_8Geometry4TypeE
libosgEarth.so.0:_ZN8osgEarth4Util17ConvertTypeFilterC2ERKS1_
libosgEarth.so.0:_ZN8osgEarth4Util17ConvertTypeFilterC2Ev
libosgEarth.so.0:_ZN8osgEarth4Util17FeatureModelGraph10setSessionEPNS0_7SessionE
libosgEarth.so.0:_ZN8osgEarth4Util17FeatureModelGraph11setMaxRangeEf
libosgEarth.so.0:_ZN8osgEarth4Util17FeatureModelGraph11setMinRangeEf
libosgEarth.so.0:_ZN8osgEarth4Util17FeatureModelGraph11setupPagingEv
libosgEarth.so.0:_ZN8osgEarth4Util17FeatureModelGraph12setOwnerNameERKNSt7__cxx1112basic_stringIcSt11char_traitsIcESaIcEEE
libosgEarth.so.0:_ZN8osgEarth4Util17FeatureModelGraph13setStyleSheetEPNS_10StyleSheetE
libosgEarth.so.0:_ZN8osgEarth4Util17FeatureModelGraph14setNodeFactoryEPNS_18FeatureNodeFactoryE
libosgEarth.so.0:_ZN8osgEarth4Util17FeatureModelGraph16buildStyleGroupsEPKNS_13StyleSelectorERKNS_5QueryEPNS_19FeatureIndexBuilderEPN3osg5GroupEPKN5osgDB7OptionsEPNS_16ProgressCallbackE
libosgEarth.so.0:_ZN8osgEarth4Util17FeatureModelGraph16createStyleGroupERKNS_5StyleERKNS_5QueryEPNS_19FeatureIndexBuilderEPKN5osgDB7OptionsEPNS_16ProgressCallbackE
libosgEarth.so.0:_ZN8osgEarth4Util17FeatureModelGraph16createStyleGroupERKNS_5StyleERNSt7__cxx114listIN3osg7ref_ptrINS_7FeatureEEESaISA_EEERKNS0_13FilterContextEPKN5osgDB7OptionsERKNS_5QueryE
libosgEarth.so.0:_ZN8osgEarth4Util17FeatureModelGraph16writeTileToCacheERKNSt7__cxx1112basic_stringIcSt11char_traitsIcESaIcEEEPN3osg5GroupEPKN5osgDB7OptionsE
libosgEarth.so.0:_ZN8osgEarth4Util17FeatureModelGraph17readTileFromCacheERKNSt7__cxx1112basic_stringIcSt11char_traitsIcESaIcEEEPKN5osgDB7OptionsE
libosgEarth.so.0:_ZN8osgEarth4Util17FeatureModelGraph18createOrUpdateNodeEPNS_13FeatureCursorERKNS_5StyleERNS0_13FilterContextEPKN5osgDB7OptionsERN3osg7ref_ptrINSD_4NodeEEERKNS_5QueryE
libosgEarth.so.0:_ZN8osgEarth4Util17FeatureModelGraph20applyRenderSymbologyERKNS_5StyleEPN3osg4NodeE
libosgEarth.so.0:_ZN8osgEarth4Util17FeatureModelGraph21buildSubTilePagedLODsEjjjPN3osg5GroupEPKN5osgDB7OptionsE
libosgEarth.so.0:_ZN8osgEarth4Util17FeatureModelGraph21runPreMergeOperationsEPN3osg4NodeE
libosgEarth.so.0:_ZN8osgEarth4Util17FeatureModelGraph22runPostMergeOperationsEPN3osg4NodeE
libosgEarth.so.0:_ZN8osgEarth4Util17FeatureModelGraph22setSceneGraphCallbacksEPNS_19SceneGraphCallbacksE
libosgEarth.so.0:_ZN8osgEarth4Util17FeatureModelGraph27queryAndSortIntoStyleGroupsERKNS_5QueryERKNS_16StringExpressionEPNS_19FeatureIndexBuilderEPN3osg5GroupEPKN5osgDB7OptionsEPNS_16ProgressCallbackE
libosgEarth.so.0:_ZN8osgEarth4Util17FeatureModelGraph32getOrCreateStyleGroupFromFactoryERKNS_5StyleE
libosgEarth.so.0:_ZN8osgEarth4Util17FeatureModelGraph4loadEjjjRKNSt7__cxx1112basic_stringIcSt11char_traitsIcESaIcEEEPKN5osgDB7OptionsE
libosgEarth.so.0:_ZN8osgEarth4Util17FeatureModelGraph4openEv
libosgEarth.so.0:_ZN8osgEarth4Util17FeatureModelGraph5buildERKNS_5StyleERKNS_5QueryERKNS_9GeoExtentEPNS_19FeatureIndexBuilderEPKN5osgDB7OptionsEPNS_16ProgressCallbackE
libosgEarth.so.0:_ZN8osgEarth4Util17FeatureModelGraph6redrawEv
libosgEarth.so.0:_ZN8osgEarth4Util17FeatureModelGraph8traverseERN3osg11NodeVisitorE
libosgEarth.so.0:_ZN8osgEarth4Util17FeatureModelGraph9buildTileERKNS_12FeatureLevelERKNS_9GeoExtentEPKNS_7TileKeyEPKN5osgDB7OptionsE
libosgEarth.so.0:_ZN8osgEarth4Util17FeatureModelGraphC1ERKNS_19FeatureModelOptionsE
libosgEarth.so.0:_ZN8osgEarth4Util17FeatureModelGraphC2ERKNS_19FeatureModelOptionsE
libosgEarth.so.0:_ZN8osgEarth4Util17FeatureModelGraphD0Ev
libosgEarth.so.0:_ZN8osgEarth4Util17FeatureModelGraphD1Ev
libosgEarth.so.0:_ZN8osgEarth4Util17FeatureModelGraphD2Ev
libosgEarth.so.0:_ZN8osgEarth4Util17GeodeticGraticule10CameraDataD1Ev
libosgEarth.so.0:_ZN8osgEarth4Util17GeodeticGraticule10CameraDataD2Ev
libosgEarth.so.0:_ZN8osgEarth4Util17GeodeticGraticule10addedToMapEPKNS_3MapE
libosgEarth.so.0:_ZN8osgEarth4Util17GeodeticGraticule10setMapNodeEPNS_7MapNodeE
libosgEarth.so.0:_ZN8osgEarth4Util17GeodeticGraticule10setVisibleEb
libosgEarth.so.0:_ZN8osgEarth4Util17GeodeticGraticule11getStateSetEPN7osgUtil11CullVisitorE
libosgEarth.so.0:_ZN8osgEarth4Util17GeodeticGraticule12setLineWidthERKf
libosgEarth.so.0:_ZN8osgEarth4Util17GeodeticGraticule12updateLabelsEv
libosgEarth.so.0:_ZN8osgEarth4Util17GeodeticGraticule13initLabelPoolERNS1_10CameraDataE
libosgEarth.so.0:_ZN8osgEarth4Util17GeodeticGraticule14removedFromMapEPKNS_3MapE
libosgEarth.so.0:_ZN8osgEarth4Util17GeodeticGraticule15setNumGridLinesERKi
libosgEarth.so.0:_ZN8osgEarth4Util17GeodeticGraticule17setEdgeLabelStyleERKNS_5StyleE
libosgEarth.so.0:_ZN8osgEarth4Util17GeodeticGraticule17setGridLabelStyleERKNS_5StyleE
libosgEarth.so.0:_ZN8osgEarth4Util17GeodeticGraticule19setGridLinesVisibleEb
libosgEarth.so.0:_ZN8osgEarth4Util17GeodeticGraticule20setEdgeLabelsVisibleEb
libosgEarth.so.0:_ZN8osgEarth4Util17GeodeticGraticule20setGridLabelsVisibleEb
libosgEarth.so.0:_ZN8osgEarth4Util17GeodeticGraticule21resizeGLObjectBuffersEj
libosgEarth.so.0:_ZN8osgEarth4Util17GeodeticGraticule24updateGridLineVisibilityEv
libosgEarth.so.0:_ZN8osgEarth4Util17GeodeticGraticule4cullEPN7osgUtil11CullVisitorE
libosgEarth.so.0:_ZN8osgEarth4Util17GeodeticGraticule4initEv
libosgEarth.so.0:_ZN8osgEarth4Util17GeodeticGraticule5dirtyEv
libosgEarth.so.0:_ZN8osgEarth4Util17GeodeticGraticule7MyGroup8traverseERN3osg11NodeVisitorE
libosgEarth.so.0:_ZN8osgEarth4Util17GeodeticGraticule7MyGroupC1EPS1_
libosgEarth.so.0:_ZN8osgEarth4Util17GeodeticGraticule7MyGroupC2EPS1_
libosgEarth.so.0:_ZN8osgEarth4Util17GeodeticGraticule7Options10fromConfigERKNS_6ConfigE
libosgEarth.so.0:_ZN8osgEarth4Util17GeodeticGraticule7getTextB5cxx11ERKNS_8GeoPointEb
libosgEarth.so.0:_ZN8osgEarth4Util17GeodeticGraticule7rebuildEv
libosgEarth.so.0:_ZN8osgEarth4Util17GeodeticGraticule8setColorERKNS_5ColorE
libosgEarth.so.0:_ZN8osgEarth4Util17GeometryValidator5applyERN3osg5GroupE
libosgEarth.so.0:_ZN8osgEarth4Util17GeometryValidator5applyERN3osg8GeometryE
libosgEarth.so.0:_ZN8osgEarth4Util17GeometryValidatorC1Ev
libosgEarth.so.0:_ZN8osgEarth4Util17GeometryValidatorC2Ev
libosgEarth.so.0:_ZN8osgEarth4Util17SkyControlFactory6createEPNS_7SkyNodeE
libosgEarth.so.0:_ZN8osgEarth4Util17UTMLabelingEngine12updateLabelsERKN3osg5Vec3dERS3_S6_RNS0_9ClipSpaceERNS0_23GraticuleLabelingEngine10CameraDataE
libosgEarth.so.0:_ZN8osgEarth4Util17UTMLabelingEngine16setMaxResolutionEd
libosgEarth.so.0:_ZN8osgEarth4Util17UTMLabelingEngineC1EPKNS_16SpatialReferenceE
libosgEarth.so.0:_ZN8osgEarth4Util17UTMLabelingEngineC2EPKNS_16SpatialReferenceE
libosgEarth.so.0:_ZN8osgEarth4Util18AnnotationRegistry3addERKNSt7__cxx1112basic_stringIcSt11char_traitsIcESaIcEEEPNS0_17AnnotationFactoryE
libosgEarth.so.0:_ZN8osgEarth4Util18AnnotationRegistry8instanceEv
libosgEarth.so.0:_ZN8osgEarth4Util18DepthOffsetAdapter11recalculateEv
libosgEarth.so.0:_ZN8osgEarth4Util18DepthOffsetAdapter14updateUniformsEv
libosgEarth.so.0:_ZN8osgEarth4Util18DepthOffsetAdapter21setDepthOffsetOptionsERKNS_18DepthOffsetOptionsE
libosgEarth.so.0:_ZN8osgEarth4Util18DepthOffsetAdapter4initEv
libosgEarth.so.0:_ZN8osgEarth4Util18DepthOffsetAdapter8setGraphEPN3osg4NodeE
libosgEarth.so.0:_ZN8osgEarth4Util18DepthOffsetAdapterC1EPN3osg4NodeE
libosgEarth.so.0:_ZN8osgEarth4Util18DepthOffsetAdapterC1Ev
libosgEarth.so.0:_ZN8osgEarth4Util18DepthOffsetAdapterC2EPN3osg4NodeE
libosgEarth.so.0:_ZN8osgEarth4Util18DepthOffsetAdapterC2Ev
libosgEarth.so.0:_ZN8osgEarth4Util18FeatureFilterChain6createERKSt6vectorINS_13ConfigOptionsESaIS3_EEPKN5osgDB7OptionsE
libosgEarth.so.0:_ZN8osgEarth4Util18ShaderPreProcessor3runEPN3osg6ShaderE
libosgEarth.so.0:_ZN8osgEarth4Util18TaskServiceManager10reallocateEi
libosgEarth.so.0:_ZN8osgEarth4Util18TaskServiceManager13setNumThreadsEi
libosgEarth.so.0:_ZN8osgEarth4Util18TaskServiceManager3addEif
libosgEarth.so.0:_ZN8osgEarth4Util18TaskServiceManager6removeEPNS0_11TaskServiceE
libosgEarth.so.0:_ZN8osgEarth4Util18TaskServiceManager6removeEi
libosgEarth.so.0:_ZN8osgEarth4Util18TaskServiceManager8getOrAddEif
libosgEarth.so.0:_ZN8osgEarth4Util18TaskServiceManager9setWeightEPNS0_11TaskServiceEf
libosgEarth.so.0:_ZN8osgEarth4Util18TaskServiceManagerC1Ei
libosgEarth.so.0:_ZN8osgEarth4Util18TaskServiceManagerC2Ei
libosgEarth.so.0:_ZN8osgEarth4Util18TessellateOperator13tessellateGeoERKN3osg5Vec3dES5_jNS_16GeoInterpolationERSt6vectorIS3_SaIS3_EE
libosgEarth.so.0:_ZN8osgEarth4Util18TessellateOperator16tessellateLinearERKN3osg5Vec3dES5_jRSt6vectorIS3_SaIS3_EE
libosgEarth.so.0:_ZN8osgEarth4Util18TessellateOperatorC1Ev
libosgEarth.so.0:_ZN8osgEarth4Util18TessellateOperatorC2Ev
libosgEarth.so.0:_ZN8osgEarth4Util18TileKeyListVisitor3runEPKNS_7ProfileE
libosgEarth.so.0:_ZN8osgEarth4Util18TileKeyListVisitor7setKeysERKSt6vectorINS_7TileKeyESaIS3_EE
libosgEarth.so.0:_ZN8osgEarth4Util18TileKeyListVisitorC1Ev
libosgEarth.so.0:_ZN8osgEarth4Util18TileKeyListVisitorC2Ev
libosgEarth.so.0:_ZN8osgEarth4Util19BuildGeometryFilter12buildPolygonEPNS_8GeometryEPKNS_16SpatialReferenceES6_bPN3osg8GeometryERKNS7_7MatrixdE
libosgEarth.so.0:_ZN8osgEarth4Util19BuildGeometryFilter12processLinesERNSt7__cxx114listIN3osg7ref_ptrINS_7FeatureEEESaIS7_EEERNS0_13FilterContextE
libosgEarth.so.0:_ZN8osgEarth4Util19BuildGeometryFilter13processPointsERNSt7__cxx114listIN3osg7ref_ptrINS_7FeatureEEESaIS7_EEERNS0_13FilterContextE
libosgEarth.so.0:_ZN8osgEarth4Util19BuildGeometryFilter15processPolygonsERNSt7__cxx114listIN3osg7ref_ptrINS_7FeatureEEESaIS7_EEERNS0_13FilterContextE
libosgEarth.so.0:_ZN8osgEarth4Util19BuildGeometryFilter19tileAndBuildPolygonEPNS_8GeometryEPKNS_16SpatialReferenceES6_bbPN3osg8GeometryERKNS7_7MatrixdE
libosgEarth.so.0:_ZN8osgEarth4Util19BuildGeometryFilter23processPolygonizedLinesERNSt7__cxx114listIN3osg7ref_ptrINS_7FeatureEEESaIS7_EEEbRNS0_13FilterContextEb
libosgEarth.so.0:_ZN8osgEarth4Util19BuildGeometryFilter4pushERNSt7__cxx114listIN3osg7ref_ptrINS_7FeatureEEESaIS7_EEERNS0_13FilterContextE
libosgEarth.so.0:_ZN8osgEarth4Util19BuildGeometryFilterC1ERKNS_5StyleE
libosgEarth.so.0:_ZN8osgEarth4Util19BuildGeometryFilterC2ERKNS_5StyleE
libosgEarth.so.0:_ZN8osgEarth4Util19CollectFilesVisitor10handleFileERKNSt7__cxx1112basic_stringIcSt11char_traitsIcESaIcEEE
libosgEarth.so.0:_ZN8osgEarth4Util19CollectFilesVisitorC1Ev
libosgEarth.so.0:_ZN8osgEarth4Util19CollectFilesVisitorC2Ev
libosgEarth.so.0:_ZN8osgEarth4Util19OceanControlFactory6createEPNS_16SimpleOceanLayerE
libosgEarth.so.0:_ZN8osgEarth4Util19PhongLightingEffect4initEv
libosgEarth.so.0:_ZN8osgEarth4Util19PhongLightingEffect6attachEPN3osg8StateSetE
libosgEarth.so.0:_ZN8osgEarth4Util19PhongLightingEffect6detachEPN3osg8StateSetE
libosgEarth.so.0:_ZN8osgEarth4Util19PhongLightingEffect6detachEv
libosgEarth.so.0:_ZN8osgEarth4Util19PhongLightingEffectC1EPN3osg8StateSetE
libosgEarth.so.0:_ZN8osgEarth4Util19PhongLightingEffectC1Ev
libosgEarth.so.0:_ZN8osgEarth4Util19PhongLightingEffectC2EPN3osg8StateSetE
libosgEarth.so.0:_ZN8osgEarth4Util19PhongLightingEffectC2Ev
libosgEarth.so.0:_ZN8osgEarth4Util19PhongLightingEffectD0Ev
libosgEarth.so.0:_ZN8osgEarth4Util19PhongLightingEffectD1Ev
libosgEarth.so.0:_ZN8osgEarth4Util19PhongLightingEffectD2Ev
libosgEarth.so.0:_ZN8osgEarth4Util19ScriptEngineFactory17createWithProfileERKNS_6ScriptERKNSt7__cxx1112basic_stringIcSt11char_traitsIcESaIcEEESC_b
libosgEarth.so.0:_ZN8osgEarth4Util19ScriptEngineFactory6createERKNS0_19ScriptEngineOptionsEb
libosgEarth.so.0:_ZN8osgEarth4Util19ScriptEngineFactory6createERKNS_6ScriptERKNSt7__cxx1112basic_stringIcSt11char_traitsIcESaIcEEEb
libosgEarth.so.0:_ZN8osgEarth4Util19ScriptEngineFactory6createERKNSt7__cxx1112basic_stringIcSt11char_traitsIcESaIcEEES9_b
libosgEarth.so.0:_ZN8osgEarth4Util19ScriptEngineFactory8instanceEv
libosgEarth.so.0:_ZN8osgEarth4Util19ScriptEngineOptions10fromConfigERKNS_6ConfigE
libosgEarth.so.0:_ZN8osgEarth4Util19ScriptEngineOptions11mergeConfigERKNS_6ConfigE
libosgEarth.so.0:_ZN8osgEarth4Util19getLastModifiedTimeERKNSt7__cxx1112basic_stringIcSt11char_traitsIcESaIcEEE
libosgEarth.so.0:_ZN8osgEarth4Util20AltitudeCullCallbackclEPN3osg4NodeEPNS2_11NodeVisitorE
libosgEarth.so.0:_ZN8osgEarth4Util20BuildTopologyVisitor5applyEPN3osg8DrawableEPNS2_13TemplateArrayINS2_5Vec3fELNS2_5Array4TypeE28ELi3ELi5126EEE
libosgEarth.so.0:_ZN8osgEarth4Util20BuildTopologyVisitor5applyERN3osg8DrawableE
libosgEarth.so.0:_ZN8osgEarth4Util20BuildTopologyVisitor5applyERN3osg9TransformE
libosgEarth.so.0:_ZN8osgEarth4Util20BuildTopologyVisitorC1ERNS0_13TopologyGraphE
libosgEarth.so.0:_ZN8osgEarth4Util20BuildTopologyVisitorC2ERNS0_13TopologyGraphE
libosgEarth.so.0:_ZN8osgEarth4Util20EllipsoidIntersector13intersectLineERKN3osg5Vec3dES5_RS3_
libosgEarth.so.0:_ZN8osgEarth4Util20EllipsoidIntersectorC1EPKN3osg14EllipsoidModelE
libosgEarth.so.0:_ZN8osgEarth4Util20EllipsoidIntersectorC2EPKN3osg14EllipsoidModelE
libosgEarth.so.0:_ZN8osgEarth4Util20FeaturesToNodeFilter17computeLocalizersERKNS0_13FilterContextE
libosgEarth.so.0:_ZN8osgEarth4Util20FeaturesToNodeFilter17computeLocalizersERKNS0_13FilterContextERKNS_9GeoExtentERN3osg7MatrixdESA_
libosgEarth.so.0:_ZN8osgEarth4Util20FeaturesToNodeFilter19applyPointSymbologyEPN3osg8StateSetEPKNS_11PointSymbolE
libosgEarth.so.0:_ZN8osgEarth4Util20FeaturesToNodeFilter20transformAndLocalizeERKN3osg5Vec3dEPKNS_16SpatialReferenceERS3_S8_RKNS2_7MatrixdEb
libosgEarth.so.0:_ZN8osgEarth4Util20FeaturesToNodeFilter20transformAndLocalizeERKSt6vectorIN3osg5Vec3dESaIS4_EEPKNS_16SpatialReferenceEPNS3_13TemplateArrayINS3_5Vec3fELNS3_5Array4TypeE28ELi3ELi5126EEESB_RKNS3_7MatrixdEb
libosgEarth.so.0:_ZN8osgEarth4Util20FeaturesToNodeFilter20transformAndLocalizeERKSt6vectorIN3osg5Vec3dESaIS4_EEPKNS_16SpatialReferenceEPNS3_13TemplateArrayINS3_5Vec3fELNS3_5Array4TypeE28ELi3ELi5126EEESH_SB_RKNS3_7MatrixdEb
libosgEarth.so.0:_ZN8osgEarth4Util20FeaturesToNodeFilterD0Ev
libosgEarth.so.0:_ZN8osgEarth4Util20FeaturesToNodeFilterD1Ev
libosgEarth.so.0:_ZN8osgEarth4Util20FeaturesToNodeFilterD2Ev
libosgEarth.so.0:_ZN8osgEarth4Util20InstallCameraUniformclEPN3osg4NodeEPNS2_11NodeVisitorE
libosgEarth.so.0:_ZN8osgEarth4Util20PrimitiveIntersector10intersectsERKN3osg18BoundingSphereImplINS2_5Vec3fEEE
libosgEarth.so.0:_ZN8osgEarth4Util20PrimitiveIntersector12setThicknessEd
libosgEarth.so.0:_ZN8osgEarth4Util20PrimitiveIntersector16intersectAndClipERN3osg5Vec3dES4_RKNS2_15BoundingBoxImplINS2_5Vec3fEEE
libosgEarth.so.0:_ZN8osgEarth4Util20PrimitiveIntersector18findPrimitiveIndexEPN3osg8DrawableEj
libosgEarth.so.0:_ZN8osgEarth4Util20PrimitiveIntersector5cloneERN7osgUtil19IntersectionVisitorE
libosgEarth.so.0:_ZN8osgEarth4Util20PrimitiveIntersector5enterERKN3osg4NodeE
libosgEarth.so.0:_ZN8osgEarth4Util20PrimitiveIntersector5leaveEv
libosgEarth.so.0:_ZN8osgEarth4Util20PrimitiveIntersector5resetEv
libosgEarth.so.0:_ZN8osgEarth4Util20PrimitiveIntersector9intersectERN7osgUtil19IntersectionVisitorEPN3osg8DrawableE
libosgEarth.so.0:_ZN8osgEarth4Util20PrimitiveIntersectorC1EN7osgUtil11Intersector15CoordinateFrameERKN3osg5Vec3dES8_db
libosgEarth.so.0:_ZN8osgEarth4Util20PrimitiveIntersectorC1EN7osgUtil11Intersector15CoordinateFrameEddd
libosgEarth.so.0:_ZN8osgEarth4Util20PrimitiveIntersectorC1Ev
libosgEarth.so.0:_ZN8osgEarth4Util20PrimitiveIntersectorC2EN7osgUtil11Intersector15CoordinateFrameERKN3osg5Vec3dES8_db
libosgEarth.so.0:_ZN8osgEarth4Util20PrimitiveIntersectorC2EN7osgUtil11Intersector15CoordinateFrameEddd
libosgEarth.so.0:_ZN8osgEarth4Util20PrimitiveIntersectorC2Ev
libosgEarth.so.0:_ZN8osgEarth4Util20VertexCacheOptimizer5applyERN3osg8DrawableE
libosgEarth.so.0:_ZN8osgEarth4Util20VertexCacheOptimizerC1Ev
libosgEarth.so.0:_ZN8osgEarth4Util20VertexCacheOptimizerC2Ev
libosgEarth.so.0:_ZN8osgEarth4Util20VerticalDatumFactory6createERKNSt7__cxx1112basic_stringIcSt11char_traitsIcESaIcEEE
libosgEarth.so.0:_ZN8osgEarth4Util20isPathToArchivedFileERKNSt7__cxx1112basic_stringIcSt11char_traitsIcESaIcEEE
libosgEarth.so.0:_ZN8osgEarth4Util20makeDirectoryForFileERKNSt7__cxx1112basic_stringIcSt11char_traitsIcESaIcEEE
libosgEarth.so.0:_ZN8osgEarth4Util21ClusterCullingFactory16createAndInstallEPN3osg4NodeERKNS2_5Vec3dE
libosgEarth.so.0:_ZN8osgEarth4Util21ClusterCullingFactory6createEPN3osg4NodeERKNS2_5Vec3dE
libosgEarth.so.0:_ZN8osgEarth4Util21ClusterCullingFactory6createERKN3osg5Vec3fES5_ff
libosgEarth.so.0:_ZN8osgEarth4Util21ClusterCullingFactory6createERKNS_9GeoExtentE
libosgEarth.so.0:_ZN8osgEarth4Util21ClusterCullingFactory7create2EPN3osg4NodeERKNS2_5Vec3dE
libosgEarth.so.0:_ZN8osgEarth4Util21ExtrudeGeometryFilter11addDrawableEPN3osg8DrawableEPNS2_8StateSetERKNSt7__cxx1112basic_stringIcSt11char_traitsIcESaIcEEEPNS_7FeatureEPNS_19FeatureIndexBuilderE
libosgEarth.so.0:_ZN8osgEarth4Util21ExtrudeGeometryFilter14buildStructureEPKNS_8GeometryEdbfPKNS0_12SkinResourceES7_RNS1_9StructureERNS0_13FilterContextE
libosgEarth.so.0:_ZN8osgEarth4Util21ExtrudeGeometryFilter17buildRoofGeometryERKNS1_9StructureEPN3osg8GeometryERKNS5_5Vec4fEPKNS0_12SkinResourceE
libosgEarth.so.0:_ZN8osgEarth4Util21ExtrudeGeometryFilter17buildWallGeometryERKNS1_9StructureEPN3osg8GeometryERKNS5_5Vec4fESA_PKNS0_12SkinResourceE
libosgEarth.so.0:_ZN8osgEarth4Util21ExtrudeGeometryFilter20buildOutlineGeometryERKNS1_9StructureE
libosgEarth.so.0:_ZN8osgEarth4Util21ExtrudeGeometryFilter4pushERNSt7__cxx114listIN3osg7ref_ptrINS_7FeatureEEESaIS7_EEERNS0_13FilterContextE
libosgEarth.so.0:_ZN8osgEarth4Util21ExtrudeGeometryFilter5resetERKNS0_13FilterContextE
libosgEarth.so.0:_ZN8osgEarth4Util21ExtrudeGeometryFilter7processERNSt7__cxx114listIN3osg7ref_ptrINS_7FeatureEEESaIS7_EEERNS0_13FilterContextE
libosgEarth.so.0:_ZN8osgEarth4Util21ExtrudeGeometryFilter8setStyleERKNS_5StyleE
libosgEarth.so.0:_ZN8osgEarth4Util21ExtrudeGeometryFilterC1Ev
libosgEarth.so.0:_ZN8osgEarth4Util21ExtrudeGeometryFilterC2Ev
libosgEarth.so.0:_ZN8osgEarth4Util21FeatureFilterRegistry3addEPNS0_20FeatureFilterFactoryE
libosgEarth.so.0:_ZN8osgEarth4Util21FeatureFilterRegistry6createERKNS_6ConfigEPKN5osgDB7OptionsE
libosgEarth.so.0:_ZN8osgEarth4Util21FeatureFilterRegistry8instanceEv
libosgEarth.so.0:_ZN8osgEarth4Util21FeatureFilterRegistryC1Ev
libosgEarth.so.0:_ZN8osgEarth4Util21FeatureFilterRegistryC2Ev
libosgEarth.so.0:_ZN8osgEarth4Util21HorizonCullingProgram6removeEPN3osg8StateSetE
libosgEarth.so.0:_ZN8osgEarth4Util21HorizonCullingProgram7installEPN3osg8StateSetE
libosgEarth.so.0:_ZN8osgEarth4Util21JoinPointsLinesFilter10initializeEPKN5osgDB7OptionsE
libosgEarth.so.0:_ZN8osgEarth4Util21JoinPointsLinesFilter15getLineFeaturesERKNS_9GeoExtentERNSt7__cxx114listIN3osg7ref_ptrINS_7FeatureEEESaISA_EEE
libosgEarth.so.0:_ZN8osgEarth4Util21JoinPointsLinesFilter4pushERNSt7__cxx114listIN3osg7ref_ptrINS_7FeatureEEESaIS7_EEERNS0_13FilterContextE
libosgEarth.so.0:_ZN8osgEarth4Util21PolygonizeLinesFilter4pushERNSt7__cxx114listIN3osg7ref_ptrINS_7FeatureEEESaIS7_EEERNS0_13FilterContextE
libosgEarth.so.0:_ZN8osgEarth4Util21PolygonizeLinesFilterC1ERKNS_5StyleE
libosgEarth.so.0:_ZN8osgEarth4Util21PolygonizeLinesFilterC2ERKNS_5StyleE
libosgEarth.so.0:_ZN8osgEarth4Util21SubstituteModelFilter12findResourceERKNS_3URIEPKNS_14InstanceSymbolERNS0_13FilterContextERSt3setIS2_St4lessIS2_ESaIS2_EERN3osg7ref_ptrINS0_16InstanceResourceEEE
libosgEarth.so.0:_ZN8osgEarth4Util21SubstituteModelFilter4pushERNSt7__cxx114listIN3osg7ref_ptrINS_7FeatureEEESaIS7_EEERNS0_13FilterContextE
libosgEarth.so.0:_ZN8osgEarth4Util21SubstituteModelFilter7processERKNSt7__cxx114listIN3osg7ref_ptrINS_7FeatureEEESaIS7_EEEPKNS_14InstanceSymbolEPNS0_7SessionEPNS4_5GroupERNS0_13FilterContextE
libosgEarth.so.0:_ZN8osgEarth4Util21SubstituteModelFilterC1ERKNS_5StyleE
libosgEarth.so.0:_ZN8osgEarth4Util21SubstituteModelFilterC2ERKNS_5StyleE
libosgEarth.so.0:_ZN8osgEarth4Util22GeodeticLabelingEngine12updateLabelsERKN3osg5Vec3dERS3_S6_RNS0_9ClipSpaceERNS0_23GraticuleLabelingEngine10CameraDataE
libosgEarth.so.0:_ZN8osgEarth4Util22GeodeticLabelingEngine13setResolutionEd
libosgEarth.so.0:_ZN8osgEarth4Util22GeodeticLabelingEngine7getTextB5cxx11ERKNS_8GeoPointEb
libosgEarth.so.0:_ZN8osgEarth4Util22GeodeticLabelingEngineC1EPKNS_16SpatialReferenceE
libosgEarth.so.0:_ZN8osgEarth4Util22GeodeticLabelingEngineC2EPKNS_16SpatialReferenceE
libosgEarth.so.0:_ZN8osgEarth4Util22LogarithmicDepthBuffer15setUseFragDepthEb
libosgEarth.so.0:_ZN8osgEarth4Util22LogarithmicDepthBuffer7installEPN3osg6CameraE
libosgEarth.so.0:_ZN8osgEarth4Util22LogarithmicDepthBuffer9uninstallEPN3osg6CameraE
libosgEarth.so.0:_ZN8osgEarth4Util22LogarithmicDepthBufferC1Ev
libosgEarth.so.0:_ZN8osgEarth4Util22LogarithmicDepthBufferC2Ev
libosgEarth.so.0:_ZN8osgEarth4Util22SetDataVarianceVisitor5applyERN3osg8DrawableE
libosgEarth.so.0:_ZN8osgEarth4Util22SetDataVarianceVisitorC1EN3osg6Object12DataVarianceE
libosgEarth.so.0:_ZN8osgEarth4Util22SetDataVarianceVisitorC2EN3osg6Object12DataVarianceE
libosgEarth.so.0:_ZN8osgEarth4Util22TextureAndImageVisitor5applyERN3osg4NodeE
libosgEarth.so.0:_ZN8osgEarth4Util22TextureAndImageVisitor5applyERN3osg7TextureE
libosgEarth.so.0:_ZN8osgEarth4Util22TextureAndImageVisitor5applyERN3osg8StateSetE
libosgEarth.so.0:_ZN8osgEarth4Util22TextureAndImageVisitorC1Ev
libosgEarth.so.0:_ZN8osgEarth4Util22TextureAndImageVisitorC2Ev
libosgEarth.so.0:_ZN8osgEarth4Util22TransientUserDataStore17isObserverInvalidERKSt4pairIKPvNS1_8DataPairEE
libosgEarth.so.0:_ZN8osgEarth4Util22TransientUserDataStore5storeEPN3osg10ReferencedERKNSt7__cxx1112basic_stringIcSt11char_traitsIcESaIcEEES4_
libosgEarth.so.0:_ZN8osgEarth4Util22TransientUserDataStore6removeEPN3osg10ReferencedERKNSt7__cxx1112basic_stringIcSt11char_traitsIcESaIcEEE
libosgEarth.so.0:_ZN8osgEarth4Util22TransientUserDataStore8unitTestEv
libosgEarth.so.0:_ZN8osgEarth4Util23ClipToGeocentricHorizonC1EPKNS_16SpatialReferenceEPN3osg9ClipPlaneE
libosgEarth.so.0:_ZN8osgEarth4Util23ClipToGeocentricHorizonC2EPKNS_16SpatialReferenceEPN3osg9ClipPlaneE
libosgEarth.so.0:_ZN8osgEarth4Util23ClipToGeocentricHorizonclEPN3osg4NodeEPNS2_11NodeVisitorE
libosgEarth.so.0:_ZN8osgEarth4Util23GeometryClamperCallback12onTileUpdateERKNS_7TileKeyEPN3osg4NodeERNS_22TerrainCallbackContextE
libosgEarth.so.0:_ZN8osgEarth4Util23GraticuleLabelingEngine10getVisibleEPN3osg6CameraE
libosgEarth.so.0:_ZN8osgEarth4Util23GraticuleLabelingEngine12cullTraverseERN7osgUtil11CullVisitorERNS1_10CameraDataE
libosgEarth.so.0:_ZN8osgEarth4Util23GraticuleLabelingEngine12updateLabelsERKN3osg5Vec3dERS3_S6_RNS0_9ClipSpaceERNS1_10CameraDataE
libosgEarth.so.0:_ZN8osgEarth4Util23GraticuleLabelingEngine16AcceptCameraDataclERNS1_10CameraDataE
libosgEarth.so.0:_ZN8osgEarth4Util23GraticuleLabelingEngine17UpdateLabelStylesclERNS1_10CameraDataE
libosgEarth.so.0:_ZN8osgEarth4Util23GraticuleLabelingEngine8setStyleERKNS_5StyleE
libosgEarth.so.0:_ZN8osgEarth4Util23GraticuleLabelingEngine8traverseERN3osg11NodeVisitorE
libosgEarth.so.0:_ZN8osgEarth4Util23GraticuleLabelingEngine9setStylesERKNS_5StyleES4_
libosgEarth.so.0:_ZN8osgEarth4Util23GraticuleLabelingEngineC1EPKNS_16SpatialReferenceE
libosgEarth.so.0:_ZN8osgEarth4Util23GraticuleLabelingEngineC2EPKNS_16SpatialReferenceE
libosgEarth.so.0:_ZN8osgEarth4Util23MultiprocessTileVisitor10handleTileERKNS_7TileKeyE
libosgEarth.so.0:_ZN8osgEarth4Util23MultiprocessTileVisitor12processBatchEv
libosgEarth.so.0:_ZN8osgEarth4Util23MultiprocessTileVisitor12setBatchSizeEj
libosgEarth.so.0:_ZN8osgEarth4Util23MultiprocessTileVisitor12setEarthFileERKNSt7__cxx1112basic_stringIcSt11char_traitsIcESaIcEEE
libosgEarth.so.0:_ZN8osgEarth4Util23MultiprocessTileVisitor15setNumProcessesEj
libosgEarth.so.0:_ZN8osgEarth4Util23MultiprocessTileVisitor3runEPKNS_7ProfileE
libosgEarth.so.0:_ZN8osgEarth4Util23MultiprocessTileVisitorC1EPNS0_11TileHandlerE
libosgEarth.so.0:_ZN8osgEarth4Util23MultiprocessTileVisitorC1Ev
libosgEarth.so.0:_ZN8osgEarth4Util23MultiprocessTileVisitorC2EPNS0_11TileHandlerE
libosgEarth.so.0:_ZN8osgEarth4Util23MultiprocessTileVisitorC2Ev
libosgEarth.so.0:_ZN8osgEarth4Util23PolygonizeLinesOperatorC1ERKNS_6StrokeE
libosgEarth.so.0:_ZN8osgEarth4Util23PolygonizeLinesOperatorC2ERKNS_6StrokeE
libosgEarth.so.0:_ZN8osgEarth4Util23PrimitiveSetTypeCounter5applyERN3osg8DrawableE
libosgEarth.so.0:_ZN8osgEarth4Util23PrimitiveSetTypeCounterC1Ev
libosgEarth.so.0:_ZN8osgEarth4Util23PrimitiveSetTypeCounterC2Ev
libosgEarth.so.0:_ZN8osgEarth4Util24FlattenSceneGraphVisitor11popStateSetEv
libosgEarth.so.0:_ZN8osgEarth4Util24FlattenSceneGraphVisitor12pushStateSetEPN3osg8StateSetE
libosgEarth.so.0:_ZN8osgEarth4Util24FlattenSceneGraphVisitor5applyERN3osg4NodeE
libosgEarth.so.0:_ZN8osgEarth4Util24FlattenSceneGraphVisitor5applyERN3osg5GeodeE
libosgEarth.so.0:_ZN8osgEarth4Util24FlattenSceneGraphVisitor5buildEv
libosgEarth.so.0:_ZN8osgEarth4Util24FlattenSceneGraphVisitorC1Ev
libosgEarth.so.0:_ZN8osgEarth4Util24FlattenSceneGraphVisitorC2Ev
libosgEarth.so.0:_ZN8osgEarth4Util24MultithreadedTileVisitor10handleTileERKNS_7TileKeyE
libosgEarth.so.0:_ZN8osgEarth4Util24MultithreadedTileVisitor13setNumThreadsEj
libosgEarth.so.0:_ZN8osgEarth4Util24MultithreadedTileVisitor3runEPKNS_7ProfileE
libosgEarth.so.0:_ZN8osgEarth4Util24MultithreadedTileVisitorC1EPNS0_11TileHandlerE
libosgEarth.so.0:_ZN8osgEarth4Util24MultithreadedTileVisitorC1Ev
libosgEarth.so.0:_ZN8osgEarth4Util24MultithreadedTileVisitorC2EPNS0_11TileHandlerE
libosgEarth.so.0:_ZN8osgEarth4Util24MultithreadedTileVisitorC2Ev
libosgEarth.so.0:_ZN8osgEarth4Util24OcclusionCullingCallback14setMaxAltitudeEd
libosgEarth.so.0:_ZN8osgEarth4Util24OcclusionCullingCallback15getMaxFrameTimeEv
libosgEarth.so.0:_ZN8osgEarth4Util24OcclusionCullingCallback15setMaxFrameTimeEd
libosgEarth.so.0:_ZN8osgEarth4Util24OcclusionCullingCallbackC1EPNS_12GeoTransformE
libosgEarth.so.0:_ZN8osgEarth4Util24OcclusionCullingCallbackC2EPNS_12GeoTransformE
libosgEarth.so.0:_ZN8osgEarth4Util24OcclusionCullingCallbackclEPN3osg4NodeEPNS2_11NodeVisitorE
libosgEarth.so.0:_ZN8osgEarth4Util24RangeUniformCullCallbackC1Ev
libosgEarth.so.0:_ZN8osgEarth4Util24RangeUniformCullCallbackC2Ev
libosgEarth.so.0:_ZN8osgEarth4Util24RangeUniformCullCallbackclEPN3osg4NodeEPNS2_11NodeVisitorE
libosgEarth.so.0:_ZN8osgEarth4Util24RemoveEmptyGroupsVisitor5applyERN3osg5GroupE
libosgEarth.so.0:_ZN8osgEarth4Util24RemoveEmptyGroupsVisitorC1Ev
libosgEarth.so.0:_ZN8osgEarth4Util24RemoveEmptyGroupsVisitorC2Ev
libosgEarth.so.0:_ZN8osgEarth4Util25AutoClipPlaneCullCallbackC1EPNS_7MapNodeE
libosgEarth.so.0:_ZN8osgEarth4Util25AutoClipPlaneCullCallbackC2EPNS_7MapNodeE
libosgEarth.so.0:_ZN8osgEarth4Util25AutoClipPlaneCullCallbackclEPN3osg4NodeEPNS2_11NodeVisitorE
libosgEarth.so.0:_ZN8osgEarth4Util26PagedLODWithNodeOperations11insertChildEjPN3osg4NodeE
libosgEarth.so.0:_ZN8osgEarth4Util26PagedLODWithNodeOperations12replaceChildEPN3osg4NodeES4_
libosgEarth.so.0:_ZN8osgEarth4Util26PagedLODWithNodeOperations12runPostMergeEPN3osg4NodeE
libosgEarth.so.0:_ZN8osgEarth4Util26PagedLODWithNodeOperations8addChildEPN3osg4NodeE
libosgEarth.so.0:_ZN8osgEarth4Util26PagedLODWithNodeOperationsC1EPNS0_22RefNodeOperationVectorE
libosgEarth.so.0:_ZN8osgEarth4Util26PagedLODWithNodeOperationsC2EPNS0_22RefNodeOperationVectorE
libosgEarth.so.0:_ZN8osgEarth4Util27ImageToHeightFieldConverter21setRemoveNoDataValuesEbf
libosgEarth.so.0:_ZN8osgEarth4Util27ImageToHeightFieldConverter7convertEPKN3osg11HeightFieldEi
libosgEarth.so.0:_ZN8osgEarth4Util27ImageToHeightFieldConverter7convertEPKN3osg5ImageE
libosgEarth.so.0:_ZN8osgEarth4Util27ImageToHeightFieldConverter7convertEPKN3osg5ImageEf
libosgEarth.so.0:_ZN8osgEarth4Util27ImageToHeightFieldConverterC1Ev
libosgEarth.so.0:_ZN8osgEarth4Util27ImageToHeightFieldConverterC2Ev
libosgEarth.so.0:_ZN8osgEarth4Util29PrepareForOptimizationVisitor5applyERN3osg4NodeE
libosgEarth.so.0:_ZN8osgEarth4Util29PrepareForOptimizationVisitorC1Ev
libosgEarth.so.0:_ZN8osgEarth4Util29PrepareForOptimizationVisitorC2Ev
libosgEarth.so.0:_ZN8osgEarth4Util31PagedLODWithSceneGraphCallbacks11insertChildEjPN3osg4NodeE
libosgEarth.so.0:_ZN8osgEarth4Util31PagedLODWithSceneGraphCallbacks12childRemovedEjj
libosgEarth.so.0:_ZN8osgEarth4Util31PagedLODWithSceneGraphCallbacks12replaceChildEPN3osg4NodeES4_
libosgEarth.so.0:_ZN8osgEarth4Util31PagedLODWithSceneGraphCallbacks22setSceneGraphCallbacksEPNS_19SceneGraphCallbacksE
libosgEarth.so.0:_ZN8osgEarth4Util31PagedLODWithSceneGraphCallbacks8addChildEPN3osg4NodeE
libosgEarth.so.0:_ZN8osgEarth4Util31PagedLODWithSceneGraphCallbacksC1EPNS_19SceneGraphCallbacksE
libosgEarth.so.0:_ZN8osgEarth4Util31PagedLODWithSceneGraphCallbacksC2EPNS_19SceneGraphCallbacksE
libosgEarth.so.0:_ZN8osgEarth4Util36AllocateAndMergeBufferObjectsVisitor5applyERN3osg8DrawableE
libosgEarth.so.0:_ZN8osgEarth4Util36AllocateAndMergeBufferObjectsVisitorC1Ev
libosgEarth.so.0:_ZN8osgEarth4Util36AllocateAndMergeBufferObjectsVisitorC2Ev
libosgEarth.so.0:_ZN8osgEarth4Util4ECEF20transformAndLocalizeERKN3osg5Vec3dEPKNS_16SpatialReferenceERS3_S8_RKNS2_7MatrixdE
libosgEarth.so.0:_ZN8osgEarth4Util4ECEF20transformAndLocalizeERKSt6vectorIN3osg5Vec3dESaIS4_EEPKNS_16SpatialReferenceEPNS3_13TemplateArrayINS3_5Vec3fELNS3_5Array4TypeE28ELi3ELi5126EEESB_RKNS3_7MatrixdE
libosgEarth.so.0:_ZN8osgEarth4Util4ECEF20transformAndLocalizeERKSt6vectorIN3osg5Vec3dESaIS4_EEPKNS_16SpatialReferenceEPNS3_13TemplateArrayINS3_5Vec3fELNS3_5Array4TypeE28ELi3ELi5126EEESH_SB_RKNS3_7MatrixdE
libosgEarth.so.0:_ZN8osgEarth4Util4ECEF29transformAndGetRotationMatrixERKN3osg5Vec3dEPKNS_16SpatialReferenceERS3_S8_RNS2_7MatrixdE
libosgEarth.so.0:_ZN8osgEarth4Util4Json10FastWriter10writeValueERKNS1_5ValueE
libosgEarth.so.0:_ZN8osgEarth4Util4Json10FastWriter23enableYAMLCompatibilityEv
libosgEarth.so.0:_ZN8osgEarth4Util4Json10FastWriter5writeB5cxx11ERKNS1_5ValueE
libosgEarth.so.0:_ZN8osgEarth4Util4Json10FastWriterC1Ev
libosgEarth.so.0:_ZN8osgEarth4Util4Json10FastWriterC2Ev
libosgEarth.so.0:_ZN8osgEarth4Util4Json12PathArgumentC1EPKc
libosgEarth.so.0:_ZN8osgEarth4Util4Json12PathArgumentC1ERKNSt7__cxx1112basic_stringIcSt11char_traitsIcESaIcEEE
libosgEarth.so.0:_ZN8osgEarth4Util4Json12PathArgumentC1Ej
libosgEarth.so.0:_ZN8osgEarth4Util4Json12PathArgumentC1Ev
libosgEarth.so.0:_ZN8osgEarth4Util4Json12PathArgumentC2EPKc
libosgEarth.so.0:_ZN8osgEarth4Util4Json12PathArgumentC2ERKNSt7__cxx1112basic_stringIcSt11char_traitsIcESaIcEEE
libosgEarth.so.0:_ZN8osgEarth4Util4Json12PathArgumentC2Ej
libosgEarth.so.0:_ZN8osgEarth4Util4Json12PathArgumentC2Ev
libosgEarth.so.0:_ZN8osgEarth4Util4Json12StyledWriter10writeValueERKNS1_5ValueE
libosgEarth.so.0:_ZN8osgEarth4Util4Json12StyledWriter11writeIndentEv
libosgEarth.so.0:_ZN8osgEarth4Util4Json12StyledWriter12normalizeEOLERKNSt7__cxx1112basic_stringIcSt11char_traitsIcESaIcEEE
libosgEarth.so.0:_ZN8osgEarth4Util4Json12StyledWriter14isMultineArrayERKNS1_5ValueE
libosgEarth.so.0:_ZN8osgEarth4Util4Json12StyledWriter15writeArrayValueERKNS1_5ValueE
libosgEarth.so.0:_ZN8osgEarth4Util4Json12StyledWriter15writeWithIndentERKNSt7__cxx1112basic_stringIcSt11char_traitsIcESaIcEEE
libosgEarth.so.0:_ZN8osgEarth4Util4Json12StyledWriter18hasCommentForValueERKNS1_5ValueE
libosgEarth.so.0:_ZN8osgEarth4Util4Json12StyledWriter23writeCommentBeforeValueERKNS1_5ValueE
libosgEarth.so.0:_ZN8osgEarth4Util4Json12StyledWriter32writeCommentAfterValueOnSameLineERKNS1_5ValueE
libosgEarth.so.0:_ZN8osgEarth4Util4Json12StyledWriter5writeB5cxx11ERKNS1_5ValueE
libosgEarth.so.0:_ZN8osgEarth4Util4Json12StyledWriter6indentEv
libosgEarth.so.0:_ZN8osgEarth4Util4Json12StyledWriter8unindentEv
libosgEarth.so.0:_ZN8osgEarth4Util4Json12StyledWriter9pushValueERKNSt7__cxx1112basic_stringIcSt11char_traitsIcESaIcEEE
libosgEarth.so.0:_ZN8osgEarth4Util4Json12StyledWriterC1Ev
libosgEarth.so.0:_ZN8osgEarth4Util4Json12StyledWriterC2Ev
libosgEarth.so.0:_ZN8osgEarth4Util4Json13ValueIteratorC1ERKNS1_18ValueConstIteratorE
libosgEarth.so.0:_ZN8osgEarth4Util4Json13ValueIteratorC1ERKS2_
libosgEarth.so.0:_ZN8osgEarth4Util4Json13ValueIteratorC1ERKSt17_Rb_tree_iteratorISt4pairIKNS1_5Value8CZStringES5_EE
libosgEarth.so.0:_ZN8osgEarth4Util4Json13ValueIteratorC1Ev
libosgEarth.so.0:_ZN8osgEarth4Util4Json13ValueIteratorC2ERKNS1_18ValueConstIteratorE
libosgEarth.so.0:_ZN8osgEarth4Util4Json13ValueIteratorC2ERKS2_
libosgEarth.so.0:_ZN8osgEarth4Util4Json13ValueIteratorC2ERKSt17_Rb_tree_iteratorISt4pairIKNS1_5Value8CZStringES5_EE
libosgEarth.so.0:_ZN8osgEarth4Util4Json13ValueIteratorC2Ev
libosgEarth.so.0:_ZN8osgEarth4Util4Json13ValueIteratoraSERKS2_
libosgEarth.so.0:_ZN8osgEarth4Util4Json13valueToStringB5cxx11Eb
libosgEarth.so.0:_ZN8osgEarth4Util4Json13valueToStringB5cxx11Ed
libosgEarth.so.0:_ZN8osgEarth4Util4Json13valueToStringB5cxx11Ei
libosgEarth.so.0:_ZN8osgEarth4Util4Json13valueToStringB5cxx11Ej
libosgEarth.so.0:_ZN8osgEarth4Util4Json14ValueAllocatorD0Ev
libosgEarth.so.0:_ZN8osgEarth4Util4Json14ValueAllocatorD1Ev
libosgEarth.so.0:_ZN8osgEarth4Util4Json14ValueAllocatorD2Ev
libosgEarth.so.0:_ZN8osgEarth4Util4Json17ValueIteratorBase4copyERKS2_
libosgEarth.so.0:_ZN8osgEarth4Util4Json17ValueIteratorBase9decrementEv
libosgEarth.so.0:_ZN8osgEarth4Util4Json17ValueIteratorBase9incrementEv
libosgEarth.so.0:_ZN8osgEarth4Util4Json17ValueIteratorBaseC1ERKSt17_Rb_tree_iteratorISt4pairIKNS1_5Value8CZStringES5_EE
libosgEarth.so.0:_ZN8osgEarth4Util4Json17ValueIteratorBaseC1Ev
libosgEarth.so.0:_ZN8osgEarth4Util4Json17ValueIteratorBaseC2ERKSt17_Rb_tree_iteratorISt4pairIKNS1_5Value8CZStringES5_EE
libosgEarth.so.0:_ZN8osgEarth4Util4Json17ValueIteratorBaseC2Ev
libosgEarth.so.0:_ZN8osgEarth4Util4Json18StyledStreamWriter10writeValueERKNS1_5ValueE
libosgEarth.so.0:_ZN8osgEarth4Util4Json18StyledStreamWriter11writeIndentEv
libosgEarth.so.0:_ZN8osgEarth4Util4Json18StyledStreamWriter12normalizeEOLERKNSt7__cxx1112basic_stringIcSt11char_traitsIcESaIcEEE
libosgEarth.so.0:_ZN8osgEarth4Util4Json18StyledStreamWriter14isMultineArrayERKNS1_5ValueE
libosgEarth.so.0:_ZN8osgEarth4Util4Json18StyledStreamWriter15writeArrayValueERKNS1_5ValueE
libosgEarth.so.0:_ZN8osgEarth4Util4Json18StyledStreamWriter15writeWithIndentERKNSt7__cxx1112basic_stringIcSt11char_traitsIcESaIcEEE
libosgEarth.so.0:_ZN8osgEarth4Util4Json18StyledStreamWriter18hasCommentForValueERKNS1_5ValueE
libosgEarth.so.0:_ZN8osgEarth4Util4Json18StyledStreamWriter23writeCommentBeforeValueERKNS1_5ValueE
libosgEarth.so.0:_ZN8osgEarth4Util4Json18StyledStreamWriter32writeCommentAfterValueOnSameLineERKNS1_5ValueE
libosgEarth.so.0:_ZN8osgEarth4Util4Json18StyledStreamWriter5writeERSoRKNS1_5ValueE
libosgEarth.so.0:_ZN8osgEarth4Util4Json18StyledStreamWriter6indentEv
libosgEarth.so.0:_ZN8osgEarth4Util4Json18StyledStreamWriter8unindentEv
libosgEarth.so.0:_ZN8osgEarth4Util4Json18StyledStreamWriter9pushValueERKNSt7__cxx1112basic_stringIcSt11char_traitsIcESaIcEEE
libosgEarth.so.0:_ZN8osgEarth4Util4Json18StyledStreamWriterC1ENSt7__cxx1112basic_stringIcSt11char_traitsIcESaIcEEE
libosgEarth.so.0:_ZN8osgEarth4Util4Json18StyledStreamWriterC2ENSt7__cxx1112basic_stringIcSt11char_traitsIcESaIcEEE
libosgEarth.so.0:_ZN8osgEarth4Util4Json18ValueConstIteratorC1ERKSt17_Rb_tree_iteratorISt4pairIKNS1_5Value8CZStringES5_EE
libosgEarth.so.0:_ZN8osgEarth4Util4Json18ValueConstIteratorC1Ev
libosgEarth.so.0:_ZN8osgEarth4Util4Json18ValueConstIteratorC2ERKSt17_Rb_tree_iteratorISt4pairIKNS1_5Value8CZStringES5_EE
libosgEarth.so.0:_ZN8osgEarth4Util4Json18ValueConstIteratorC2Ev
libosgEarth.so.0:_ZN8osgEarth4Util4Json18ValueConstIteratoraSERKNS1_17ValueIteratorBaseE
libosgEarth.so.0:_ZN8osgEarth4Util4Json19valueToQuotedStringB5cxx11EPKc
libosgEarth.so.0:_ZN8osgEarth4Util4Json4Path11invalidPathERKNSt7__cxx1112basic_stringIcSt11char_traitsIcESaIcEEEi
libosgEarth.so.0:_ZN8osgEarth4Util4Json4Path12addPathInArgERKNSt7__cxx1112basic_stringIcSt11char_traitsIcESaIcEEERKSt6vectorIPKNS1_12PathArgumentESaISE_EERN9__gnu_cxx17__normal_iteratorIPKSE_SG_EENSC_4KindE
libosgEarth.so.0:_ZN8osgEarth4Util4Json4Path8makePathERKNSt7__cxx1112basic_stringIcSt11char_traitsIcESaIcEEERKSt6vectorIPKNS1_12PathArgumentESaISE_EE
libosgEarth.so.0:_ZN8osgEarth4Util4Json4PathC1ERKNSt7__cxx1112basic_stringIcSt11char_traitsIcESaIcEEERKNS1_12PathArgumentESD_SD_SD_SD_
libosgEarth.so.0:_ZN8osgEarth4Util4Json4PathC2ERKNSt7__cxx1112basic_stringIcSt11char_traitsIcESaIcEEERKNS1_12PathArgumentESD_SD_SD_SD_
libosgEarth.so.0:_ZN8osgEarth4Util4Json5Value10setCommentEPKcNS1_16CommentPlacementE
libosgEarth.so.0:_ZN8osgEarth4Util4Json5Value10setCommentERKNSt7__cxx1112basic_stringIcSt11char_traitsIcESaIcEEENS1_16CommentPlacementE
libosgEarth.so.0:_ZN8osgEarth4Util4Json5Value11CommentInfo10setCommentEPKc
libosgEarth.so.0:_ZN8osgEarth4Util4Json5Value11CommentInfoC1Ev
libosgEarth.so.0:_ZN8osgEarth4Util4Json5Value11CommentInfoC2Ev
libosgEarth.so.0:_ZN8osgEarth4Util4Json5Value11CommentInfoD1Ev
libosgEarth.so.0:_ZN8osgEarth4Util4Json5Value11CommentInfoD2Ev
libosgEarth.so.0:_ZN8osgEarth4Util4Json5Value12removeMemberEPKc
libosgEarth.so.0:_ZN8osgEarth4Util4Json5Value12removeMemberERKNSt7__cxx1112basic_stringIcSt11char_traitsIcESaIcEEE
libosgEarth.so.0:_ZN8osgEarth4Util4Json5Value16resolveReferenceEPKcb
libosgEarth.so.0:_ZN8osgEarth4Util4Json5Value3endEv
libosgEarth.so.0:_ZN8osgEarth4Util4Json5Value4swapERS2_
libosgEarth.so.0:_ZN8osgEarth4Util4Json5Value5beginEv
libosgEarth.so.0:_ZN8osgEarth4Util4Json5Value5clearEv
libosgEarth.so.0:_ZN8osgEarth4Util4Json5Value6appendERKS2_
libosgEarth.so.0:_ZN8osgEarth4Util4Json5Value6resizeEj
libosgEarth.so.0:_ZN8osgEarth4Util4Json5Value7compareERKS2_
libosgEarth.so.0:_ZN8osgEarth4Util4Json5Value8CZString4swapERS3_
libosgEarth.so.0:_ZN8osgEarth4Util4Json5Value8CZStringC1EPKcNS3_17DuplicationPolicyE
libosgEarth.so.0:_ZN8osgEarth4Util4Json5Value8CZStringC1ERKS3_
libosgEarth.so.0:_ZN8osgEarth4Util4Json5Value8CZStringC1Ei
libosgEarth.so.0:_ZN8osgEarth4Util4Json5Value8CZStringC2EPKcNS3_17DuplicationPolicyE
libosgEarth.so.0:_ZN8osgEarth4Util4Json5Value8CZStringC2ERKS3_
libosgEarth.so.0:_ZN8osgEarth4Util4Json5Value8CZStringC2Ei
libosgEarth.so.0:_ZN8osgEarth4Util4Json5Value8CZStringD1Ev
libosgEarth.so.0:_ZN8osgEarth4Util4Json5Value8CZStringD2Ev
libosgEarth.so.0:_ZN8osgEarth4Util4Json5Value8CZStringaSERKS3_
libosgEarth.so.0:_ZN8osgEarth4Util4Json5ValueC1ENS1_9ValueTypeE
libosgEarth.so.0:_ZN8osgEarth4Util4Json5ValueC1EPKc
libosgEarth.so.0:_ZN8osgEarth4Util4Json5ValueC1ERKNS1_12StaticStringE
libosgEarth.so.0:_ZN8osgEarth4Util4Json5ValueC1ERKNSt7__cxx1112basic_stringIcSt11char_traitsIcESaIcEEE
libosgEarth.so.0:_ZN8osgEarth4Util4Json5ValueC1ERKS2_
libosgEarth.so.0:_ZN8osgEarth4Util4Json5ValueC1Eb
libosgEarth.so.0:_ZN8osgEarth4Util4Json5ValueC1Ed
libosgEarth.so.0:_ZN8osgEarth4Util4Json5ValueC1Ei
libosgEarth.so.0:_ZN8osgEarth4Util4Json5ValueC1Ej
libosgEarth.so.0:_ZN8osgEarth4Util4Json5ValueC2ENS1_9ValueTypeE
libosgEarth.so.0:_ZN8osgEarth4Util4Json5ValueC2EPKc
libosgEarth.so.0:_ZN8osgEarth4Util4Json5ValueC2ERKNS1_12StaticStringE
libosgEarth.so.0:_ZN8osgEarth4Util4Json5ValueC2ERKNSt7__cxx1112basic_stringIcSt11char_traitsIcESaIcEEE
libosgEarth.so.0:_ZN8osgEarth4Util4Json5ValueC2ERKS2_
libosgEarth.so.0:_ZN8osgEarth4Util4Json5ValueC2Eb
libosgEarth.so.0:_ZN8osgEarth4Util4Json5ValueC2Ed
libosgEarth.so.0:_ZN8osgEarth4Util4Json5ValueC2Ei
libosgEarth.so.0:_ZN8osgEarth4Util4Json5ValueC2Ej
libosgEarth.so.0:_ZN8osgEarth4Util4Json5ValueD1Ev
libosgEarth.so.0:_ZN8osgEarth4Util4Json5ValueD2Ev
libosgEarth.so.0:_ZN8osgEarth4Util4Json5ValueaSERKS2_
libosgEarth.so.0:_ZN8osgEarth4Util4Json5ValueixEPKc
libosgEarth.so.0:_ZN8osgEarth4Util4Json5ValueixERKNS1_12StaticStringE
libosgEarth.so.0:_ZN8osgEarth4Util4Json5ValueixERKNSt7__cxx1112basic_stringIcSt11char_traitsIcESaIcEEE
libosgEarth.so.0:_ZN8osgEarth4Util4Json5ValueixEj
libosgEarth.so.0:_ZN8osgEarth4Util4Json6Reader10addCommentEPKcS4_NS1_16CommentPlacementE
libosgEarth.so.0:_ZN8osgEarth4Util4Json6Reader10readNumberEv
libosgEarth.so.0:_ZN8osgEarth4Util4Json6Reader10readObjectERNS2_5TokenE
libosgEarth.so.0:_ZN8osgEarth4Util4Json6Reader10readStringEv
libosgEarth.so.0:_ZN8osgEarth4Util4Json6Reader10skipSpacesEv
libosgEarth.so.0:_ZN8osgEarth4Util4Json6Reader11expectTokenENS2_9TokenTypeERNS2_5TokenEPKc
libosgEarth.so.0:_ZN8osgEarth4Util4Json6Reader11getNextCharEv
libosgEarth.so.0:_ZN8osgEarth4Util4Json6Reader11readCommentEv
libosgEarth.so.0:_ZN8osgEarth4Util4Json6Reader12currentValueEv
libosgEarth.so.0:_ZN8osgEarth4Util4Json6Reader12decodeDoubleERNS2_5TokenE
libosgEarth.so.0:_ZN8osgEarth4Util4Json6Reader12decodeNumberERNS2_5TokenE
libosgEarth.so.0:_ZN8osgEarth4Util4Json6Reader12decodeStringERNS2_5TokenE
libosgEarth.so.0:_ZN8osgEarth4Util4Json6Reader12decodeStringERNS2_5TokenERNSt7__cxx1112basic_stringIcSt11char_traitsIcESaIcEEE
libosgEarth.so.0:_ZN8osgEarth4Util4Json6Reader16recoverFromErrorENS2_9TokenTypeE
libosgEarth.so.0:_ZN8osgEarth4Util4Json6Reader17readCStyleCommentEv
libosgEarth.so.0:_ZN8osgEarth4Util4Json6Reader17skipCommentTokensERNS2_5TokenE
libosgEarth.so.0:_ZN8osgEarth4Util4Json6Reader18addErrorAndRecoverERKNSt7__cxx1112basic_stringIcSt11char_traitsIcESaIcEEERNS2_5TokenENS2_9TokenTypeE
libosgEarth.so.0:_ZN8osgEarth4Util4Json6Reader19readCppStyleCommentEv
libosgEarth.so.0:_ZN8osgEarth4Util4Json6Reader27decodeUnicodeEscapeSequenceERNS2_5TokenERPKcS6_Rj
libosgEarth.so.0:_ZN8osgEarth4Util4Json6Reader5matchEPKci
libosgEarth.so.0:_ZN8osgEarth4Util4Json6Reader5parseEPKcS4_RNS1_5ValueEb
libosgEarth.so.0:_ZN8osgEarth4Util4Json6Reader5parseERKNSt7__cxx1112basic_stringIcSt11char_traitsIcESaIcEEERNS1_5ValueEb
libosgEarth.so.0:_ZN8osgEarth4Util4Json6Reader5parseERSiRNS1_5ValueEb
libosgEarth.so.0:_ZN8osgEarth4Util4Json6Reader8addErrorERKNSt7__cxx1112basic_stringIcSt11char_traitsIcESaIcEEERNS2_5TokenEPKc
libosgEarth.so.0:_ZN8osgEarth4Util4Json6Reader9readArrayERNS2_5TokenE
libosgEarth.so.0:_ZN8osgEarth4Util4Json6Reader9readTokenERNS2_5TokenE
libosgEarth.so.0:_ZN8osgEarth4Util4Json6Reader9readValueEv
libosgEarth.so.0:_ZN8osgEarth4Util4Json6ReaderC1Ev
libosgEarth.so.0:_ZN8osgEarth4Util4Json6ReaderC2Ev
libosgEarth.so.0:_ZN8osgEarth4Util4Json6WriterD0Ev
libosgEarth.so.0:_ZN8osgEarth4Util4Json6WriterD1Ev
libosgEarth.so.0:_ZN8osgEarth4Util4Json6WriterD2Ev
libosgEarth.so.0:_ZN8osgEarth4Util4trimERKNSt7__cxx1112basic_stringIcSt11char_traitsIcESaIcEEE
libosgEarth.so.0:_ZN8osgEarth4Util5trim2ERNSt7__cxx1112basic_stringIcSt11char_traitsIcESaIcEEE
libosgEarth.so.0:_ZN8osgEarth4Util6FilterD0Ev
libosgEarth.so.0:_ZN8osgEarth4Util6FilterD1Ev
libosgEarth.so.0:_ZN8osgEarth4Util6FilterD2Ev
libosgEarth.so.0:_ZN8osgEarth4Util6Memory22getProcessPrivateUsageEv
libosgEarth.so.0:_ZN8osgEarth4Util6Memory23getProcessPhysicalUsageEv
libosgEarth.so.0:_ZN8osgEarth4Util6Memory26getProcessPeakPrivateUsageEv
libosgEarth.so.0:_ZN8osgEarth4Util6Memory27getProcessPeakPhysicalUsageEv
libosgEarth.so.0:_ZN8osgEarth4Util6Random4nextEj
libosgEarth.so.0:_ZN8osgEarth4Util6Random4nextEv
libosgEarth.so.0:_ZN8osgEarth4Util6Random4seedEj
libosgEarth.so.0:_ZN8osgEarth4Util6Random5resetEv
libosgEarth.so.0:_ZN8osgEarth4Util6RandomC1ENS1_6MethodE
libosgEarth.so.0:_ZN8osgEarth4Util6RandomC1ERKS1_
libosgEarth.so.0:_ZN8osgEarth4Util6RandomC1EjNS1_6MethodE
libosgEarth.so.0:_ZN8osgEarth4Util6RandomC2ENS1_6MethodE
libosgEarth.so.0:_ZN8osgEarth4Util6RandomC2ERKS1_
libosgEarth.so.0:_ZN8osgEarth4Util6RandomC2EjNS1_6MethodE
libosgEarth.so.0:_ZN8osgEarth4Util7Culling13asCullVisitorEPN3osg11NodeVisitorE
libosgEarth.so.0:_ZN8osgEarth4Util7FadeLOD8traverseERN3osg11NodeVisitorE
libosgEarth.so.0:_ZN8osgEarth4Util7FadeLODC1Ev
libosgEarth.so.0:_ZN8osgEarth4Util7FadeLODC2Ev
libosgEarth.so.0:_ZN8osgEarth4Util7MapInfo6setMapEPKNS_3MapE
libosgEarth.so.0:_ZN8osgEarth4Util7MapInfoC1EPKNS_3MapE
libosgEarth.so.0:_ZN8osgEarth4Util7MapInfoC1ERKS1_
libosgEarth.so.0:_ZN8osgEarth4Util7MapInfoC2EPKNS_3MapE
libosgEarth.so.0:_ZN8osgEarth4Util7MapInfoC2ERKS1_
libosgEarth.so.0:_ZN8osgEarth4Util7Metrics10setEnabledEb
libosgEarth.so.0:_ZN8osgEarth4Util7Metrics3runERN9osgViewer10ViewerBaseE
libosgEarth.so.0:_ZN8osgEarth4Util7Metrics5frameEv
libosgEarth.so.0:_ZN8osgEarth4Util7Metrics7enabledEv
libosgEarth.so.0:_ZN8osgEarth4Util7Session16getResourceCacheEv
libosgEarth.so.0:_ZN8osgEarth4Util7Session16getStateSetCacheEv
libosgEarth.so.0:_ZN8osgEarth4Util7Session16initScriptEngineEv
libosgEarth.so.0:_ZN8osgEarth4Util7Session16setFeatureSourceEPNS_13FeatureSourceE
libosgEarth.so.0:_ZN8osgEarth4Util7Session16setResourceCacheEPNS0_13ResourceCacheE
libosgEarth.so.0:_ZN8osgEarth4Util7Session4initEv
libosgEarth.so.0:_ZN8osgEarth4Util7Session9setStylesEPNS_10StyleSheetE
libosgEarth.so.0:_ZN8osgEarth4Util7SessionC1EPKNS_3MapE
libosgEarth.so.0:_ZN8osgEarth4Util7SessionC1EPKNS_3MapEPNS_10StyleSheetE
libosgEarth.so.0:_ZN8osgEarth4Util7SessionC1EPKNS_3MapEPNS_10StyleSheetEPNS_13FeatureSourceEPKN5osgDB7OptionsE
libosgEarth.so.0:_ZN8osgEarth4Util7SessionC1ERKS1_RKN3osg6CopyOpE
libosgEarth.so.0:_ZN8osgEarth4Util7SessionC1Ev
libosgEarth.so.0:_ZN8osgEarth4Util7SessionC2EPKNS_3MapE
libosgEarth.so.0:_ZN8osgEarth4Util7SessionC2EPKNS_3MapEPNS_10StyleSheetE
libosgEarth.so.0:_ZN8osgEarth4Util7SessionC2EPKNS_3MapEPNS_10StyleSheetEPNS_13FeatureSourceEPKN5osgDB7OptionsE
libosgEarth.so.0:_ZN8osgEarth4Util7SessionC2ERKS1_RKN3osg6CopyOpE
libosgEarth.so.0:_ZN8osgEarth4Util7SessionC2Ev
libosgEarth.so.0:_ZN8osgEarth4Util7SessionD0Ev
libosgEarth.so.0:_ZN8osgEarth4Util7SessionD1Ev
libosgEarth.so.0:_ZN8osgEarth4Util7SessionD2Ev
libosgEarth.so.0:_ZN8osgEarth4Util7ShadersC1Ev
libosgEarth.so.0:_ZN8osgEarth4Util7ShadersC2Ev
libosgEarth.so.0:_ZN8osgEarth4Util7XmlNodeC1Ev
libosgEarth.so.0:_ZN8osgEarth4Util7XmlNodeC2Ev
libosgEarth.so.0:_ZN8osgEarth4Util7XmlTextC1ERKNSt7__cxx1112basic_stringIcSt11char_traitsIcESaIcEEE
libosgEarth.so.0:_ZN8osgEarth4Util7XmlTextC2ERKNSt7__cxx1112basic_stringIcSt11char_traitsIcESaIcEEE
libosgEarth.so.0:_ZN8osgEarth4Util7toLowerERKNSt7__cxx1112basic_stringIcSt11char_traitsIcESaIcEEE
libosgEarth.so.0:_ZN8osgEarth4Util8Clamping10setHeightsEPN3osg8GeometryEPNS2_13TemplateArrayIfLNS2_5Array4TypeE7ELi1ELi5126EEE
libosgEarth.so.0:_ZN8osgEarth4Util8Clamping22installHasAttrsUniformEPN3osg8StateSetE
libosgEarth.so.0:_ZN8osgEarth4Util8Clamping25applyDefaultClampingAttrsEPN3osg4NodeEf
libosgEarth.so.0:_ZN8osgEarth4Util8Clamping25applyDefaultClampingAttrsEPN3osg8GeometryEf
libosgEarth.so.0:_ZN8osgEarth4Util8Controls11ControlNode16TravSpecificDataC1Ev
libosgEarth.so.0:_ZN8osgEarth4Util8Controls11ControlNode16TravSpecificDataC2Ev
libosgEarth.so.0:_ZN8osgEarth4Util8Controls11ControlNode8traverseERN3osg11NodeVisitorE
libosgEarth.so.0:_ZN8osgEarth4Util8Controls11ControlNodeC1EPNS1_7ControlEf
libosgEarth.so.0:_ZN8osgEarth4Util8Controls11ControlNodeC2EPNS1_7ControlEf
libosgEarth.so.0:_ZN8osgEarth4Util8Controls12ImageControl10setTextureEPN3osg7TextureE
libosgEarth.so.0:_ZN8osgEarth4Util8Controls12ImageControl11setRotationERKNS_5AngleE
libosgEarth.so.0:_ZN8osgEarth4Util8Controls12ImageControl16getImageStateSetEv
libosgEarth.so.0:_ZN8osgEarth4Util8Controls12ImageControl21setFixSizeForRotationEb
libosgEarth.so.0:_ZN8osgEarth4Util8Controls12ImageControl4drawERKNS1_14ControlContextE
libosgEarth.so.0:_ZN8osgEarth4Util8Controls12ImageControl8calcSizeERKNS1_14ControlContextERN3osg5Vec2fE
libosgEarth.so.0:_ZN8osgEarth4Util8Controls12ImageControl8setImageEPN3osg5ImageE
libosgEarth.so.0:_ZN8osgEarth4Util8Controls12ImageControlC1EPN3osg5ImageE
libosgEarth.so.0:_ZN8osgEarth4Util8Controls12ImageControlC1EPN3osg7TextureE
libosgEarth.so.0:_ZN8osgEarth4Util8Controls12ImageControlC2EPN3osg5ImageE
libosgEarth.so.0:_ZN8osgEarth4Util8Controls12ImageControlC2EPN3osg7TextureE
libosgEarth.so.0:_ZN8osgEarth4Util8Controls12LabelControl11setEncodingEN7osgText6String8EncodingE
libosgEarth.so.0:_ZN8osgEarth4Util8Controls12LabelControl11setFontSizeEf
libosgEarth.so.0:_ZN8osgEarth4Util8Controls12LabelControl12setHaloColorERKN3osg5Vec4fE
libosgEarth.so.0:_ZN8osgEarth4Util8Controls12LabelControl19setTextBackdropTypeEN7osgText4Text12BackdropTypeE
libosgEarth.so.0:_ZN8osgEarth4Util8Controls12LabelControl21setTextBackdropOffsetEf
libosgEarth.so.0:_ZN8osgEarth4Util8Controls12LabelControl29setTextBackdropImplementationEN7osgText4Text22BackdropImplementationE
libosgEarth.so.0:_ZN8osgEarth4Util8Controls12LabelControl4drawERKNS1_14ControlContextE
libosgEarth.so.0:_ZN8osgEarth4Util8Controls12LabelControl7setFontEPN7osgText4FontE
libosgEarth.so.0:_ZN8osgEarth4Util8Controls12LabelControl7setTextERKNSt7__cxx1112basic_stringIcSt11char_traitsIcESaIcEEE
libosgEarth.so.0:_ZN8osgEarth4Util8Controls12LabelControl8calcSizeERKNS1_14ControlContextERN3osg5Vec2fE
libosgEarth.so.0:_ZN8osgEarth4Util8Controls12LabelControlC1EPNS1_7ControlERKN3osg5Vec4fEf
libosgEarth.so.0:_ZN8osgEarth4Util8Controls12LabelControlC1EPNS1_7ControlEfRKN3osg5Vec4fE
libosgEarth.so.0:_ZN8osgEarth4Util8Controls12LabelControlC1ERKNSt7__cxx1112basic_stringIcSt11char_traitsIcESaIcEEERKN3osg5Vec4fEf
libosgEarth.so.0:_ZN8osgEarth4Util8Controls12LabelControlC1ERKNSt7__cxx1112basic_stringIcSt11char_traitsIcESaIcEEEfRKN3osg5Vec4fE
libosgEarth.so.0:_ZN8osgEarth4Util8Controls12LabelControlC2EPNS1_7ControlERKN3osg5Vec4fEf
libosgEarth.so.0:_ZN8osgEarth4Util8Controls12LabelControlC2EPNS1_7ControlEfRKN3osg5Vec4fE
libosgEarth.so.0:_ZN8osgEarth4Util8Controls12LabelControlC2ERKNSt7__cxx1112basic_stringIcSt11char_traitsIcESaIcEEERKN3osg5Vec4fEf
libosgEarth.so.0:_ZN8osgEarth4Util8Controls12LabelControlC2ERKNSt7__cxx1112basic_stringIcSt11char_traitsIcESaIcEEEfRKN3osg5Vec4fE
libosgEarth.so.0:_ZN8osgEarth4Util8Controls12RoundedFrame4drawERKNS1_14ControlContextE
libosgEarth.so.0:_ZN8osgEarth4Util8Controls12RoundedFrameC1Ev
libosgEarth.so.0:_ZN8osgEarth4Util8Controls12RoundedFrameC2Ev
libosgEarth.so.0:_ZN8osgEarth4Util8Controls13ButtonControlC1ERKNSt7__cxx1112basic_stringIcSt11char_traitsIcESaIcEEEPNS1_19ControlEventHandlerE
libosgEarth.so.0:_ZN8osgEarth4Util8Controls13ButtonControlC1ERKNSt7__cxx1112basic_stringIcSt11char_traitsIcESaIcEEERKN3osg5Vec4fESE_SE_fPNS1_19ControlEventHandlerE
libosgEarth.so.0:_ZN8osgEarth4Util8Controls13ButtonControlC1ERKNSt7__cxx1112basic_stringIcSt11char_traitsIcESaIcEEEfRKN3osg5Vec4fESE_SE_PNS1_19ControlEventHandlerE
libosgEarth.so.0:_ZN8osgEarth4Util8Controls13ButtonControlC2ERKNSt7__cxx1112basic_stringIcSt11char_traitsIcESaIcEEEPNS1_19ControlEventHandlerE
libosgEarth.so.0:_ZN8osgEarth4Util8Controls13ButtonControlC2ERKNSt7__cxx1112basic_stringIcSt11char_traitsIcESaIcEEERKN3osg5Vec4fESE_SE_fPNS1_19ControlEventHandlerE
libosgEarth.so.0:_ZN8osgEarth4Util8Controls13ButtonControlC2ERKNSt7__cxx1112basic_stringIcSt11char_traitsIcESaIcEEEfRKN3osg5Vec4fESE_SE_PNS1_19ControlEventHandlerE
libosgEarth.so.0:_ZN8osgEarth4Util8Controls13ControlCanvas11getOrCreateEPN3osg4ViewE
libosgEarth.so.0:_ZN8osgEarth4Util8Controls13ControlCanvas13EventCallback12handleResizeEPN3osg4ViewEPS2_
libosgEarth.so.0:_ZN8osgEarth4Util8Controls13ControlCanvas13EventCallbackC1EPS2_
libosgEarth.so.0:_ZN8osgEarth4Util8Controls13ControlCanvas13EventCallbackC2EPS2_
libosgEarth.so.0:_ZN8osgEarth4Util8Controls13ControlCanvas13EventCallbackclEPN3osg4NodeEPNS4_11NodeVisitorE
libosgEarth.so.0:_ZN8osgEarth4Util8Controls13ControlCanvas13removeControlEPNS1_7ControlE
libosgEarth.so.0:_ZN8osgEarth4Util8Controls13ControlCanvas14addControlImplEPNS1_7ControlE
libosgEarth.so.0:_ZN8osgEarth4Util8Controls13ControlCanvas17getControlAtMouseEff
libosgEarth.so.0:_ZN8osgEarth4Util8Controls13ControlCanvas17setControlContextERKNS1_14ControlContextE
libosgEarth.so.0:_ZN8osgEarth4Util8Controls13ControlCanvas26setAllowControlNodeOverlapEb
libosgEarth.so.0:_ZN8osgEarth4Util8Controls13ControlCanvas3getEPN3osg4ViewE
libosgEarth.so.0:_ZN8osgEarth4Util8Controls13ControlCanvas4initEv
libosgEarth.so.0:_ZN8osgEarth4Util8Controls13ControlCanvas6handleERKN5osgGA15GUIEventAdapterERNS3_16GUIActionAdapterE
libosgEarth.so.0:_ZN8osgEarth4Util8Controls13ControlCanvas6updateEPKN3osg10FrameStampE
libosgEarth.so.0:_ZN8osgEarth4Util8Controls13ControlCanvas8traverseERN3osg11NodeVisitorE
libosgEarth.so.0:_ZN8osgEarth4Util8Controls13ControlCanvasC1Ev
libosgEarth.so.0:_ZN8osgEarth4Util8Controls13ControlCanvasC2Ev
libosgEarth.so.0:_ZN8osgEarth4Util8Controls13ControlCanvasD0Ev
libosgEarth.so.0:_ZN8osgEarth4Util8Controls13ControlCanvasD1Ev
libosgEarth.so.0:_ZN8osgEarth4Util8Controls13ControlCanvasD2Ev
libosgEarth.so.0:_ZN8osgEarth4Util8Controls14ControlNodeBin4drawERKNS1_14ControlContextEbi
libosgEarth.so.0:_ZN8osgEarth4Util8Controls14ControlNodeBin7addNodeEPNS1_11ControlNodeE
libosgEarth.so.0:_ZN8osgEarth4Util8Controls14ControlNodeBin9setFadingEb
libosgEarth.so.0:_ZN8osgEarth4Util8Controls14ControlNodeBinC1Ev
libosgEarth.so.0:_ZN8osgEarth4Util8Controls14ControlNodeBinC2Ev
libosgEarth.so.0:_ZN8osgEarth4Util8Controls14HSliderControl16fireValueChangedEPNS1_19ControlEventHandlerE
libosgEarth.so.0:_ZN8osgEarth4Util8Controls14HSliderControl4drawERKNS1_14ControlContextE
libosgEarth.so.0:_ZN8osgEarth4Util8Controls14HSliderControl6handleERKN5osgGA15GUIEventAdapterERNS3_16GUIActionAdapterERNS1_14ControlContextE
libosgEarth.so.0:_ZN8osgEarth4Util8Controls14HSliderControl6setMaxEfb
libosgEarth.so.0:_ZN8osgEarth4Util8Controls14HSliderControl6setMinEfb
libosgEarth.so.0:_ZN8osgEarth4Util8Controls14HSliderControl8setValueEfb
libosgEarth.so.0:_ZN8osgEarth4Util8Controls14HSliderControlC1EfffPNS1_19ControlEventHandlerE
libosgEarth.so.0:_ZN8osgEarth4Util8Controls14HSliderControlC2EfffPNS1_19ControlEventHandlerE
libosgEarth.so.0:_ZN8osgEarth4Util8Controls15CheckBoxControl16fireValueChangedEPNS1_19ControlEventHandlerE
libosgEarth.so.0:_ZN8osgEarth4Util8Controls15CheckBoxControl4drawERKNS1_14ControlContextE
libosgEarth.so.0:_ZN8osgEarth4Util8Controls15CheckBoxControl6handleERKN5osgGA15GUIEventAdapterERNS3_16GUIActionAdapterERNS1_14ControlContextE
libosgEarth.so.0:_ZN8osgEarth4Util8Controls15CheckBoxControl8setValueEbb
libosgEarth.so.0:_ZN8osgEarth4Util8Controls15CheckBoxControlC1Eb
libosgEarth.so.0:_ZN8osgEarth4Util8Controls15CheckBoxControlC1EbPNS1_19ControlEventHandlerE
libosgEarth.so.0:_ZN8osgEarth4Util8Controls15CheckBoxControlC2Eb
libosgEarth.so.0:_ZN8osgEarth4Util8Controls15CheckBoxControlC2EbPNS1_19ControlEventHandlerE
libosgEarth.so.0:_ZN8osgEarth4Util8Controls4Grid10getControlEii
libosgEarth.so.0:_ZN8osgEarth4Util8Controls4Grid11addControlsERKSt6vectorIN3osg7ref_ptrINS1_7ControlEEESaIS7_EE
libosgEarth.so.0:_ZN8osgEarth4Util8Controls4Grid11getChildrenERSt6vectorIPNS1_7ControlESaIS5_EE
libosgEarth.so.0:_ZN8osgEarth4Util8Controls4Grid13clearControlsEv
libosgEarth.so.0:_ZN8osgEarth4Util8Controls4Grid14addControlImplEPNS1_7ControlEi
libosgEarth.so.0:_ZN8osgEarth4Util8Controls4Grid14setControlImplEiiPNS1_7ControlE
libosgEarth.so.0:_ZN8osgEarth4Util8Controls4Grid15expandToIncludeEii
libosgEarth.so.0:_ZN8osgEarth4Util8Controls4Grid4drawERKNS1_14ControlContextE
libosgEarth.so.0:_ZN8osgEarth4Util8Controls4Grid6getRowEj
libosgEarth.so.0:_ZN8osgEarth4Util8Controls4Grid7calcPosERKNS1_14ControlContextERKN3osg5Vec2fES9_
libosgEarth.so.0:_ZN8osgEarth4Util8Controls4Grid8calcFillERKNS1_14ControlContextE
libosgEarth.so.0:_ZN8osgEarth4Util8Controls4Grid8calcSizeERKNS1_14ControlContextERN3osg5Vec2fE
libosgEarth.so.0:_ZN8osgEarth4Util8Controls4GridC1ERKNS1_7Control9AlignmentES6_RKNS1_6GutterEf
libosgEarth.so.0:_ZN8osgEarth4Util8Controls4GridC1Ev
libosgEarth.so.0:_ZN8osgEarth4Util8Controls4GridC2ERKNS1_7Control9AlignmentES6_RKNS1_6GutterEf
libosgEarth.so.0:_ZN8osgEarth4Util8Controls4GridC2Ev
libosgEarth.so.0:_ZN8osgEarth4Util8Controls4HBox13clearControlsEv
libosgEarth.so.0:_ZN8osgEarth4Util8Controls4HBox14addControlImplEPNS1_7ControlEi
libosgEarth.so.0:_ZN8osgEarth4Util8Controls4HBox4drawERKNS1_14ControlContextE
libosgEarth.so.0:_ZN8osgEarth4Util8Controls4HBox7calcPosERKNS1_14ControlContextERKN3osg5Vec2fES9_
libosgEarth.so.0:_ZN8osgEarth4Util8Controls4HBox8calcFillERKNS1_14ControlContextE
libosgEarth.so.0:_ZN8osgEarth4Util8Controls4HBox8calcSizeERKNS1_14ControlContextERN3osg5Vec2fE
libosgEarth.so.0:_ZN8osgEarth4Util8Controls4HBoxC1ERKNS1_7Control9AlignmentES6_RKNS1_6GutterEf
libosgEarth.so.0:_ZN8osgEarth4Util8Controls4HBoxC1Ev
libosgEarth.so.0:_ZN8osgEarth4Util8Controls4HBoxC2ERKNS1_7Control9AlignmentES6_RKNS1_6GutterEf
libosgEarth.so.0:_ZN8osgEarth4Util8Controls4HBoxC2Ev
libosgEarth.so.0:_ZN8osgEarth4Util8Controls4VBox13clearControlsEv
libosgEarth.so.0:_ZN8osgEarth4Util8Controls4VBox14addControlImplEPNS1_7ControlEi
libosgEarth.so.0:_ZN8osgEarth4Util8Controls4VBox4drawERKNS1_14ControlContextE
libosgEarth.so.0:_ZN8osgEarth4Util8Controls4VBox7calcPosERKNS1_14ControlContextERKN3osg5Vec2fES9_
libosgEarth.so.0:_ZN8osgEarth4Util8Controls4VBox8calcFillERKNS1_14ControlContextE
libosgEarth.so.0:_ZN8osgEarth4Util8Controls4VBox8calcSizeERKNS1_14ControlContextERN3osg5Vec2fE
libosgEarth.so.0:_ZN8osgEarth4Util8Controls4VBoxC1ERKNS1_7Control9AlignmentES6_RKNS1_6GutterEf
libosgEarth.so.0:_ZN8osgEarth4Util8Controls4VBoxC1Ev
libosgEarth.so.0:_ZN8osgEarth4Util8Controls4VBoxC2ERKNS1_7Control9AlignmentES6_RKNS1_6GutterEf
libosgEarth.so.0:_ZN8osgEarth4Util8Controls4VBoxC2Ev
libosgEarth.so.0:_ZN8osgEarth4Util8Controls5Frame4drawERKNS1_14ControlContextE
libosgEarth.so.0:_ZN8osgEarth4Util8Controls5Frame7calcPosERKNS1_14ControlContextERKN3osg5Vec2fES9_
libosgEarth.so.0:_ZN8osgEarth4Util8Controls5FrameC1Ev
libosgEarth.so.0:_ZN8osgEarth4Util8Controls5FrameC2Ev
libosgEarth.so.0:_ZN8osgEarth4Util8Controls7Control10setOpacityEf
libosgEarth.so.0:_ZN8osgEarth4Util8Controls7Control10setPaddingENS2_4SideEf
libosgEarth.so.0:_ZN8osgEarth4Util8Controls7Control10setPaddingERKNS1_6GutterE
libosgEarth.so.0:_ZN8osgEarth4Util8Controls7Control10setPaddingEf
libosgEarth.so.0:_ZN8osgEarth4Util8Controls7Control10setVisibleEb
libosgEarth.so.0:_ZN8osgEarth4Util8Controls7Control11setPositionEff
libosgEarth.so.0:_ZN8osgEarth4Util8Controls7Control11setVertFillEbf
libosgEarth.so.0:_ZN8osgEarth4Util8Controls7Control12setBackColorERKN3osg5Vec4fE
libosgEarth.so.0:_ZN8osgEarth4Util8Controls7Control12setForeColorERKN3osg5Vec4fE
libosgEarth.so.0:_ZN8osgEarth4Util8Controls7Control12setHorizFillEbf
libosgEarth.so.0:_ZN8osgEarth4Util8Controls7Control12setVertAlignERKNS2_9AlignmentE
libosgEarth.so.0:_ZN8osgEarth4Util8Controls7Control13setHorizAlignERKNS2_9AlignmentE
libosgEarth.so.0:_ZN8osgEarth4Util8Controls7Control14setActiveColorERKN3osg5Vec4fE
libosgEarth.so.0:_ZN8osgEarth4Util8Controls7Control14setBorderColorERKN3osg5Vec4fE
libosgEarth.so.0:_ZN8osgEarth4Util8Controls7Control14setBorderWidthEf
libosgEarth.so.0:_ZN8osgEarth4Util8Controls7Control15addEventHandlerEPNS1_19ControlEventHandlerEb
libosgEarth.so.0:_ZN8osgEarth4Util8Controls7Control15getGeomStateSetEv
libosgEarth.so.0:_ZN8osgEarth4Util8Controls7Control4drawERKNS1_14ControlContextE
libosgEarth.so.0:_ZN8osgEarth4Util8Controls7Control4initEv
libosgEarth.so.0:_ZN8osgEarth4Util8Controls7Control4setXEf
libosgEarth.so.0:_ZN8osgEarth4Util8Controls7Control4setYEf
libosgEarth.so.0:_ZN8osgEarth4Util8Controls7Control5dirtyEv
libosgEarth.so.0:_ZN8osgEarth4Util8Controls7Control6handleERKN5osgGA15GUIEventAdapterERNS3_16GUIActionAdapterERNS1_14ControlContextE
libosgEarth.so.0:_ZN8osgEarth4Util8Controls7Control7calcPosERKNS1_14ControlContextERKN3osg5Vec2fES9_
libosgEarth.so.0:_ZN8osgEarth4Util8Controls7Control7setSizeEff
libosgEarth.so.0:_ZN8osgEarth4Util8Controls7Control8calcSizeERKNS1_14ControlContextERN3osg5Vec2fE
libosgEarth.so.0:_ZN8osgEarth4Util8Controls7Control8setAlignERKNS2_9AlignmentES5_
libosgEarth.so.0:_ZN8osgEarth4Util8Controls7Control8setWidthEf
libosgEarth.so.0:_ZN8osgEarth4Util8Controls7Control9setActiveEb
libosgEarth.so.0:_ZN8osgEarth4Util8Controls7Control9setHeightEf
libosgEarth.so.0:_ZN8osgEarth4Util8Controls7Control9setMarginENS2_4SideEf
libosgEarth.so.0:_ZN8osgEarth4Util8Controls7Control9setMarginERKNS1_6GutterE
libosgEarth.so.0:_ZN8osgEarth4Util8Controls7ControlC1ERKNS2_9AlignmentES5_RKNS1_6GutterE
libosgEarth.so.0:_ZN8osgEarth4Util8Controls7ControlC1Ev
libosgEarth.so.0:_ZN8osgEarth4Util8Controls7ControlC2ERKNS2_9AlignmentES5_RKNS1_6GutterE
libosgEarth.so.0:_ZN8osgEarth4Util8Controls7ControlC2Ev
libosgEarth.so.0:_ZN8osgEarth4Util8Controls9Container10setVisibleEb
libosgEarth.so.0:_ZN8osgEarth4Util8Controls9Container11addControlsERKSt6vectorIN3osg7ref_ptrINS1_7ControlEEESaIS7_EE
libosgEarth.so.0:_ZN8osgEarth4Util8Controls9Container11getChildrenERSt6vectorIPNS1_7ControlESaIS5_EE
libosgEarth.so.0:_ZN8osgEarth4Util8Controls9Container15setChildSpacingEf
libosgEarth.so.0:_ZN8osgEarth4Util8Controls9Container16applyChildAlignsEv
libosgEarth.so.0:_ZN8osgEarth4Util8Controls9Container17setChildVertAlignENS1_7Control9AlignmentE
libosgEarth.so.0:_ZN8osgEarth4Util8Controls9Container18setChildHorizAlignENS1_7Control9AlignmentE
libosgEarth.so.0:_ZN8osgEarth4Util8Controls9Container4drawERKNS1_14ControlContextE
libosgEarth.so.0:_ZN8osgEarth4Util8Controls9Container6handleERKN5osgGA15GUIEventAdapterERNS3_16GUIActionAdapterERNS1_14ControlContextE
libosgEarth.so.0:_ZN8osgEarth4Util8Controls9Container7calcPosERKNS1_14ControlContextERKN3osg5Vec2fES9_
libosgEarth.so.0:_ZN8osgEarth4Util8Controls9Container8calcFillERKNS1_14ControlContextE
libosgEarth.so.0:_ZN8osgEarth4Util8Controls9Container8calcSizeERKNS1_14ControlContextERN3osg5Vec2fE
libosgEarth.so.0:_ZN8osgEarth4Util8Controls9ContainerC1ERKNS1_7Control9AlignmentES6_RKNS1_6GutterEf
libosgEarth.so.0:_ZN8osgEarth4Util8Controls9ContainerC1Ev
libosgEarth.so.0:_ZN8osgEarth4Util8Controls9ContainerC2ERKNS1_7Control9AlignmentES6_RKNS1_6GutterEf
libosgEarth.so.0:_ZN8osgEarth4Util8Controls9ContainerC2Ev
libosgEarth.so.0:_ZN8osgEarth4Util8CssUtils10readConfigERKNSt7__cxx1112basic_stringIcSt11char_traitsIcESaIcEEES9_RNS2_4listINS_6ConfigESaISB_EEE
libosgEarth.so.0:_ZN8osgEarth4Util8CssUtils5splitERKNSt7__cxx1112basic_stringIcSt11char_traitsIcESaIcEEERSt6vectorIS7_SaIS7_EE
libosgEarth.so.0:_ZN8osgEarth4Util8OgrUtils10encodePartEPKNS_8GeometryE18OGRwkbGeometryType
libosgEarth.so.0:_ZN8osgEarth4Util8OgrUtils11encodeShapeEPKNS_8GeometryE18OGRwkbGeometryTypeS5_
libosgEarth.so.0:_ZN8osgEarth4Util8OgrUtils13createFeatureEPvPKNS_14FeatureProfileEb
libosgEarth.so.0:_ZN8osgEarth4Util8OgrUtils13createFeatureEPvPKNS_16SpatialReferenceEb
libosgEarth.so.0:_ZN8osgEarth4Util8OgrUtils13createPolygonEPvb
libosgEarth.so.0:_ZN8osgEarth4Util8OgrUtils14createGeometryEPvb
libosgEarth.so.0:_ZN8osgEarth4Util8OgrUtils16getAttributeTypeE12OGRFieldType
libosgEarth.so.0:_ZN8osgEarth4Util8OgrUtils17createOgrGeometryEPKNS_8GeometryE18OGRwkbGeometryType
libosgEarth.so.0:_ZN8osgEarth4Util8OgrUtils18getOGRGeometryTypeEPKNS_8GeometryE
libosgEarth.so.0:_ZN8osgEarth4Util8OgrUtils18getOGRGeometryTypeERKNS_8Geometry4TypeE
libosgEarth.so.0:_ZN8osgEarth4Util8OgrUtils8populateEPvPNS_8GeometryEi
libosgEarth.so.0:_ZN8osgEarth4Util8OgrUtils9createTINEPv
libosgEarth.so.0:_ZN8osgEarth4Util8Resource11mergeConfigERKNS_6ConfigE
libosgEarth.so.0:_ZN8osgEarth4Util8ResourceC1ERKNS_6ConfigE
libosgEarth.so.0:_ZN8osgEarth4Util8ResourceC2ERKNS_6ConfigE
libosgEarth.so.0:_ZN8osgEarth4Util8TaskList4loadERKNSt7__cxx1112basic_stringIcSt11char_traitsIcESaIcEEE
libosgEarth.so.0:_ZN8osgEarth4Util8TaskList4saveERKNSt7__cxx1112basic_stringIcSt11char_traitsIcESaIcEEE
libosgEarth.so.0:_ZN8osgEarth4Util8TaskList7getKeysEv
libosgEarth.so.0:_ZN8osgEarth4Util8TaskListC1EPKNS_7ProfileE
libosgEarth.so.0:_ZN8osgEarth4Util8TaskListC2EPKNS_7ProfileE
libosgEarth.so.0:_ZN8osgEarth4Util8ciEqualsERKNSt7__cxx1112basic_stringIcSt11char_traitsIcESaIcEEES8_RKSt6locale
libosgEarth.so.0:_ZN8osgEarth4Util8endsWithERKNSt7__cxx1112basic_stringIcSt11char_traitsIcESaIcEEES8_bRKSt6locale
libosgEarth.so.0:_ZN8osgEarth4Util8getTokenERKNSt7__cxx1112basic_stringIcSt11char_traitsIcESaIcEEEjS8_
libosgEarth.so.0:_ZN8osgEarth4Util9ClipSpace11clampToLeftERNS_8GeoPointE
libosgEarth.so.0:_ZN8osgEarth4Util9ClipSpace11clampToLeftERNS_8GeoPointERKS2_
libosgEarth.so.0:_ZN8osgEarth4Util9ClipSpace13clampToBottomERNS_8GeoPointE
libosgEarth.so.0:_ZN8osgEarth4Util9ClipSpace13clampToBottomERNS_8GeoPointERKS2_
libosgEarth.so.0:_ZN8osgEarth4Util9ClipSpaceC1ERKN3osg7MatrixdES5_
libosgEarth.so.0:_ZN8osgEarth4Util9ClipSpaceC2ERKN3osg7MatrixdES5_
libosgEarth.so.0:_ZN8osgEarth4Util9MetaImage4TileC1Ev
libosgEarth.so.0:_ZN8osgEarth4Util9MetaImage4TileC2Ev
libosgEarth.so.0:_ZN8osgEarth4Util9MetaImage8setImageEiiPN3osg5ImageERKNS2_7MatrixdE
libosgEarth.so.0:_ZN8osgEarth4Util9PagedNode11setupPagingEv
libosgEarth.so.0:_ZN8osgEarth4Util9PagedNode12setRangeModeEN3osg3LOD9RangeModeE
libosgEarth.so.0:_ZN8osgEarth4Util9PagedNode7setNodeEPN3osg4NodeE
libosgEarth.so.0:_ZN8osgEarth4Util9PagedNodeC1Ev
libosgEarth.so.0:_ZN8osgEarth4Util9PagedNodeC2Ev
libosgEarth.so.0:_ZN8osgEarth4Util9RTTPicker11insertChildEjPN3osg4NodeE
libosgEarth.so.0:_ZN8osgEarth4Util9RTTPicker11removeChildEPN3osg4NodeE
libosgEarth.so.0:_ZN8osgEarth4Util9RTTPicker11setCullMaskEj
libosgEarth.so.0:_ZN8osgEarth4Util9RTTPicker12replaceChildEPN3osg4NodeES4_
libosgEarth.so.0:_ZN8osgEarth4Util9RTTPicker16createRTTProgramEv
libosgEarth.so.0:_ZN8osgEarth4Util9RTTPicker18checkForPickResultERNS1_4PickEj
libosgEarth.so.0:_ZN8osgEarth4Util9RTTPicker18getOrCreateTextureEPN3osg4ViewE
libosgEarth.so.0:_ZN8osgEarth4Util9RTTPicker22getOrCreatePickContextEPN3osg4ViewE
libosgEarth.so.0:_ZN8osgEarth4Util9RTTPicker4pickEPN3osg4ViewEff
libosgEarth.so.0:_ZN8osgEarth4Util9RTTPicker4pickEPN3osg4ViewEffPNS_6Picker8CallbackE
libosgEarth.so.0:_ZN8osgEarth4Util9RTTPicker6handleERKN5osgGA15GUIEventAdapterERNS2_16GUIActionAdapterE
libosgEarth.so.0:_ZN8osgEarth4Util9RTTPicker8addChildEPN3osg4NodeE
libosgEarth.so.0:_ZN8osgEarth4Util9RTTPicker8runPicksEj
libosgEarth.so.0:_ZN8osgEarth4Util9RTTPickerC1Ei
libosgEarth.so.0:_ZN8osgEarth4Util9RTTPickerC2Ei
libosgEarth.so.0:_ZN8osgEarth4Util9RTTPickerD0Ev
libosgEarth.so.0:_ZN8osgEarth4Util9RTTPickerD1Ev
libosgEarth.so.0:_ZN8osgEarth4Util9RTTPickerD2Ev
libosgEarth.so.0:_ZN8osgEarth4Util9Shadowing14isShadowCameraEPKN3osg6CameraE
libosgEarth.so.0:_ZN8osgEarth4Util9Shadowing17setIsShadowCameraEPN3osg6CameraE
libosgEarth.so.0:_ZN8osgEarth4Util9TileImageC1EPN3osg5ImageERKNS_7TileKeyE
libosgEarth.so.0:_ZN8osgEarth4Util9TileImageC2EPN3osg5ImageERKNS_7TileKeyE
libosgEarth.so.0:_ZN8osgEarth4Util9isArchiveERKNSt7__cxx1112basic_stringIcSt11char_traitsIcESaIcEEE
libosgEarth.so.0:_ZN8osgEarth4Util9replaceInERNSt7__cxx1112basic_stringIcSt11char_traitsIcESaIcEEERKS6_S9_
libosgEarth.so.0:_ZN8osgEarth4Util9touchFileERKNSt7__cxx1112basic_stringIcSt11char_traitsIcESaIcEEE
libosgEarth.so.0:_ZN8osgEarth4Wind8setPointERKNS_8GeoPointE
libosgEarth.so.0:_ZN8osgEarth4WindC1ERKNS_6ConfigE
libosgEarth.so.0:_ZN8osgEarth4WindC1Ev
libosgEarth.so.0:_ZN8osgEarth4WindC2ERKNS_6ConfigE
libosgEarth.so.0:_ZN8osgEarth4WindC2Ev
libosgEarth.so.0:_ZN8osgEarth5Cache12makeCacheKeyERKNSt7__cxx1112basic_stringIcSt11char_traitsIcESaIcEEES8_
libosgEarth.so.0:_ZN8osgEarth5Cache6getBinERKNSt7__cxx1112basic_stringIcSt11char_traitsIcESaIcEEE
libosgEarth.so.0:_ZN8osgEarth5Cache9removeBinEPNS_8CacheBinE
libosgEarth.so.0:_ZN8osgEarth5CacheC1ERKNS_12CacheOptionsE
libosgEarth.so.0:_ZN8osgEarth5CacheC1ERKS0_RKN3osg6CopyOpE
libosgEarth.so.0:_ZN8osgEarth5CacheC2ERKNS_12CacheOptionsE
libosgEarth.so.0:_ZN8osgEarth5CacheC2ERKS0_RKN3osg6CopyOpE
libosgEarth.so.0:_ZN8osgEarth5CacheD0Ev
libosgEarth.so.0:_ZN8osgEarth5CacheD1Ev
libosgEarth.so.0:_ZN8osgEarth5CacheD2Ev
libosgEarth.so.0:_ZN8osgEarth5Color7fromHSLERKN3osg5Vec4fE
libosgEarth.so.0:_ZN8osgEarth5ColorC1ERKNSt7__cxx1112basic_stringIcSt11char_traitsIcESaIcEEENS0_6FormatE
libosgEarth.so.0:_ZN8osgEarth5ColorC1ERKS0_f
libosgEarth.so.0:_ZN8osgEarth5ColorC1EjNS0_6FormatE
libosgEarth.so.0:_ZN8osgEarth5ColorC2ERKNSt7__cxx1112basic_stringIcSt11char_traitsIcESaIcEEENS0_6FormatE
libosgEarth.so.0:_ZN8osgEarth5ColorC2ERKS0_f
libosgEarth.so.0:_ZN8osgEarth5ColorC2EjNS0_6FormatE
libosgEarth.so.0:_ZN8osgEarth5Debug23copySubImageAndColorizeEPKN3osg5ImageEPS2_jjRKNS1_5Vec4fE
libosgEarth.so.0:_ZN8osgEarth5Geoid14setHeightFieldEPN3osg11HeightFieldE
libosgEarth.so.0:_ZN8osgEarth5Geoid7setNameERKNSt7__cxx1112basic_stringIcSt11char_traitsIcESaIcEEE
libosgEarth.so.0:_ZN8osgEarth5Geoid8setUnitsERKNS_5UnitsE
libosgEarth.so.0:_ZN8osgEarth5Geoid8validateEv
libosgEarth.so.0:_ZN8osgEarth5GeoidC1Ev
libosgEarth.so.0:_ZN8osgEarth5GeoidC2Ev
libosgEarth.so.0:_ZN8osgEarth5Layer10layerHintsEv
libosgEarth.so.0:_ZN8osgEarth5Layer10setCacheIDERKNSt7__cxx1112basic_stringIcSt11char_traitsIcESaIcEEE
libosgEarth.so.0:_ZN8osgEarth5Layer10setEnabledEb
libosgEarth.so.0:_ZN8osgEarth5Layer11addCallbackEPNS_13LayerCallbackE
libosgEarth.so.0:_ZN8osgEarth5Layer12bumpRevisionEv
libosgEarth.so.0:_ZN8osgEarth5Layer12fireCallbackEMNS_13LayerCallbackEFvPS0_E
libosgEarth.so.0:_ZN8osgEarth5Layer14removeCallbackEPNS_13LayerCallbackE
libosgEarth.so.0:_ZN8osgEarth5Layer14setAttributionERKNSt7__cxx1112basic_stringIcSt11char_traitsIcESaIcEEE
libosgEarth.so.0:_ZN8osgEarth5Layer14setCachePolicyERKNS_11CachePolicyE
libosgEarth.so.0:_ZN8osgEarth5Layer14setReadOptionsEPKN5osgDB7OptionsE
libosgEarth.so.0:_ZN8osgEarth5Layer15setCullCallbackEPNS0_17TraversalCallbackE
libosgEarth.so.0:_ZN8osgEarth5Layer16getConfigOptionsEPKN5osgDB7OptionsE
libosgEarth.so.0:_ZN8osgEarth5Layer18openImplementationEv
libosgEarth.so.0:_ZN8osgEarth5Layer19closeImplementationEv
libosgEarth.so.0:_ZN8osgEarth5Layer19getOrCreateStateSetEv
libosgEarth.so.0:_ZN8osgEarth5Layer19setTerrainResourcesEPNS_16TerrainResourcesE
libosgEarth.so.0:_ZN8osgEarth5Layer21resizeGLObjectBuffersEj
libosgEarth.so.0:_ZN8osgEarth5Layer4initEv
libosgEarth.so.0:_ZN8osgEarth5Layer4openEPKN5osgDB7OptionsE
libosgEarth.so.0:_ZN8osgEarth5Layer4openEv
libosgEarth.so.0:_ZN8osgEarth5Layer5closeEv
libosgEarth.so.0:_ZN8osgEarth5Layer6createERKNS_13ConfigOptionsE
libosgEarth.so.0:_ZN8osgEarth5Layer7Options10fromConfigERKNS_6ConfigE
libosgEarth.so.0:_ZN8osgEarth5Layer7setNameERKNSt7__cxx1112basic_stringIcSt11char_traitsIcESaIcEEE
libosgEarth.so.0:_ZN8osgEarth5LayerC1EPNS0_7OptionsE
libosgEarth.so.0:_ZN8osgEarth5LayerC1Ev
libosgEarth.so.0:_ZN8osgEarth5LayerC2EPNS0_7OptionsE
libosgEarth.so.0:_ZN8osgEarth5LayerC2Ev
libosgEarth.so.0:_ZN8osgEarth5LayerD0Ev
libosgEarth.so.0:_ZN8osgEarth5LayerD1Ev
libosgEarth.so.0:_ZN8osgEarth5LayerD2Ev
libosgEarth.so.0:_ZN8osgEarth5Point3setERKN3osg5Vec3dE
libosgEarth.so.0:_ZN8osgEarth5PointC1ERKS0_
libosgEarth.so.0:_ZN8osgEarth5PointC2ERKS0_
libosgEarth.so.0:_ZN8osgEarth5PointD0Ev
libosgEarth.so.0:_ZN8osgEarth5PointD1Ev
libosgEarth.so.0:_ZN8osgEarth5PointD2Ev
libosgEarth.so.0:_ZN8osgEarth5Query11mergeConfigERKNS_6ConfigE
libosgEarth.so.0:_ZN8osgEarth5QueryC1ERKNS_6ConfigE
libosgEarth.so.0:_ZN8osgEarth5QueryC1ERKS0_
libosgEarth.so.0:_ZN8osgEarth5QueryC2ERKNS_6ConfigE
libosgEarth.so.0:_ZN8osgEarth5QueryC2ERKS0_
libosgEarth.so.0:_ZN8osgEarth5Style11copySymbolsERKS0_
libosgEarth.so.0:_ZN8osgEarth5Style11mergeConfigERKNS_6ConfigEPKSt3mapINSt7__cxx1112basic_stringIcSt11char_traitsIcESaIcEEES0_St4lessISA_ESaISt4pairIKSA_S0_EEE
libosgEarth.so.0:_ZN8osgEarth5Style12removeSymbolEPNS_6SymbolE
libosgEarth.so.0:_ZN8osgEarth5Style7fromSLDERKNS_6ConfigEPKSt3mapINSt7__cxx1112basic_stringIcSt11char_traitsIcESaIcEEES0_St4lessISA_ESaISt4pairIKSA_S0_EEE
libosgEarth.so.0:_ZN8osgEarth5Style9addSymbolEPNS_6SymbolE
libosgEarth.so.0:_ZN8osgEarth5StyleC1ERKNS_6ConfigE
libosgEarth.so.0:_ZN8osgEarth5StyleC1ERKNS_6ConfigEPKSt3mapINSt7__cxx1112basic_stringIcSt11char_traitsIcESaIcEEES0_St4lessISA_ESaISt4pairIKSA_S0_EEE
libosgEarth.so.0:_ZN8osgEarth5StyleC1ERKNSt7__cxx1112basic_stringIcSt11char_traitsIcESaIcEEE
libosgEarth.so.0:_ZN8osgEarth5StyleC1ERKS0_RKN3osg6CopyOpE
libosgEarth.so.0:_ZN8osgEarth5StyleC2ERKNS_6ConfigE
libosgEarth.so.0:_ZN8osgEarth5StyleC2ERKNS_6ConfigEPKSt3mapINSt7__cxx1112basic_stringIcSt11char_traitsIcESaIcEEES0_St4lessISA_ESaISt4pairIKSA_S0_EEE
libosgEarth.so.0:_ZN8osgEarth5StyleC2ERKNSt7__cxx1112basic_stringIcSt11char_traitsIcESaIcEEE
libosgEarth.so.0:_ZN8osgEarth5StyleC2ERKS0_RKN3osg6CopyOpE
libosgEarth.so.0:_ZN8osgEarth5StyleaSERKS0_
libosgEarth.so.0:_ZN8osgEarth5Units11registerAllEPNS_8RegistryE
libosgEarth.so.0:_ZN8osgEarth5Units5parseERKNSt7__cxx1112basic_stringIcSt11char_traitsIcESaIcEEERS0_
libosgEarth.so.0:_ZN8osgEarth5Units5parseERKNSt7__cxx1112basic_stringIcSt11char_traitsIcESaIcEEERdRS0_RKS0_
libosgEarth.so.0:_ZN8osgEarth5Units5parseERKNSt7__cxx1112basic_stringIcSt11char_traitsIcESaIcEEERfRS0_RKS0_
libosgEarth.so.0:_ZN8osgEarth5Units5parseERKNSt7__cxx1112basic_stringIcSt11char_traitsIcESaIcEEERiRS0_RKS0_
libosgEarth.so.0:_ZN8osgEarth5Units8unitTestEv
libosgEarth.so.0:_ZN8osgEarth5UnitsC1ERKNSt7__cxx1112basic_stringIcSt11char_traitsIcESaIcEEES8_RKNS0_4TypeEd
libosgEarth.so.0:_ZN8osgEarth5UnitsC1ERKNSt7__cxx1112basic_stringIcSt11char_traitsIcESaIcEEES8_RKS0_SA_
libosgEarth.so.0:_ZN8osgEarth5UnitsC2ERKNSt7__cxx1112basic_stringIcSt11char_traitsIcESaIcEEES8_RKNS0_4TypeEd
libosgEarth.so.0:_ZN8osgEarth5UnitsC2ERKNSt7__cxx1112basic_stringIcSt11char_traitsIcESaIcEEES8_RKS0_SA_
libosgEarth.so.0:_ZN8osgEarth6ArcGIS12BundleReader4initEv
libosgEarth.so.0:_ZN8osgEarth6ArcGIS12BundleReader9readImageERKNS_7TileKeyE
libosgEarth.so.0:_ZN8osgEarth6ArcGIS12BundleReader9readImageEj
libosgEarth.so.0:_ZN8osgEarth6ArcGIS12BundleReader9readIndexERKNSt7__cxx1112basic_stringIcSt11char_traitsIcESaIcEEERSt6vectorIiSaIiEE
libosgEarth.so.0:_ZN8osgEarth6ArcGIS12BundleReaderC1ERKNSt7__cxx1112basic_stringIcSt11char_traitsIcESaIcEEEj
libosgEarth.so.0:_ZN8osgEarth6ArcGIS12BundleReaderC2ERKNSt7__cxx1112basic_stringIcSt11char_traitsIcESaIcEEEj
libosgEarth.so.0:_ZN8osgEarth6ArcGIS13BundleReader24initEv
libosgEarth.so.0:_ZN8osgEarth6ArcGIS13BundleReader29readImageERKNS_7TileKeyE
libosgEarth.so.0:_ZN8osgEarth6ArcGIS13BundleReader29readImageEj
libosgEarth.so.0:_ZN8osgEarth6ArcGIS13BundleReader29readIndexERSt6vectorIySaIyEE
libosgEarth.so.0:_ZN8osgEarth6ArcGIS13BundleReader2C1ERKNSt7__cxx1112basic_stringIcSt11char_traitsIcESaIcEEEj
libosgEarth.so.0:_ZN8osgEarth6ArcGIS13BundleReader2C2ERKNSt7__cxx1112basic_stringIcSt11char_traitsIcESaIcEEEj
libosgEarth.so.0:_ZN8osgEarth6ArcGIS13computeOffsetERKSt6vectorIcSaIcEE
libosgEarth.so.0:_ZN8osgEarth6ArcGIS13hexFromStringERKNSt7__cxx1112basic_stringIcSt11char_traitsIcESaIcEEE
libosgEarth.so.0:_ZN8osgEarth6ArcGIS5toHexB5cxx11Ej
libosgEarth.so.0:_ZN8osgEarth6ArcGIS7padLeftENSt7__cxx1112basic_stringIcSt11char_traitsIcESaIcEEEj
libosgEarth.so.0:_ZN8osgEarth6Bounds3setEdddd
libosgEarth.so.0:_ZN8osgEarth6Bounds3setEdddddd
libosgEarth.so.0:_ZN8osgEarth6Bounds8expandByERKS0_
libosgEarth.so.0:_ZN8osgEarth6Bounds8expandByEdd
libosgEarth.so.0:_ZN8osgEarth6Bounds8expandByEddd
libosgEarth.so.0:_ZN8osgEarth6Bounds9transformEPKNS_16SpatialReferenceES3_
libosgEarth.so.0:_ZN8osgEarth6BoundsC1Edddd
libosgEarth.so.0:_ZN8osgEarth6BoundsC1Ev
libosgEarth.so.0:_ZN8osgEarth6BoundsC2Edddd
libosgEarth.so.0:_ZN8osgEarth6BoundsC2Ev
libosgEarth.so.0:_ZN8osgEarth6Config11setReferrerERKNSt7__cxx1112basic_stringIcSt11char_traitsIcESaIcEEE
libosgEarth.so.0:_ZN8osgEarth6Config13mutable_childERKNSt7__cxx1112basic_stringIcSt11char_traitsIcESaIcEEE
libosgEarth.so.0:_ZN8osgEarth6Config4findERKNSt7__cxx1112basic_stringIcSt11char_traitsIcESaIcEEEb
libosgEarth.so.0:_ZN8osgEarth6Config5mergeERKS0_
libosgEarth.so.0:_ZN8osgEarth6Config7fromXMLERSi
libosgEarth.so.0:_ZN8osgEarth6Config8fromJSONERKNSt7__cxx1112basic_stringIcSt11char_traitsIcESaIcEEE
libosgEarth.so.0:_ZN8osgEarth6Config8readJSONERKNSt7__cxx1112basic_stringIcSt11char_traitsIcESaIcEEE
libosgEarth.so.0:_ZN8osgEarth6ConfigD0Ev
libosgEarth.so.0:_ZN8osgEarth6ConfigD1Ev
libosgEarth.so.0:_ZN8osgEarth6ConfigD2Ev
libosgEarth.so.0:_ZN8osgEarth6Stroke11mergeConfigERKNS_6ConfigE
libosgEarth.so.0:_ZN8osgEarth6Stroke4initEv
libosgEarth.so.0:_ZN8osgEarth6StrokeC1ERKNS_5ColorE
libosgEarth.so.0:_ZN8osgEarth6StrokeC1ERKNS_6ConfigE
libosgEarth.so.0:_ZN8osgEarth6StrokeC1ERKS0_
libosgEarth.so.0:_ZN8osgEarth6StrokeC1Effff
libosgEarth.so.0:_ZN8osgEarth6StrokeC1Ev
libosgEarth.so.0:_ZN8osgEarth6StrokeC2ERKNS_5ColorE
libosgEarth.so.0:_ZN8osgEarth6StrokeC2ERKNS_6ConfigE
libosgEarth.so.0:_ZN8osgEarth6StrokeC2ERKS0_
libosgEarth.so.0:_ZN8osgEarth6StrokeC2Effff
libosgEarth.so.0:_ZN8osgEarth6StrokeC2Ev
libosgEarth.so.0:_ZN8osgEarth6Symbol11mergeConfigERKNS_6ConfigE
libosgEarth.so.0:_ZN8osgEarth6Symbol5matchERKNSt7__cxx1112basic_stringIcSt11char_traitsIcESaIcEEEPKc
libosgEarth.so.0:_ZN8osgEarth6SymbolC1ERKNS_6ConfigE
libosgEarth.so.0:_ZN8osgEarth6SymbolC1ERKS0_RKN3osg6CopyOpE
libosgEarth.so.0:_ZN8osgEarth6SymbolC2ERKNS_6ConfigE
libosgEarth.so.0:_ZN8osgEarth6SymbolC2ERKS0_RKN3osg6CopyOpE
libosgEarth.so.0:_ZN8osgEarth6notifyEN3osg14NotifySeverityE
libosgEarth.so.0:_ZN8osgEarth7Contrib10TileSource10setProfileEPKNS_7ProfileE
libosgEarth.so.0:_ZN8osgEarth7Contrib10TileSource11createImageERKNS_7TileKeyEPNS1_14ImageOperationEPNS_16ProgressCallbackE
libosgEarth.so.0:_ZN8osgEarth7Contrib10TileSource11createImageERKNS_7TileKeyEPNS_16ProgressCallbackE
libosgEarth.so.0:_ZN8osgEarth7Contrib10TileSource12getBlacklistEv
libosgEarth.so.0:_ZN8osgEarth7Contrib10TileSource16setPixelsPerTileEj
libosgEarth.so.0:_ZN8osgEarth7Contrib10TileSource16storeHeightFieldERKNS_7TileKeyEPKN3osg11HeightFieldEPNS_16ProgressCallbackE
libosgEarth.so.0:_ZN8osgEarth7Contrib10TileSource17createHeightFieldERKNS_7TileKeyEPNS1_20HeightFieldOperationEPNS_16ProgressCallbackE
libosgEarth.so.0:_ZN8osgEarth7Contrib10TileSource17createHeightFieldERKNS_7TileKeyEPNS_16ProgressCallbackE
libosgEarth.so.0:_ZN8osgEarth7Contrib10TileSource21setDefaultL2CacheSizeEi
libosgEarth.so.0:_ZN8osgEarth7Contrib10TileSource4openERKjPKN5osgDB7OptionsE
libosgEarth.so.0:_ZN8osgEarth7Contrib10TileSourceC1ERKNS0_17TileSourceOptionsE
libosgEarth.so.0:_ZN8osgEarth7Contrib10TileSourceC2ERKNS0_17TileSourceOptionsE
libosgEarth.so.0:_ZN8osgEarth7Contrib10TileSourceD0Ev
libosgEarth.so.0:_ZN8osgEarth7Contrib10TileSourceD1Ev
libosgEarth.so.0:_ZN8osgEarth7Contrib10TileSourceD2Ev
libosgEarth.so.0:_ZN8osgEarth7Contrib11ClusterNode10buildIndexEv
libosgEarth.so.0:_ZN8osgEarth7Contrib11ClusterNode10removeNodeEPN3osg4NodeE
libosgEarth.so.0:_ZN8osgEarth7Contrib11ClusterNode10setEnabledEb
libosgEarth.so.0:_ZN8osgEarth7Contrib11ClusterNode10setMapNodeEPNS_7MapNodeE
libosgEarth.so.0:_ZN8osgEarth7Contrib11ClusterNode11getClustersEPN7osgUtil11CullVisitorERSt6vectorINS1_7ClusterESaIS6_EE
libosgEarth.so.0:_ZN8osgEarth7Contrib11ClusterNode16getOrCreateLabelEv
libosgEarth.so.0:_ZN8osgEarth7Contrib11ClusterNode16getStyleCallbackEv
libosgEarth.so.0:_ZN8osgEarth7Contrib11ClusterNode16setStyleCallbackEPNS1_20StyleClusterCallbackE
libosgEarth.so.0:_ZN8osgEarth7Contrib11ClusterNode21getCanClusterCallbackEv
libosgEarth.so.0:_ZN8osgEarth7Contrib11ClusterNode21setCanClusterCallbackEPNS1_18CanClusterCallbackE
libosgEarth.so.0:_ZN8osgEarth7Contrib11ClusterNode5clearEv
libosgEarth.so.0:_ZN8osgEarth7Contrib11ClusterNode7addNodeEPN3osg4NodeE
libosgEarth.so.0:_ZN8osgEarth7Contrib11ClusterNode8traverseERN3osg11NodeVisitorE
libosgEarth.so.0:_ZN8osgEarth7Contrib11ClusterNode9setRadiusEj
libosgEarth.so.0:_ZN8osgEarth7Contrib11ClusterNodeC1EPNS_7MapNodeEPN3osg5ImageE
libosgEarth.so.0:_ZN8osgEarth7Contrib11ClusterNodeC2EPNS_7MapNodeEPN3osg5ImageE
libosgEarth.so.0:_ZN8osgEarth7Contrib11TFSPackager7packageEPNS_13FeatureSourceERKNSt7__cxx1112basic_stringIcSt11char_traitsIcESaIcEEESB_SB_
libosgEarth.so.0:_ZN8osgEarth7Contrib11TFSPackagerC1Ev
libosgEarth.so.0:_ZN8osgEarth7Contrib11TFSPackagerC2Ev
libosgEarth.so.0:_ZN8osgEarth7Contrib11ThreeDTiles11TileContent8fromJSONERKNS_4Util4Json5ValueERNS1_11LoadContextE
libosgEarth.so.0:_ZN8osgEarth7Contrib11ThreeDTiles14BoundingVolume8fromJSONERKNS_4Util4Json5ValueE
libosgEarth.so.0:_ZN8osgEarth7Contrib11ThreeDTiles14ThreeDTileNode10getContentEv
libosgEarth.so.0:_ZN8osgEarth7Contrib11ThreeDTiles14ThreeDTileNode10hasContentEv
libosgEarth.so.0:_ZN8osgEarth7Contrib11ThreeDTiles14ThreeDTileNode13setParentTileEPS2_
libosgEarth.so.0:_ZN8osgEarth7Contrib11ThreeDTiles14ThreeDTileNode13unloadContentEv
libosgEarth.so.0:_ZN8osgEarth7Contrib11ThreeDTiles14ThreeDTileNode14isContentReadyEv
libosgEarth.so.0:_ZN8osgEarth7Contrib11ThreeDTiles14ThreeDTileNode14requestContentEPN7osgUtil27IncrementalCompileOperationE
libosgEarth.so.0:_ZN8osgEarth7Contrib11ThreeDTiles14ThreeDTileNode14resolveContentEv
libosgEarth.so.0:_ZN8osgEarth7Contrib11ThreeDTiles14ThreeDTileNode14updateTrackingEPN7osgUtil11CullVisitorE
libosgEarth.so.0:_ZN8osgEarth7Contrib11ThreeDTiles14ThreeDTileNode17createDebugBoundsEv
libosgEarth.so.0:_ZN8osgEarth7Contrib11ThreeDTiles14ThreeDTileNode17getDistanceToTileEPN7osgUtil11CullVisitorE
libosgEarth.so.0:_ZN8osgEarth7Contrib11ThreeDTiles14ThreeDTileNode21computeBoundingVolumeEv
libosgEarth.so.0:_ZN8osgEarth7Contrib11ThreeDTiles14ThreeDTileNode21resizeGLObjectBuffersEj
libosgEarth.so.0:_ZN8osgEarth7Contrib11ThreeDTiles14ThreeDTileNode23computeScreenSpaceErrorEPN7osgUtil11CullVisitorE
libosgEarth.so.0:_ZN8osgEarth7Contrib11ThreeDTiles14ThreeDTileNode8traverseERN3osg11NodeVisitorE
libosgEarth.so.0:_ZN8osgEarth7Contrib11ThreeDTiles14ThreeDTileNodeC1EPNS1_17ThreeDTilesetNodeEPNS1_4TileEbPN5osgDB7OptionsE
libosgEarth.so.0:_ZN8osgEarth7Contrib11ThreeDTiles14ThreeDTileNodeC2EPNS1_17ThreeDTilesetNodeEPNS1_4TileEbPN5osgDB7OptionsE
libosgEarth.so.0:_ZN8osgEarth7Contrib11ThreeDTiles17ThreeDTilesetNode11expireTilesERKN3osg11NodeVisitorE
libosgEarth.so.0:_ZN8osgEarth7Contrib11ThreeDTiles17ThreeDTilesetNode11setMaxTilesEj
libosgEarth.so.0:_ZN8osgEarth7Contrib11ThreeDTiles17ThreeDTilesetNode12setOwnerNameERKNSt7__cxx1112basic_stringIcSt11char_traitsIcESaIcEEE
libosgEarth.so.0:_ZN8osgEarth7Contrib11ThreeDTiles17ThreeDTilesetNode15setColorPerTileEb
libosgEarth.so.0:_ZN8osgEarth7Contrib11ThreeDTiles17ThreeDTilesetNode21runPreMergeOperationsEPN3osg4NodeE
libosgEarth.so.0:_ZN8osgEarth7Contrib11ThreeDTiles17ThreeDTilesetNode22getSceneGraphCallbacksEPNS_19SceneGraphCallbacksE
libosgEarth.so.0:_ZN8osgEarth7Contrib11ThreeDTiles17ThreeDTilesetNode22runPostMergeOperationsEPN3osg4NodeE
libosgEarth.so.0:_ZN8osgEarth7Contrib11ThreeDTiles17ThreeDTilesetNode22setSceneGraphCallbacksEPNS_19SceneGraphCallbacksE
libosgEarth.so.0:_ZN8osgEarth7Contrib11ThreeDTiles17ThreeDTilesetNode22setShowBoundingVolumesEb
libosgEarth.so.0:_ZN8osgEarth7Contrib11ThreeDTiles17ThreeDTilesetNode26setMaximumScreenSpaceErrorEf
libosgEarth.so.0:_ZN8osgEarth7Contrib11ThreeDTiles17ThreeDTilesetNode8traverseERN3osg11NodeVisitorE
libosgEarth.so.0:_ZN8osgEarth7Contrib11ThreeDTiles17ThreeDTilesetNode9setMaxAgeEf
libosgEarth.so.0:_ZN8osgEarth7Contrib11ThreeDTiles17ThreeDTilesetNode9touchTileEPNS1_14ThreeDTileNodeE
libosgEarth.so.0:_ZN8osgEarth7Contrib11ThreeDTiles17ThreeDTilesetNodeC1EPNS1_7TilesetERKNSt7__cxx1112basic_stringIcSt11char_traitsIcESaIcEEEPNS_19SceneGraphCallbacksEPN5osgDB7OptionsE
libosgEarth.so.0:_ZN8osgEarth7Contrib11ThreeDTiles17ThreeDTilesetNodeC2EPNS1_7TilesetERKNSt7__cxx1112basic_stringIcSt11char_traitsIcESaIcEEEPNS_19SceneGraphCallbacksEPN5osgDB7OptionsE
libosgEarth.so.0:_ZN8osgEarth7Contrib11ThreeDTiles24ThreeDTilesetContentNode11getTileNodeEv
libosgEarth.so.0:_ZN8osgEarth7Contrib11ThreeDTiles24ThreeDTilesetContentNodeC1EPNS1_17ThreeDTilesetNodeEPNS1_7TilesetEPN5osgDB7OptionsE
libosgEarth.so.0:_ZN8osgEarth7Contrib11ThreeDTiles24ThreeDTilesetContentNodeC2EPNS1_17ThreeDTilesetNodeEPNS1_7TilesetEPN5osgDB7OptionsE
libosgEarth.so.0:_ZN8osgEarth7Contrib11ThreeDTiles4Tile17getBoundingSphereEv
libosgEarth.so.0:_ZN8osgEarth7Contrib11ThreeDTiles4Tile8fromJSONERKNS_4Util4Json5ValueERNS1_11LoadContextE
libosgEarth.so.0:_ZN8osgEarth7Contrib11ThreeDTiles5Asset8fromJSONERKNS_4Util4Json5ValueE
libosgEarth.so.0:_ZN8osgEarth7Contrib11ThreeDTiles7Tileset6createERKNSt7__cxx1112basic_stringIcSt11char_traitsIcESaIcEEERKNS_10URIContextE
libosgEarth.so.0:_ZN8osgEarth7Contrib11ThreeDTiles7Tileset8fromJSONERKNS_4Util4Json5ValueERNS1_11LoadContextE
libosgEarth.so.0:_ZN8osgEarth7Contrib12AtlasBuilder17addAuxFilePatternERKNSt7__cxx1112basic_stringIcSt11char_traitsIcESaIcEEERKN3osg5Vec4fE
libosgEarth.so.0:_ZN8osgEarth7Contrib12AtlasBuilder7setSizeEjj
libosgEarth.so.0:_ZN8osgEarth7Contrib12AtlasBuilderC1EPKN5osgDB7OptionsE
libosgEarth.so.0:_ZN8osgEarth7Contrib12AtlasBuilderC2EPKN5osgDB7OptionsE
libosgEarth.so.0:_ZN8osgEarth7Contrib13ClampCallback14setTerrainNodeEPN3osg4NodeE
libosgEarth.so.0:_ZN8osgEarth7Contrib13ClampCallback19setIntersectionMaskEj
libosgEarth.so.0:_ZN8osgEarth7Contrib13ClampCallback9setOffsetEd
libosgEarth.so.0:_ZN8osgEarth7Contrib13ClampCallbackC1EPN3osg4NodeE
libosgEarth.so.0:_ZN8osgEarth7Contrib13ClampCallbackC2EPN3osg4NodeE
libosgEarth.so.0:_ZN8osgEarth7Contrib13ClampCallbackclEPN3osg4NodeEPNS2_11NodeVisitorE
libosgEarth.so.0:_ZN8osgEarth7Contrib13TMSBackFiller10processKeyERKNS_7TileKeyE
libosgEarth.so.0:_ZN8osgEarth7Contrib13TMSBackFiller11getFilenameB5cxx11ERKNS_7TileKeyE
libosgEarth.so.0:_ZN8osgEarth7Contrib13TMSBackFiller7processERKNSt7__cxx1112basic_stringIcSt11char_traitsIcESaIcEEEPN5osgDB7OptionsE
libosgEarth.so.0:_ZN8osgEarth7Contrib13TMSBackFiller8readTileERKNS_7TileKeyE
libosgEarth.so.0:_ZN8osgEarth7Contrib13TMSBackFiller9writeTileERKNS_7TileKeyEPN3osg5ImageE
libosgEarth.so.0:_ZN8osgEarth7Contrib13TMSBackFillerC1Ev
libosgEarth.so.0:_ZN8osgEarth7Contrib13TMSBackFillerC2Ev
libosgEarth.so.0:_ZN8osgEarth7Contrib13TileBlacklist3addERKNS_7TileKeyE
libosgEarth.so.0:_ZN8osgEarth7Contrib13TileBlacklist4readERKNSt7__cxx1112basic_stringIcSt11char_traitsIcESaIcEEE
libosgEarth.so.0:_ZN8osgEarth7Contrib13TileBlacklist4readERSi
libosgEarth.so.0:_ZN8osgEarth7Contrib13TileBlacklist5clearEv
libosgEarth.so.0:_ZN8osgEarth7Contrib13TileBlacklist6removeERKNS_7TileKeyE
libosgEarth.so.0:_ZN8osgEarth7Contrib13TileBlacklistC1Ev
libosgEarth.so.0:_ZN8osgEarth7Contrib13TileBlacklistC2Ev
libosgEarth.so.0:_ZN8osgEarth7Contrib14CalloutManager12SortCallbackC1EPS1_
libosgEarth.so.0:_ZN8osgEarth7Contrib14CalloutManager12SortCallbackC2EPS1_
libosgEarth.so.0:_ZN8osgEarth7Contrib14CalloutManager12SortCallbackclEPN3osg4NodeEPNS3_11NodeVisitorE
libosgEarth.so.0:_ZN8osgEarth7Contrib14CalloutManager13CalloutRecord4moveEf
libosgEarth.so.0:_ZN8osgEarth7Contrib14CalloutManager13CalloutRecord7realignEv
libosgEarth.so.0:_ZN8osgEarth7Contrib14CalloutManager13CalloutRecord8setAlphaEf
libosgEarth.so.0:_ZN8osgEarth7Contrib14CalloutManager13CalloutRecordC1Ev
libosgEarth.so.0:_ZN8osgEarth7Contrib14CalloutManager13CalloutRecordC2Ev
libosgEarth.so.0:_ZN8osgEarth7Contrib14CalloutManager13handleOverlapEPNS1_13CalloutRecordERKNS1_4BBoxE
libosgEarth.so.0:_ZN8osgEarth7Contrib14CalloutManager20setAggressiveSortingEb
libosgEarth.so.0:_ZN8osgEarth7Contrib14CalloutManager20setDrawObscuredItemsEb
libosgEarth.so.0:_ZN8osgEarth7Contrib14CalloutManager23setResetWhenViewChangesEb
libosgEarth.so.0:_ZN8osgEarth7Contrib14CalloutManager4BBoxC1ERKN3osg15BoundingBoxImplINS3_5Vec3fEEE
libosgEarth.so.0:_ZN8osgEarth7Contrib14CalloutManager4BBoxC2ERKN3osg15BoundingBoxImplINS3_5Vec3fEEE
libosgEarth.so.0:_ZN8osgEarth7Contrib14CalloutManager4pushEPNS0_7CalloutERN7osgUtil11CullVisitorE
libosgEarth.so.0:_ZN8osgEarth7Contrib14CalloutManager4sortERN3osg11NodeVisitorE
libosgEarth.so.0:_ZN8osgEarth7Contrib14CalloutManager5resetEv
libosgEarth.so.0:_ZN8osgEarth7Contrib14CalloutManagerC1Ev
libosgEarth.so.0:_ZN8osgEarth7Contrib14CalloutManagerC2Ev
libosgEarth.so.0:_ZN8osgEarth7Contrib14TerrainProfile12addElevationEdd
libosgEarth.so.0:_ZN8osgEarth7Contrib14TerrainProfile5clearEv
libosgEarth.so.0:_ZN8osgEarth7Contrib14TerrainProfileC1ERKS1_
libosgEarth.so.0:_ZN8osgEarth7Contrib14TerrainProfileC1Ev
libosgEarth.so.0:_ZN8osgEarth7Contrib14TerrainProfileC2ERKS1_
libosgEarth.so.0:_ZN8osgEarth7Contrib14TerrainProfileC2Ev
libosgEarth.so.0:_ZN8osgEarth7Contrib15DecalImageLayer11clearDecalsEv
libosgEarth.so.0:_ZN8osgEarth7Contrib15DecalImageLayer11removeDecalERKNSt7__cxx1112basic_stringIcSt11char_traitsIcESaIcEEE
libosgEarth.so.0:_ZN8osgEarth7Contrib15DecalImageLayer4initEv
libosgEarth.so.0:_ZN8osgEarth7Contrib15DecalImageLayer7Options10fromConfigERKNS_6ConfigE
libosgEarth.so.0:_ZN8osgEarth7Contrib15DecalImageLayer8addDecalERKNSt7__cxx1112basic_stringIcSt11char_traitsIcESaIcEEERKNS_9GeoExtentEPKN3osg5ImageE
libosgEarth.so.0:_ZN8osgEarth7Contrib15FlatteningLayer10addedToMapEPKNS_3MapE
libosgEarth.so.0:_ZN8osgEarth7Contrib15FlatteningLayer12setLineWidthERKNS_17NumericExpressionE
libosgEarth.so.0:_ZN8osgEarth7Contrib15FlatteningLayer14removedFromMapEPKNS_3MapE
libosgEarth.so.0:_ZN8osgEarth7Contrib15FlatteningLayer14setBufferWidthERKNS_17NumericExpressionE
libosgEarth.so.0:_ZN8osgEarth7Contrib15FlatteningLayer16setFeatureSourceEPNS_13FeatureSourceE
libosgEarth.so.0:_ZN8osgEarth7Contrib15FlatteningLayer18openImplementationEv
libosgEarth.so.0:_ZN8osgEarth7Contrib15FlatteningLayer4initEv
libosgEarth.so.0:_ZN8osgEarth7Contrib15FlatteningLayer7Options10fromConfigERKNS_6ConfigE
libosgEarth.so.0:_ZN8osgEarth7Contrib15FlatteningLayer7setFillERKb
libosgEarth.so.0:_ZN8osgEarth7Contrib15FlatteningLayerD0Ev
libosgEarth.so.0:_ZN8osgEarth7Contrib15FlatteningLayerD1Ev
libosgEarth.so.0:_ZN8osgEarth7Contrib15FlatteningLayerD2Ev
libosgEarth.so.0:_ZN8osgEarth7Contrib15MouseCoordsTool11addCallbackEPNS1_8CallbackE
libosgEarth.so.0:_ZN8osgEarth7Contrib15MouseCoordsTool6handleERKN5osgGA15GUIEventAdapterERNS2_16GUIActionAdapterE
libosgEarth.so.0:_ZN8osgEarth7Contrib15MouseCoordsToolC1EPNS_7MapNodeEPNS_4Util8Controls12LabelControlEPNS4_9FormatterE
libosgEarth.so.0:_ZN8osgEarth7Contrib15MouseCoordsToolC2EPNS_7MapNodeEPNS_4Util8Controls12LabelControlEPNS4_9FormatterE
libosgEarth.so.0:_ZN8osgEarth7Contrib16CacheTileHandler10handleTileERKNS_7TileKeyERKNS_4Util11TileVisitorE
libosgEarth.so.0:_ZN8osgEarth7Contrib16CacheTileHandlerC1EPNS_9TileLayerEPKNS_3MapE
libosgEarth.so.0:_ZN8osgEarth7Contrib16CacheTileHandlerC2EPNS_9TileLayerEPKNS_3MapE
libosgEarth.so.0:_ZN8osgEarth7Contrib16ThreeDTilesLayer18openImplementationEv
libosgEarth.so.0:_ZN8osgEarth7Contrib16ThreeDTilesLayer26setMaximumScreenSpaceErrorEf
libosgEarth.so.0:_ZN8osgEarth7Contrib16ThreeDTilesLayer4initEv
libosgEarth.so.0:_ZN8osgEarth7Contrib16ThreeDTilesLayer6setURLERKNS_3URIE
libosgEarth.so.0:_ZN8osgEarth7Contrib16ThreeDTilesLayer7Options10fromConfigERKNS_6ConfigE
libosgEarth.so.0:_ZN8osgEarth7Contrib16ThreeDTilesLayerD0Ev
libosgEarth.so.0:_ZN8osgEarth7Contrib16ThreeDTilesLayerD1Ev
libosgEarth.so.0:_ZN8osgEarth7Contrib16ThreeDTilesLayerD2Ev
libosgEarth.so.0:_ZN8osgEarth7Contrib16TileIndexBuilder15expandFilenamesEv
libosgEarth.so.0:_ZN8osgEarth7Contrib16TileIndexBuilder19setProgressCallbackEPNS_16ProgressCallbackE
libosgEarth.so.0:_ZN8osgEarth7Contrib16TileIndexBuilder5buildERKNSt7__cxx1112basic_stringIcSt11char_traitsIcESaIcEEEPKNS_16SpatialReferenceE
libosgEarth.so.0:_ZN8osgEarth7Contrib16TileIndexBuilderC1Ev
libosgEarth.so.0:_ZN8osgEarth7Contrib16TileIndexBuilderC2Ev
libosgEarth.so.0:_ZN8osgEarth7Contrib17LineOfSightTetherC1EPN3osg4NodeES4_
libosgEarth.so.0:_ZN8osgEarth7Contrib17LineOfSightTetherC2EPN3osg4NodeES4_
libosgEarth.so.0:_ZN8osgEarth7Contrib17LineOfSightTetherclEPN3osg4NodeEPNS2_11NodeVisitorE
libosgEarth.so.0:_ZN8osgEarth7Contrib17SkyViewImageLayer18openImplementationEv
libosgEarth.so.0:_ZN8osgEarth7Contrib17SkyViewImageLayer4initEv
libosgEarth.so.0:_ZN8osgEarth7Contrib17SkyViewImageLayer7Options10fromConfigERKNS_6ConfigE
libosgEarth.so.0:_ZN8osgEarth7Contrib17SkyViewImageLayer7Options11getMetadataEv
libosgEarth.so.0:_ZN8osgEarth7Contrib17TileSourceFactory6createERKNS0_17TileSourceOptionsE
libosgEarth.so.0:_ZN8osgEarth7Contrib17TileSourceOptions10fromConfigERKNS_6ConfigE
libosgEarth.so.0:_ZN8osgEarth7Contrib17TileSourceOptions11mergeConfigERKNS_6ConfigE
libosgEarth.so.0:_ZN8osgEarth7Contrib17TileSourceOptionsC1ERKNS_13ConfigOptionsE
libosgEarth.so.0:_ZN8osgEarth7Contrib17TileSourceOptionsC2ERKNS_13ConfigOptionsE
libosgEarth.so.0:_ZN8osgEarth7Contrib18ImageOverlayEditor10addDraggerENS_12ImageOverlay12ControlPointE
libosgEarth.so.0:_ZN8osgEarth7Contrib18ImageOverlayEditor14updateDraggersEv
libosgEarth.so.0:_ZN8osgEarth7Contrib18ImageOverlayEditorC1EPNS_12ImageOverlayEb
libosgEarth.so.0:_ZN8osgEarth7Contrib18ImageOverlayEditorC2EPNS_12ImageOverlayEb
libosgEarth.so.0:_ZN8osgEarth7Contrib18ImageOverlayEditorD0Ev
libosgEarth.so.0:_ZN8osgEarth7Contrib18ImageOverlayEditorD1Ev
libosgEarth.so.0:_ZN8osgEarth7Contrib18ImageOverlayEditorD2Ev
libosgEarth.so.0:_ZN8osgEarth7Contrib18MeasureToolHandler10setMapNodeEPNS_7MapNodeE
libosgEarth.so.0:_ZN8osgEarth7Contrib18MeasureToolHandler12setLineStyleERKNS_5StyleE
libosgEarth.so.0:_ZN8osgEarth7Contrib18MeasureToolHandler13getLocationAtEPN9osgViewer4ViewEddRdS5_
libosgEarth.so.0:_ZN8osgEarth7Contrib18MeasureToolHandler14setMouseButtonEi
libosgEarth.so.0:_ZN8osgEarth7Contrib18MeasureToolHandler15addEventHandlerEPNS1_23MeasureToolEventHandlerE
libosgEarth.so.0:_ZN8osgEarth7Contrib18MeasureToolHandler19fireDistanceChangedEv
libosgEarth.so.0:_ZN8osgEarth7Contrib18MeasureToolHandler19setGeoInterpolationENS_16GeoInterpolationE
libosgEarth.so.0:_ZN8osgEarth7Contrib18MeasureToolHandler5clearEv
libosgEarth.so.0:_ZN8osgEarth7Contrib18MeasureToolHandler6handleERKN5osgGA15GUIEventAdapterERNS2_16GUIActionAdapterE
libosgEarth.so.0:_ZN8osgEarth7Contrib18MeasureToolHandler7rebuildEv
libosgEarth.so.0:_ZN8osgEarth7Contrib18MeasureToolHandler9setIsPathEb
libosgEarth.so.0:_ZN8osgEarth7Contrib18MeasureToolHandlerC1EPNS_7MapNodeE
libosgEarth.so.0:_ZN8osgEarth7Contrib18MeasureToolHandlerC2EPNS_7MapNodeE
libosgEarth.so.0:_ZN8osgEarth7Contrib18MeasureToolHandlerD0Ev
libosgEarth.so.0:_ZN8osgEarth7Contrib18MeasureToolHandlerD1Ev
libosgEarth.so.0:_ZN8osgEarth7Contrib18MeasureToolHandlerD2Ev
libosgEarth.so.0:_ZN8osgEarth7Contrib18UnifiedCubeProfile7getFaceERKNS_7TileKeyE
libosgEarth.so.0:_ZN8osgEarth7Contrib18UnifiedCubeProfileC1Ev
libosgEarth.so.0:_ZN8osgEarth7Contrib18UnifiedCubeProfileC2Ev
libosgEarth.so.0:_ZN8osgEarth7Contrib18UnifiedCubeProfileD0Ev
libosgEarth.so.0:_ZN8osgEarth7Contrib18UnifiedCubeProfileD1Ev
libosgEarth.so.0:_ZN8osgEarth7Contrib18UnifiedCubeProfileD2Ev
libosgEarth.so.0:_ZN8osgEarth7Contrib19ActivityMonitorTool6handleERKN5osgGA15GUIEventAdapterERNS2_16GUIActionAdapterE
libosgEarth.so.0:_ZN8osgEarth7Contrib19ActivityMonitorToolC1EPNS_4Util8Controls4VBoxE
libosgEarth.so.0:_ZN8osgEarth7Contrib19ActivityMonitorToolC2EPNS_4Util8Controls4VBoxE
libosgEarth.so.0:_ZN8osgEarth7Contrib19DecalElevationLayer11clearDecalsEv
libosgEarth.so.0:_ZN8osgEarth7Contrib19DecalElevationLayer11removeDecalERKNSt7__cxx1112basic_stringIcSt11char_traitsIcESaIcEEE
libosgEarth.so.0:_ZN8osgEarth7Contrib19DecalElevationLayer4initEv
libosgEarth.so.0:_ZN8osgEarth7Contrib19DecalElevationLayer7Options10fromConfigERKNS_6ConfigE
libosgEarth.so.0:_ZN8osgEarth7Contrib19DecalElevationLayer8addDecalERKNSt7__cxx1112basic_stringIcSt11char_traitsIcESaIcEEERKNS_9GeoExtentEPKN3osg5ImageEffj
libosgEarth.so.0:_ZN8osgEarth7Contrib19DecalElevationLayer8addDecalERKNSt7__cxx1112basic_stringIcSt11char_traitsIcESaIcEEERKNS_9GeoExtentEPKN3osg5ImageEfj
libosgEarth.so.0:_ZN8osgEarth7Contrib19DecalLandCoverLayer11clearDecalsEv
libosgEarth.so.0:_ZN8osgEarth7Contrib19DecalLandCoverLayer11removeDecalERKNSt7__cxx1112basic_stringIcSt11char_traitsIcESaIcEEE
libosgEarth.so.0:_ZN8osgEarth7Contrib19DecalLandCoverLayer18openImplementationEv
libosgEarth.so.0:_ZN8osgEarth7Contrib19DecalLandCoverLayer4initEv
libosgEarth.so.0:_ZN8osgEarth7Contrib19DecalLandCoverLayer7Options10fromConfigERKNS_6ConfigE
libosgEarth.so.0:_ZN8osgEarth7Contrib19DecalLandCoverLayer8addDecalERKNSt7__cxx1112basic_stringIcSt11char_traitsIcESaIcEEERKNS_9GeoExtentEPKN3osg5ImageE
libosgEarth.so.0:_ZN8osgEarth7Contrib20CubeSpatialReference5_initEv
libosgEarth.so.0:_ZN8osgEarth7Contrib20CubeSpatialReferenceC1EPv
libosgEarth.so.0:_ZN8osgEarth7Contrib20CubeSpatialReferenceC2EPv
libosgEarth.so.0:_ZN8osgEarth7Contrib20CubeSpatialReferenceD0Ev
libosgEarth.so.0:_ZN8osgEarth7Contrib20CubeSpatialReferenceD1Ev
libosgEarth.so.0:_ZN8osgEarth7Contrib20CubeSpatialReferenceD2Ev
libosgEarth.so.0:_ZN8osgEarth7Contrib20TileSourceImageLayer18getSequenceControlEv
libosgEarth.so.0:_ZN8osgEarth7Contrib20TileSourceImageLayer18openImplementationEv
libosgEarth.so.0:_ZN8osgEarth7Contrib20TileSourceImageLayer4initEv
libosgEarth.so.0:_ZN8osgEarth7Contrib20TileSourceImageLayer7Options10fromConfigERKNS_6ConfigE
libosgEarth.so.0:_ZN8osgEarth7Contrib21FractalElevationLayer10addedToMapEPKNS_3MapE
libosgEarth.so.0:_ZN8osgEarth7Contrib21FractalElevationLayer14removedFromMapEPKNS_3MapE
libosgEarth.so.0:_ZN8osgEarth7Contrib21FractalElevationLayer18openImplementationEv
libosgEarth.so.0:_ZN8osgEarth7Contrib21FractalElevationLayer4initEv
libosgEarth.so.0:_ZN8osgEarth7Contrib21FractalElevationLayer7Options10fromConfigERKNS_6ConfigE
libosgEarth.so.0:_ZN8osgEarth7Contrib21FractalElevationLayerD0Ev
libosgEarth.so.0:_ZN8osgEarth7Contrib21FractalElevationLayerD1Ev
libosgEarth.so.0:_ZN8osgEarth7Contrib21FractalElevationLayerD2Ev
libosgEarth.so.0:_ZN8osgEarth7Contrib21LinearLineOfSightNode10setMapNodeEPNS_7MapNodeE
libosgEarth.so.0:_ZN8osgEarth7Contrib21LinearLineOfSightNode11setBadColorERKN3osg5Vec4fE
libosgEarth.so.0:_ZN8osgEarth7Contrib21LinearLineOfSightNode12setGoodColorERKN3osg5Vec4fE
libosgEarth.so.0:_ZN8osgEarth7Contrib21LinearLineOfSightNode14setDisplayModeENS0_11LineOfSight11DisplayModeE
libosgEarth.so.0:_ZN8osgEarth7Contrib21LinearLineOfSightNode14setTerrainOnlyEb
libosgEarth.so.0:_ZN8osgEarth7Contrib21LinearLineOfSightNode14terrainChangedERKNS_7TileKeyEPN3osg4NodeE
libosgEarth.so.0:_ZN8osgEarth7Contrib21LinearLineOfSightNode18addChangedCallbackEPNS0_18LOSChangedCallbackE
libosgEarth.so.0:_ZN8osgEarth7Contrib21LinearLineOfSightNode18subscribeToTerrainEv
libosgEarth.so.0:_ZN8osgEarth7Contrib21LinearLineOfSightNode21removeChangedCallbackEPNS0_18LOSChangedCallbackE
libosgEarth.so.0:_ZN8osgEarth7Contrib21LinearLineOfSightNode4drawEb
libosgEarth.so.0:_ZN8osgEarth7Contrib21LinearLineOfSightNode6setEndERKNS_8GeoPointE
libosgEarth.so.0:_ZN8osgEarth7Contrib21LinearLineOfSightNode7computeEPN3osg4NodeEb
libosgEarth.so.0:_ZN8osgEarth7Contrib21LinearLineOfSightNode7getNodeEv
libosgEarth.so.0:_ZN8osgEarth7Contrib21LinearLineOfSightNode8setStartERKNS_8GeoPointE
libosgEarth.so.0:_ZN8osgEarth7Contrib21LinearLineOfSightNodeC1EPNS_7MapNodeE
libosgEarth.so.0:_ZN8osgEarth7Contrib21LinearLineOfSightNodeC1EPNS_7MapNodeERKNS_8GeoPointES6_
libosgEarth.so.0:_ZN8osgEarth7Contrib21LinearLineOfSightNodeC2EPNS_7MapNodeE
libosgEarth.so.0:_ZN8osgEarth7Contrib21LinearLineOfSightNodeC2EPNS_7MapNodeERKNS_8GeoPointES6_
libosgEarth.so.0:_ZN8osgEarth7Contrib21LinearLineOfSightNodeD0Ev
libosgEarth.so.0:_ZN8osgEarth7Contrib21LinearLineOfSightNodeD1Ev
libosgEarth.so.0:_ZN8osgEarth7Contrib21LinearLineOfSightNodeD2Ev
libosgEarth.so.0:_ZN8osgEarth7Contrib21RadialLineOfSightNode10setMapNodeEPNS_7MapNodeE
libosgEarth.so.0:_ZN8osgEarth7Contrib21RadialLineOfSightNode11setBadColorERKN3osg5Vec4fE
libosgEarth.so.0:_ZN8osgEarth7Contrib21RadialLineOfSightNode12compute_fillEPN3osg4NodeE
libosgEarth.so.0:_ZN8osgEarth7Contrib21RadialLineOfSightNode12compute_lineEPN3osg4NodeE
libosgEarth.so.0:_ZN8osgEarth7Contrib21RadialLineOfSightNode12setGoodColorERKN3osg5Vec4fE
libosgEarth.so.0:_ZN8osgEarth7Contrib21RadialLineOfSightNode12setNumSpokesEi
libosgEarth.so.0:_ZN8osgEarth7Contrib21RadialLineOfSightNode14setDisplayModeENS0_11LineOfSight11DisplayModeE
libosgEarth.so.0:_ZN8osgEarth7Contrib21RadialLineOfSightNode14setTerrainOnlyEb
libosgEarth.so.0:_ZN8osgEarth7Contrib21RadialLineOfSightNode14terrainChangedERKNS_7TileKeyEPN3osg4NodeE
libosgEarth.so.0:_ZN8osgEarth7Contrib21RadialLineOfSightNode15setOutlineColorERKN3osg5Vec4fE
libosgEarth.so.0:_ZN8osgEarth7Contrib21RadialLineOfSightNode18addChangedCallbackEPNS0_18LOSChangedCallbackE
libosgEarth.so.0:_ZN8osgEarth7Contrib21RadialLineOfSightNode21removeChangedCallbackEPNS0_18LOSChangedCallbackE
libosgEarth.so.0:_ZN8osgEarth7Contrib21RadialLineOfSightNode7computeEPN3osg4NodeE
libosgEarth.so.0:_ZN8osgEarth7Contrib21RadialLineOfSightNode7getNodeEv
libosgEarth.so.0:_ZN8osgEarth7Contrib21RadialLineOfSightNode7setFillEb
libosgEarth.so.0:_ZN8osgEarth7Contrib21RadialLineOfSightNode9setCenterERKNS_8GeoPointE
libosgEarth.so.0:_ZN8osgEarth7Contrib21RadialLineOfSightNode9setRadiusEd
libosgEarth.so.0:_ZN8osgEarth7Contrib21RadialLineOfSightNodeC1EPNS_7MapNodeE
libosgEarth.so.0:_ZN8osgEarth7Contrib21RadialLineOfSightNodeC2EPNS_7MapNodeE
libosgEarth.so.0:_ZN8osgEarth7Contrib21RadialLineOfSightNodeD0Ev
libosgEarth.so.0:_ZN8osgEarth7Contrib21RadialLineOfSightNodeD1Ev
libosgEarth.so.0:_ZN8osgEarth7Contrib21RadialLineOfSightNodeD2Ev
libosgEarth.so.0:_ZN8osgEarth7Contrib23CascadeDrapingDecorator11CameraLocal10initializeEPN3osg6CameraERS1_
libosgEarth.so.0:_ZN8osgEarth7Contrib23CascadeDrapingDecorator11CameraLocal13objectDeletedEPv
libosgEarth.so.0:_ZN8osgEarth7Contrib23CascadeDrapingDecorator11CameraLocal16intersectTerrainERS1_RKN3osg5Vec3dES7_RS5_
libosgEarth.so.0:_ZN8osgEarth7Contrib23CascadeDrapingDecorator11CameraLocal23constrainRttBoxToBoundsERKN3osg7MatrixdERKNS3_18BoundingSphereImplINS3_5Vec3fEEERNS3_15BoundingBoxImplINS3_5Vec3dEEE
libosgEarth.so.0:_ZN8osgEarth7Contrib23CascadeDrapingDecorator11CameraLocal24constrainRttBoxToFrustumERKN3osg7MatrixdES6_RKNS3_14EllipsoidModelEbRNS3_15BoundingBoxImplINS3_5Vec3dEEE
libosgEarth.so.0:_ZN8osgEarth7Contrib23CascadeDrapingDecorator11CameraLocal4dumpEPKN3osg6CameraERS1_
libosgEarth.so.0:_ZN8osgEarth7Contrib23CascadeDrapingDecorator11CameraLocal5clearEv
libosgEarth.so.0:_ZN8osgEarth7Contrib23CascadeDrapingDecorator11CameraLocal8traverseEPN7osgUtil11CullVisitorERS1_RKN3osg18BoundingSphereImplINS7_5Vec3fEEE
libosgEarth.so.0:_ZN8osgEarth7Contrib23CascadeDrapingDecorator11CameraLocalD0Ev
libosgEarth.so.0:_ZN8osgEarth7Contrib23CascadeDrapingDecorator11CameraLocalD1Ev
libosgEarth.so.0:_ZN8osgEarth7Contrib23CascadeDrapingDecorator11CameraLocalD2Ev
libosgEarth.so.0:_ZN8osgEarth7Contrib23CascadeDrapingDecorator13setUseMipMapsEb
libosgEarth.so.0:_ZN8osgEarth7Contrib23CascadeDrapingDecorator14setTextureSizeEj
libosgEarth.so.0:_ZN8osgEarth7Contrib23CascadeDrapingDecorator17setMaxNumCascadesEj
libosgEarth.so.0:_ZN8osgEarth7Contrib23CascadeDrapingDecorator18setNumMultiSamplesEj
libosgEarth.so.0:_ZN8osgEarth7Contrib23CascadeDrapingDecorator22setMinimumNearFarRatioEd
libosgEarth.so.0:_ZN8osgEarth7Contrib23CascadeDrapingDecorator23reserveTextureImageUnitEv
libosgEarth.so.0:_ZN8osgEarth7Contrib23CascadeDrapingDecorator23setUseProjectionFittingEb
libosgEarth.so.0:_ZN8osgEarth7Contrib23CascadeDrapingDecorator7Cascade15expandToIncludeERKN3osg5Vec3dE
libosgEarth.so.0:_ZN8osgEarth7Contrib23CascadeDrapingDecorator7Cascade17computeProjectionERKN3osg7MatrixdES6_RKNS3_14EllipsoidModelERKNS3_5PlaneEdRKNS3_15BoundingBoxImplINS3_5Vec3dEEE
libosgEarth.so.0:_ZN8osgEarth7Contrib23CascadeDrapingDecorator7Cascade19computeClipCoverageERKN3osg7MatrixdES6_
libosgEarth.so.0:_ZN8osgEarth7Contrib23CascadeDrapingDecorator7Cascade8makeProjEd
libosgEarth.so.0:_ZN8osgEarth7Contrib23CascadeDrapingDecorator7getDumpEv
libosgEarth.so.0:_ZN8osgEarth7Contrib23CascadeDrapingDecorator8traverseERN3osg11NodeVisitorE
libosgEarth.so.0:_ZN8osgEarth7Contrib23CascadeDrapingDecoratorC1EPKNS_16SpatialReferenceEPNS_16TerrainResourcesE
libosgEarth.so.0:_ZN8osgEarth7Contrib23CascadeDrapingDecoratorC2EPKNS_16SpatialReferenceEPNS_16TerrainResourcesE
libosgEarth.so.0:_ZN8osgEarth7Contrib23LinearLineOfSightEditor14updateDraggersEv
libosgEarth.so.0:_ZN8osgEarth7Contrib23LinearLineOfSightEditorC1EPNS0_21LinearLineOfSightNodeE
libosgEarth.so.0:_ZN8osgEarth7Contrib23LinearLineOfSightEditorC2EPNS0_21LinearLineOfSightNodeE
libosgEarth.so.0:_ZN8osgEarth7Contrib23LinearLineOfSightEditorD0Ev
libosgEarth.so.0:_ZN8osgEarth7Contrib23LinearLineOfSightEditorD1Ev
libosgEarth.so.0:_ZN8osgEarth7Contrib23LinearLineOfSightEditorD2Ev
libosgEarth.so.0:_ZN8osgEarth7Contrib23RadialLineOfSightEditor14updateDraggersEv
libosgEarth.so.0:_ZN8osgEarth7Contrib23RadialLineOfSightEditorC1EPNS0_21RadialLineOfSightNodeE
libosgEarth.so.0:_ZN8osgEarth7Contrib23RadialLineOfSightEditorC2EPNS0_21RadialLineOfSightNodeE
libosgEarth.so.0:_ZN8osgEarth7Contrib23RadialLineOfSightEditorD0Ev
libosgEarth.so.0:_ZN8osgEarth7Contrib23RadialLineOfSightEditorD1Ev
libosgEarth.so.0:_ZN8osgEarth7Contrib23RadialLineOfSightEditorD2Ev
libosgEarth.so.0:_ZN8osgEarth7Contrib23RadialLineOfSightTetherC1EPN3osg4NodeE
libosgEarth.so.0:_ZN8osgEarth7Contrib23RadialLineOfSightTetherC2EPN3osg4NodeE
libosgEarth.so.0:_ZN8osgEarth7Contrib23RadialLineOfSightTetherclEPN3osg4NodeEPNS2_11NodeVisitorE
libosgEarth.so.0:_ZN8osgEarth7Contrib24MouseCoordsLabelCallback3setERKNS_8GeoPointEPN3osg4ViewEPNS_7MapNodeE
libosgEarth.so.0:_ZN8osgEarth7Contrib24MouseCoordsLabelCallback5resetEPN3osg4ViewEPNS_7MapNodeE
libosgEarth.so.0:_ZN8osgEarth7Contrib24MouseCoordsLabelCallbackC1EPNS_4Util8Controls12LabelControlEPNS2_9FormatterE
libosgEarth.so.0:_ZN8osgEarth7Contrib24MouseCoordsLabelCallbackC2EPNS_4Util8Controls12LabelControlEPNS2_9FormatterE
libosgEarth.so.0:_ZN8osgEarth7Contrib24TerrainProfileCalculator10setMapNodeEPNS_7MapNodeE
libosgEarth.so.0:_ZN8osgEarth7Contrib24TerrainProfileCalculator11setStartEndERKNS_8GeoPointES4_
libosgEarth.so.0:_ZN8osgEarth7Contrib24TerrainProfileCalculator12onTileUpdateERKNS_7TileKeyEPN3osg4NodeERNS_22TerrainCallbackContextE
libosgEarth.so.0:_ZN8osgEarth7Contrib24TerrainProfileCalculator18addChangedCallbackEPNS1_15ChangedCallbackE
libosgEarth.so.0:_ZN8osgEarth7Contrib24TerrainProfileCalculator21computeTerrainProfileEPNS_7MapNodeERKNS_8GeoPointES6_RNS0_14TerrainProfileE
libosgEarth.so.0:_ZN8osgEarth7Contrib24TerrainProfileCalculator21removeChangedCallbackEPNS1_15ChangedCallbackE
libosgEarth.so.0:_ZN8osgEarth7Contrib24TerrainProfileCalculator9recomputeEv
libosgEarth.so.0:_ZN8osgEarth7Contrib24TerrainProfileCalculatorC1EPNS_7MapNodeE
libosgEarth.so.0:_ZN8osgEarth7Contrib24TerrainProfileCalculatorC1EPNS_7MapNodeERKNS_8GeoPointES6_
libosgEarth.so.0:_ZN8osgEarth7Contrib24TerrainProfileCalculatorC2EPNS_7MapNodeE
libosgEarth.so.0:_ZN8osgEarth7Contrib24TerrainProfileCalculatorC2EPNS_7MapNodeERKNS_8GeoPointES6_
libosgEarth.so.0:_ZN8osgEarth7Contrib24TerrainProfileCalculatorD0Ev
libosgEarth.so.0:_ZN8osgEarth7Contrib24TerrainProfileCalculatorD1Ev
libosgEarth.so.0:_ZN8osgEarth7Contrib24TerrainProfileCalculatorD2Ev
libosgEarth.so.0:_ZN8osgEarth7Contrib24TileSourceElevationLayer18openImplementationEv
libosgEarth.so.0:_ZN8osgEarth7Contrib24TileSourceElevationLayer4initEv
libosgEarth.so.0:_ZN8osgEarth7Contrib24TileSourceElevationLayer7Options10fromConfigERKNS_6ConfigE
libosgEarth.so.0:_ZN8osgEarth7Contrib7Callout6acceptERN3osg11NodeVisitorE
libosgEarth.so.0:_ZN8osgEarth7Contrib7CalloutC1EPNS0_14CalloutManagerE
libosgEarth.so.0:_ZN8osgEarth7Contrib7CalloutC2EPNS0_14CalloutManagerE
libosgEarth.so.0:_ZN8osgEarth7Contrib7HTMNode5splitEv
libosgEarth.so.0:_ZN8osgEarth7Contrib7HTMNode6insertEPN3osg4NodeE
libosgEarth.so.0:_ZN8osgEarth7Contrib7HTMNode8Triangle3setERKN3osg5Vec3dES6_S6_
libosgEarth.so.0:_ZN8osgEarth7Contrib7HTMNode8traverseERN3osg11NodeVisitorE
libosgEarth.so.0:_ZN8osgEarth7Contrib7HTMNodeC1ERNS0_11HTMSettingsERKN3osg5Vec3dES7_S7_RKNSt7__cxx1112basic_stringIcSt11char_traitsIcESaIcEEE
libosgEarth.so.0:_ZN8osgEarth7Contrib7HTMNodeC2ERNS0_11HTMSettingsERKN3osg5Vec3dES7_S7_RKNSt7__cxx1112basic_stringIcSt11char_traitsIcESaIcEEE
libosgEarth.so.0:_ZN8osgEarth7Contrib8HTMGroup11insertChildEjPN3osg4NodeE
libosgEarth.so.0:_ZN8osgEarth7Contrib8HTMGroup12reinitializeEv
libosgEarth.so.0:_ZN8osgEarth7Contrib8HTMGroup12replaceChildEPN3osg4NodeES4_
libosgEarth.so.0:_ZN8osgEarth7Contrib8HTMGroup14removeChildrenEjj
libosgEarth.so.0:_ZN8osgEarth7Contrib8HTMGroup6insertEPN3osg4NodeE
libosgEarth.so.0:_ZN8osgEarth7Contrib8HTMGroup8addChildEPN3osg4NodeE
libosgEarth.so.0:_ZN8osgEarth7Contrib8HTMGroup8setChildEjPN3osg4NodeE
libosgEarth.so.0:_ZN8osgEarth7Contrib8HTMGroupC1Ev
libosgEarth.so.0:_ZN8osgEarth7Contrib8HTMGroupC2Ev
libosgEarth.so.0:_ZN8osgEarth7Contrib9CacheSeed10setVisitorEPNS_4Util11TileVisitorE
libosgEarth.so.0:_ZN8osgEarth7Contrib9CacheSeed3runEPNS_9TileLayerEPKNS_3MapE
libosgEarth.so.0:_ZN8osgEarth7Contrib9CacheSeedC1Ev
libosgEarth.so.0:_ZN8osgEarth7Contrib9CacheSeedC2Ev
libosgEarth.so.0:_ZN8osgEarth7Contrib9CubeUtils10cubeToFaceERdS2_Ri
libosgEarth.so.0:_ZN8osgEarth7Contrib9CubeUtils10cubeToFaceERdS2_S2_S2_Ri
libosgEarth.so.0:_ZN8osgEarth7Contrib9CubeUtils10faceToCubeERdS2_i
libosgEarth.so.0:_ZN8osgEarth7Contrib9CubeUtils18faceCoordsToLatLonEddiRdS2_
libosgEarth.so.0:_ZN8osgEarth7Contrib9CubeUtils18latLonToFaceCoordsEddRdS2_Rii
libosgEarth.so.0:_ZN8osgEarth7Contrib9TileIndex3addERKNSt7__cxx1112basic_stringIcSt11char_traitsIcESaIcEEERKNS_9GeoExtentE
libosgEarth.so.0:_ZN8osgEarth7Contrib9TileIndex4loadERKNSt7__cxx1112basic_stringIcSt11char_traitsIcESaIcEEE
libosgEarth.so.0:_ZN8osgEarth7Contrib9TileIndex6createERKNSt7__cxx1112basic_stringIcSt11char_traitsIcESaIcEEEPKNS_16SpatialReferenceE
libosgEarth.so.0:_ZN8osgEarth7Contrib9TileIndex8getFilesERKNS_9GeoExtentERSt6vectorINSt7__cxx1112basic_stringIcSt11char_traitsIcESaIcEEESaISB_EE
libosgEarth.so.0:_ZN8osgEarth7Contrib9TileIndexC1Ev
libosgEarth.so.0:_ZN8osgEarth7Contrib9TileIndexC2Ev
libosgEarth.so.0:_ZN8osgEarth7Contrib9TileIndexD0Ev
libosgEarth.so.0:_ZN8osgEarth7Contrib9TileIndexD1Ev
libosgEarth.so.0:_ZN8osgEarth7Contrib9TileIndexD2Ev
libosgEarth.so.0:_ZN8osgEarth7Dragger11setPositionERKNS_8GeoPointE
libosgEarth.so.0:_ZN8osgEarth7Dragger11setPositionERKNS_8GeoPointEb
libosgEarth.so.0:_ZN8osgEarth7Dragger19firePositionChangedEv
libosgEarth.so.0:_ZN8osgEarth7Dragger26addPositionChangedCallbackEPNS0_23PositionChangedCallbackE
libosgEarth.so.0:_ZN8osgEarth7Dragger29removePositionChangedCallbackEPNS0_23PositionChangedCallbackE
libosgEarth.so.0:_ZN8osgEarth7Dragger5enterEv
libosgEarth.so.0:_ZN8osgEarth7Dragger5leaveEv
libosgEarth.so.0:_ZN8osgEarth7Dragger6handleERKN5osgGA15GUIEventAdapterERNS1_16GUIActionAdapterE
libosgEarth.so.0:_ZN8osgEarth7Dragger8setHoverEb
libosgEarth.so.0:_ZN8osgEarth7Dragger8traverseERN3osg11NodeVisitorE
libosgEarth.so.0:_ZN8osgEarth7DraggerC1EPNS_7MapNodeEiRKNS0_8DragModeE
libosgEarth.so.0:_ZN8osgEarth7DraggerC2EPNS_7MapNodeEiRKNS0_8DragModeE
libosgEarth.so.0:_ZN8osgEarth7DraggerD0Ev
libosgEarth.so.0:_ZN8osgEarth7DraggerD1Ev
libosgEarth.so.0:_ZN8osgEarth7DraggerD2Ev
libosgEarth.so.0:_ZN8osgEarth7Feature11setGeometryEPNS_8GeometryE
libosgEarth.so.0:_ZN8osgEarth7Feature17featuresToGeoJSONERKNSt7__cxx114listIN3osg7ref_ptrIS0_EESaIS5_EEE
libosgEarth.so.0:_ZN8osgEarth7Feature19splitAcrossDateLineERNSt7__cxx114listIN3osg7ref_ptrIS0_EESaIS5_EEE
libosgEarth.so.0:_ZN8osgEarth7Feature24getWorldBoundingPolytopeERKN3osg18BoundingSphereImplINS1_5Vec3dEEEPKNS_16SpatialReferenceERNS1_8PolytopeE
libosgEarth.so.0:_ZN8osgEarth7Feature3setERKNSt7__cxx1112basic_stringIcSt11char_traitsIcESaIcEEERKNS_14AttributeValueE
libosgEarth.so.0:_ZN8osgEarth7Feature3setERKNSt7__cxx1112basic_stringIcSt11char_traitsIcESaIcEEERKSt6vectorIdSaIdEE
libosgEarth.so.0:_ZN8osgEarth7Feature3setERKNSt7__cxx1112basic_stringIcSt11char_traitsIcESaIcEEES8_
libosgEarth.so.0:_ZN8osgEarth7Feature3setERKNSt7__cxx1112basic_stringIcSt11char_traitsIcESaIcEEEb
libosgEarth.so.0:_ZN8osgEarth7Feature3setERKNSt7__cxx1112basic_stringIcSt11char_traitsIcESaIcEEEd
libosgEarth.so.0:_ZN8osgEarth7Feature3setERKNSt7__cxx1112basic_stringIcSt11char_traitsIcESaIcEEEi
libosgEarth.so.0:_ZN8osgEarth7Feature3setERKNSt7__cxx1112basic_stringIcSt11char_traitsIcESaIcEEEx
libosgEarth.so.0:_ZN8osgEarth7Feature5dirtyEv
libosgEarth.so.0:_ZN8osgEarth7Feature6setFIDEx
libosgEarth.so.0:_ZN8osgEarth7Feature6setSRSEPKNS_16SpatialReferenceE
libosgEarth.so.0:_ZN8osgEarth7Feature7setNullERKNSt7__cxx1112basic_stringIcSt11char_traitsIcESaIcEEE
libosgEarth.so.0:_ZN8osgEarth7Feature7setNullERKNSt7__cxx1112basic_stringIcSt11char_traitsIcESaIcEEENS_13AttributeTypeE
libosgEarth.so.0:_ZN8osgEarth7Feature7setSwapERKNSt7__cxx1112basic_stringIcSt11char_traitsIcESaIcEEERSt6vectorIdSaIdEE
libosgEarth.so.0:_ZN8osgEarth7Feature9transformEPKNS_16SpatialReferenceE
libosgEarth.so.0:_ZN8osgEarth7FeatureC1EPNS_8GeometryEPKNS_16SpatialReferenceERKNS_5StyleEx
libosgEarth.so.0:_ZN8osgEarth7FeatureC1ERKS0_RKN3osg6CopyOpE
libosgEarth.so.0:_ZN8osgEarth7FeatureC1Ev
libosgEarth.so.0:_ZN8osgEarth7FeatureC1Ex
libosgEarth.so.0:_ZN8osgEarth7FeatureC2EPNS_8GeometryEPKNS_16SpatialReferenceERKNS_5StyleEx
libosgEarth.so.0:_ZN8osgEarth7FeatureC2ERKS0_RKN3osg6CopyOpE
libosgEarth.so.0:_ZN8osgEarth7FeatureC2Ev
libosgEarth.so.0:_ZN8osgEarth7FeatureC2Ex
libosgEarth.so.0:_ZN8osgEarth7FeatureD0Ev
libosgEarth.so.0:_ZN8osgEarth7FeatureD1Ev
libosgEarth.so.0:_ZN8osgEarth7FeatureD2Ev
libosgEarth.so.0:_ZN8osgEarth7GLUtils11setLightingEPN3osg8StateSetEj
libosgEarth.so.0:_ZN8osgEarth7GLUtils12setLineWidthEPN3osg8StateSetEfj
libosgEarth.so.0:_ZN8osgEarth7GLUtils12setPointSizeEPN3osg8StateSetEfj
libosgEarth.so.0:_ZN8osgEarth7GLUtils13setLineSmoothEPN3osg8StateSetEj
libosgEarth.so.0:_ZN8osgEarth7GLUtils14setLineStippleEPN3osg8StateSetEitj
libosgEarth.so.0:_ZN8osgEarth7GLUtils14setPointSmoothEPN3osg8StateSetEj
libosgEarth.so.0:_ZN8osgEarth7GLUtils17setGlobalDefaultsEPN3osg8StateSetE
libosgEarth.so.0:_ZN8osgEarth7GLUtils6removeEPN3osg8StateSetEj
libosgEarth.so.0:_ZN8osgEarth7GeoMath11destinationEddddRdS1_d
libosgEarth.so.0:_ZN8osgEarth7GeoMath12rhumbBearingEdddd
libosgEarth.so.0:_ZN8osgEarth7GeoMath13rhumbDistanceERKSt6vectorIN3osg5Vec3dESaIS3_EEd
libosgEarth.so.0:_ZN8osgEarth7GeoMath13rhumbDistanceEddddd
libosgEarth.so.0:_ZN8osgEarth7GeoMath14isPointVisibleERKN3osg5Vec3dES4_d
libosgEarth.so.0:_ZN8osgEarth7GeoMath16rhumbDestinationEddddRdS1_d
libosgEarth.so.0:_ZN8osgEarth7GeoMath22intersectLineWithPlaneERKN3osg5Vec3dES4_RKNS1_5PlaneERS2_
libosgEarth.so.0:_ZN8osgEarth7GeoMath24interesectLineWithSphereERKN3osg5Vec3dES4_dRS2_S5_
libosgEarth.so.0:_ZN8osgEarth7GeoMath25greatCircleMinMaxLatitudeEddddRdS1_
libosgEarth.so.0:_ZN8osgEarth7GeoMath7bearingEdddd
libosgEarth.so.0:_ZN8osgEarth7GeoMath8distanceERKN3osg5Vec3dES4_PKNS_16SpatialReferenceE
libosgEarth.so.0:_ZN8osgEarth7GeoMath8distanceERKSt6vectorIN3osg5Vec3dESaIS3_EEd
libosgEarth.so.0:_ZN8osgEarth7GeoMath8distanceEddddd
libosgEarth.so.0:_ZN8osgEarth7GeoMath8midpointEddddRdS1_
libosgEarth.so.0:_ZN8osgEarth7GeoNodeC1EPN3osg4NodeERKNS_9GeoExtentE
libosgEarth.so.0:_ZN8osgEarth7GeoNodeC1ERKNS_6StatusE
libosgEarth.so.0:_ZN8osgEarth7GeoNodeC1Ev
libosgEarth.so.0:_ZN8osgEarth7GeoNodeC2EPN3osg4NodeERKNS_9GeoExtentE
libosgEarth.so.0:_ZN8osgEarth7GeoNodeC2ERKNS_6StatusE
libosgEarth.so.0:_ZN8osgEarth7GeoNodeC2Ev
libosgEarth.so.0:_ZN8osgEarth7Horizon12setEllipsoidERKN3osg14EllipsoidModelE
libosgEarth.so.0:_ZN8osgEarth7Horizon3getERN3osg11NodeVisitorE
libosgEarth.so.0:_ZN8osgEarth7Horizon3putERN3osg11NodeVisitorE
libosgEarth.so.0:_ZN8osgEarth7Horizon6setEyeERKN3osg5Vec3dE
libosgEarth.so.0:_ZN8osgEarth7Horizon9setMinHAEEd
libosgEarth.so.0:_ZN8osgEarth7HorizonC1EPKNS_16SpatialReferenceE
libosgEarth.so.0:_ZN8osgEarth7HorizonC1ERKN3osg14EllipsoidModelE
libosgEarth.so.0:_ZN8osgEarth7HorizonC1ERKS0_RKN3osg6CopyOpE
libosgEarth.so.0:_ZN8osgEarth7HorizonC1Ev
libosgEarth.so.0:_ZN8osgEarth7HorizonC2EPKNS_16SpatialReferenceE
libosgEarth.so.0:_ZN8osgEarth7HorizonC2ERKN3osg14EllipsoidModelE
libosgEarth.so.0:_ZN8osgEarth7HorizonC2ERKS0_RKN3osg6CopyOpE
libosgEarth.so.0:_ZN8osgEarth7HorizonC2Ev
libosgEarth.so.0:_ZN8osgEarth7MBTiles6Driver11getMetaDataERKNSt7__cxx1112basic_stringIcSt11char_traitsIcESaIcEEERS7_
libosgEarth.so.0:_ZN8osgEarth7MBTiles6Driver11putMetaDataERKNSt7__cxx1112basic_stringIcSt11char_traitsIcESaIcEEES9_
libosgEarth.so.0:_ZN8osgEarth7MBTiles6Driver12createTablesEv
libosgEarth.so.0:_ZN8osgEarth7MBTiles6Driver13computeLevelsEv
libosgEarth.so.0:_ZN8osgEarth7MBTiles6Driver14setDataExtentsERKSt6vectorINS_10DataExtentESaIS3_EE
libosgEarth.so.0:_ZN8osgEarth7MBTiles6Driver4openERKNSt7__cxx1112basic_stringIcSt11char_traitsIcESaIcEEERKNS0_7OptionsEbRKNS_8optionalIS7_EERN3osg7ref_ptrIKNS_7ProfileEEERSt6vectorINS_10DataExtentESaISO_EEPKN5osgDB7OptionsE
libosgEarth.so.0:_ZN8osgEarth7MBTiles6DriverC1Ev
libosgEarth.so.0:_ZN8osgEarth7MBTiles6DriverC2Ev
libosgEarth.so.0:_ZN8osgEarth7MBTiles7Options8readFromERKNS_6ConfigE
libosgEarth.so.0:_ZN8osgEarth7MapNode10getTerrainEv
libosgEarth.so.0:_ZN8osgEarth7MapNode11findMapNodeEPN3osg4NodeEj
libosgEarth.so.0:_ZN8osgEarth7MapNode12addExtensionEPNS_9ExtensionEPKN5osgDB7OptionsE
libosgEarth.so.0:_ZN8osgEarth7MapNode12onLayerAddedEPNS_5LayerEj
libosgEarth.so.0:_ZN8osgEarth7MapNode12onLayerMovedEPNS_5LayerEjj
libosgEarth.so.0:_ZN8osgEarth7MapNode13openMapLayersEv
libosgEarth.so.0:_ZN8osgEarth7MapNode14onLayerRemovedEPNS_5LayerEj
libosgEarth.so.0:_ZN8osgEarth7MapNode15clearExtensionsEv
libosgEarth.so.0:_ZN8osgEarth7MapNode15removeExtensionEPNS_9ExtensionE
libosgEarth.so.0:_ZN8osgEarth7MapNode17getDrapingManagerEv
libosgEarth.so.0:_ZN8osgEarth7MapNode17getTerrainOptionsEv
libosgEarth.so.0:_ZN8osgEarth7MapNode17setEnableLightingERKb
libosgEarth.so.0:_ZN8osgEarth7MapNode18getClampingManagerEv
libosgEarth.so.0:_ZN8osgEarth7MapNode21resizeGLObjectBuffersEj
libosgEarth.so.0:_ZN8osgEarth7MapNode4initEv
libosgEarth.so.0:_ZN8osgEarth7MapNode4loadERN3osg14ArgumentParserE
libosgEarth.so.0:_ZN8osgEarth7MapNode4loadERN3osg14ArgumentParserERKNS0_7OptionsE
libosgEarth.so.0:_ZN8osgEarth7MapNode4openEv
libosgEarth.so.0:_ZN8osgEarth7MapNode6getMapEv
libosgEarth.so.0:_ZN8osgEarth7MapNode7Options10fromConfigERKNS_6ConfigE
libosgEarth.so.0:_ZN8osgEarth7MapNode8traverseERN3osg11NodeVisitorE
libosgEarth.so.0:_ZN8osgEarth7MapNodeC1EPNS_3MapE
libosgEarth.so.0:_ZN8osgEarth7MapNodeC1EPNS_3MapERKNS0_7OptionsE
libosgEarth.so.0:_ZN8osgEarth7MapNodeC1ERKNS0_7OptionsE
libosgEarth.so.0:_ZN8osgEarth7MapNodeC1Ev
libosgEarth.so.0:_ZN8osgEarth7MapNodeC2EPNS_3MapE
libosgEarth.so.0:_ZN8osgEarth7MapNodeC2EPNS_3MapERKNS0_7OptionsE
libosgEarth.so.0:_ZN8osgEarth7MapNodeC2ERKNS0_7OptionsE
libosgEarth.so.0:_ZN8osgEarth7MapNodeC2Ev
libosgEarth.so.0:_ZN8osgEarth7MapNodeD0Ev
libosgEarth.so.0:_ZN8osgEarth7MapNodeD1Ev
libosgEarth.so.0:_ZN8osgEarth7MapNodeD2Ev
libosgEarth.so.0:_ZN8osgEarth7Polygon16removeDuplicatesEv
libosgEarth.so.0:_ZN8osgEarth7Polygon20removeColinearPointsEv
libosgEarth.so.0:_ZN8osgEarth7Polygon4openEv
libosgEarth.so.0:_ZN8osgEarth7Polygon5closeEv
libosgEarth.so.0:_ZN8osgEarth7PolygonC1EPKSt6vectorIN3osg5Vec3dESaIS3_EE
libosgEarth.so.0:_ZN8osgEarth7PolygonC1ERKS0_
libosgEarth.so.0:_ZN8osgEarth7PolygonC2EPKSt6vectorIN3osg5Vec3dESaIS3_EE
libosgEarth.so.0:_ZN8osgEarth7PolygonC2ERKS0_
libosgEarth.so.0:_ZN8osgEarth7PolygonD0Ev
libosgEarth.so.0:_ZN8osgEarth7PolygonD1Ev
libosgEarth.so.0:_ZN8osgEarth7PolygonD2Ev
libosgEarth.so.0:_ZN8osgEarth7Profile15calculateExtentEjjj
libosgEarth.so.0:_ZN8osgEarth7Profile21getProfileTypeFromSRSERKNSt7__cxx1112basic_stringIcSt11char_traitsIcESaIcEEE
libosgEarth.so.0:_ZN8osgEarth7Profile6createEPKNS_16SpatialReferenceEddddddddjj
libosgEarth.so.0:_ZN8osgEarth7Profile6createEPKNS_16SpatialReferenceEddddjj
libosgEarth.so.0:_ZN8osgEarth7Profile6createERKNS_14ProfileOptionsE
libosgEarth.so.0:_ZN8osgEarth7Profile6createERKNSt7__cxx1112basic_stringIcSt11char_traitsIcESaIcEEE
libosgEarth.so.0:_ZN8osgEarth7Profile6createERKNSt7__cxx1112basic_stringIcSt11char_traitsIcESaIcEEES8_jj
libosgEarth.so.0:_ZN8osgEarth7Profile6createERKNSt7__cxx1112basic_stringIcSt11char_traitsIcESaIcEEEddddS8_jj
libosgEarth.so.0:_ZN8osgEarth7ProfileC1EPKNS_16SpatialReferenceEddddddddjj
libosgEarth.so.0:_ZN8osgEarth7ProfileC1EPKNS_16SpatialReferenceEddddjj
libosgEarth.so.0:_ZN8osgEarth7ProfileC2EPKNS_16SpatialReferenceEddddddddjj
libosgEarth.so.0:_ZN8osgEarth7ProfileC2EPKNS_16SpatialReferenceEddddjj
libosgEarth.so.0:_ZN8osgEarth7SkyNode11setDateTimeERKNS_8DateTimeE
libosgEarth.so.0:_ZN8osgEarth7SkyNode11setLightingEj
libosgEarth.so.0:_ZN8osgEarth7SkyNode12setEphemerisEPNS_9EphemerisE
libosgEarth.so.0:_ZN8osgEarth7SkyNode13setSunVisibleEb
libosgEarth.so.0:_ZN8osgEarth7SkyNode14setMoonVisibleEb
libosgEarth.so.0:_ZN8osgEarth7SkyNode15setStarsVisibleEb
libosgEarth.so.0:_ZN8osgEarth7SkyNode17setReferencePointERKNS_8GeoPointE
libosgEarth.so.0:_ZN8osgEarth7SkyNode20setAtmosphereVisibleEb
libosgEarth.so.0:_ZN8osgEarth7SkyNode6createERKNS_10SkyOptionsE
libosgEarth.so.0:_ZN8osgEarth7SkyNode6createERKNSt7__cxx1112basic_stringIcSt11char_traitsIcESaIcEEE
libosgEarth.so.0:_ZN8osgEarth7SkyNode6createEv
libosgEarth.so.0:_ZN8osgEarth7SkyNode8baseInitERKNS_10SkyOptionsE
libosgEarth.so.0:_ZN8osgEarth7SkyNodeC1ERKNS_10SkyOptionsE
libosgEarth.so.0:_ZN8osgEarth7SkyNodeC1Ev
libosgEarth.so.0:_ZN8osgEarth7SkyNodeC2ERKNS_10SkyOptionsE
libosgEarth.so.0:_ZN8osgEarth7SkyNodeC2Ev
libosgEarth.so.0:_ZN8osgEarth7SkyNodeD0Ev
libosgEarth.so.0:_ZN8osgEarth7SkyNodeD1Ev
libosgEarth.so.0:_ZN8osgEarth7SkyNodeD2Ev
libosgEarth.so.0:_ZN8osgEarth7Terrain14fireTileUpdateERKNS_7TileKeyEPN3osg4NodeE
libosgEarth.so.0:_ZN8osgEarth7Terrain16notifyTileUpdateERKNS_7TileKeyEPN3osg4NodeE
libosgEarth.so.0:_ZN8osgEarth7Terrain18addTerrainCallbackEPNS_15TerrainCallbackE
libosgEarth.so.0:_ZN8osgEarth7Terrain21onTileUpdateOperationC1ERKNS_7TileKeyEPN3osg4NodeEPS0_
libosgEarth.so.0:_ZN8osgEarth7Terrain21onTileUpdateOperationC2ERKNS_7TileKeyEPN3osg4NodeEPS0_
libosgEarth.so.0:_ZN8osgEarth7Terrain21onTileUpdateOperationclEPN3osg6ObjectE
libosgEarth.so.0:_ZN8osgEarth7Terrain21removeTerrainCallbackEPNS_15TerrainCallbackE
libosgEarth.so.0:_ZN8osgEarth7Terrain23fireMapElevationChangedEv
libosgEarth.so.0:_ZN8osgEarth7Terrain25notifyMapElevationChangedEv
libosgEarth.so.0:_ZN8osgEarth7Terrain6acceptERN3osg11NodeVisitorE
libosgEarth.so.0:_ZN8osgEarth7Terrain6updateEv
libosgEarth.so.0:_ZN8osgEarth7TerrainC1EPN3osg4NodeEPKNS_7ProfileE
libosgEarth.so.0:_ZN8osgEarth7TerrainC2EPN3osg4NodeEPKNS_7ProfileE
libosgEarth.so.0:_ZN8osgEarth7TileKeyC1ERKS0_
libosgEarth.so.0:_ZN8osgEarth7TileKeyC1EjjjPKNS_7ProfileE
libosgEarth.so.0:_ZN8osgEarth7TileKeyC2ERKS0_
libosgEarth.so.0:_ZN8osgEarth7TileKeyC2EjjjPKNS_7ProfileE
libosgEarth.so.0:_ZN8osgEarth8CacheBin9writeNodeERKNSt7__cxx1112basic_stringIcSt11char_traitsIcESaIcEEEPN3osg4NodeERKNS_6ConfigEPKN5osgDB7OptionsE
libosgEarth.so.0:_ZN8osgEarth8DateTimeC1ERK2tm
libosgEarth.so.0:_ZN8osgEarth8DateTimeC1ERKNSt7__cxx1112basic_stringIcSt11char_traitsIcESaIcEEE
libosgEarth.so.0:_ZN8osgEarth8DateTimeC1ERKS0_
libosgEarth.so.0:_ZN8osgEarth8DateTimeC1Eid
libosgEarth.so.0:_ZN8osgEarth8DateTimeC1Eiiid
libosgEarth.so.0:_ZN8osgEarth8DateTimeC1El
libosgEarth.so.0:_ZN8osgEarth8DateTimeC1Ev
libosgEarth.so.0:_ZN8osgEarth8DateTimeC2ERK2tm
libosgEarth.so.0:_ZN8osgEarth8DateTimeC2ERKNSt7__cxx1112basic_stringIcSt11char_traitsIcESaIcEEE
libosgEarth.so.0:_ZN8osgEarth8DateTimeC2ERKS0_
libosgEarth.so.0:_ZN8osgEarth8DateTimeC2Eid
libosgEarth.so.0:_ZN8osgEarth8DateTimeC2Eiiid
libosgEarth.so.0:_ZN8osgEarth8DateTimeC2El
libosgEarth.so.0:_ZN8osgEarth8DateTimeC2Ev
libosgEarth.so.0:_ZN8osgEarth8GeoImage14applyAlphaMaskERKNS_9GeoExtentE
libosgEarth.so.0:_ZN8osgEarth8GeoImage20addTransparentBorderEbbbb
libosgEarth.so.0:_ZN8osgEarth8GeoImage9takeImageEv
libosgEarth.so.0:_ZN8osgEarth8GeoImageC1ENS_9Threading6FutureIN3osg5ImageEEERKNS_9GeoExtentE
libosgEarth.so.0:_ZN8osgEarth8GeoImageC1EPN3osg5ImageERKNS_9GeoExtentE
libosgEarth.so.0:_ZN8osgEarth8GeoImageC1ERKNS_6StatusE
libosgEarth.so.0:_ZN8osgEarth8GeoImageC1Ev
libosgEarth.so.0:_ZN8osgEarth8GeoImageC2ENS_9Threading6FutureIN3osg5ImageEEERKNS_9GeoExtentE
libosgEarth.so.0:_ZN8osgEarth8GeoImageC2EPN3osg5ImageERKNS_9GeoExtentE
libosgEarth.so.0:_ZN8osgEarth8GeoImageC2ERKNS_6StatusE
libosgEarth.so.0:_ZN8osgEarth8GeoImageC2Ev
libosgEarth.so.0:_ZN8osgEarth8GeoPoint10transformZERKNS_12AltitudeModeEPKNS_15TerrainResolverE
libosgEarth.so.0:_ZN8osgEarth8GeoPoint14makeGeographicEv
libosgEarth.so.0:_ZN8osgEarth8GeoPoint16transformInPlaceEPKNS_16SpatialReferenceE
libosgEarth.so.0:_ZN8osgEarth8GeoPoint3setEPKNS_16SpatialReferenceERKN3osg5Vec3dERKNS_12AltitudeModeE
libosgEarth.so.0:_ZN8osgEarth8GeoPoint3setEPKNS_16SpatialReferenceEdddRKNS_12AltitudeModeE
libosgEarth.so.0:_ZN8osgEarth8GeoPoint9fromWorldEPKNS_16SpatialReferenceERKN3osg5Vec3dE
libosgEarth.so.0:_ZN8osgEarth8GeoPointC1EPKNS_16SpatialReferenceERKN3osg5Vec3dE
libosgEarth.so.0:_ZN8osgEarth8GeoPointC1EPKNS_16SpatialReferenceERKN3osg5Vec3dERKNS_12AltitudeModeE
libosgEarth.so.0:_ZN8osgEarth8GeoPointC1EPKNS_16SpatialReferenceERKS0_
libosgEarth.so.0:_ZN8osgEarth8GeoPointC1EPKNS_16SpatialReferenceEdd
libosgEarth.so.0:_ZN8osgEarth8GeoPointC1EPKNS_16SpatialReferenceEddd
libosgEarth.so.0:_ZN8osgEarth8GeoPointC1EPKNS_16SpatialReferenceEdddRKNS_12AltitudeModeE
libosgEarth.so.0:_ZN8osgEarth8GeoPointC1ERKNS_6ConfigEPKNS_16SpatialReferenceE
libosgEarth.so.0:_ZN8osgEarth8GeoPointC1ERKS0_
libosgEarth.so.0:_ZN8osgEarth8GeoPointC1Ev
libosgEarth.so.0:_ZN8osgEarth8GeoPointC2EPKNS_16SpatialReferenceERKN3osg5Vec3dE
libosgEarth.so.0:_ZN8osgEarth8GeoPointC2EPKNS_16SpatialReferenceERKN3osg5Vec3dERKNS_12AltitudeModeE
libosgEarth.so.0:_ZN8osgEarth8GeoPointC2EPKNS_16SpatialReferenceERKS0_
libosgEarth.so.0:_ZN8osgEarth8GeoPointC2EPKNS_16SpatialReferenceEdd
libosgEarth.so.0:_ZN8osgEarth8GeoPointC2EPKNS_16SpatialReferenceEddd
libosgEarth.so.0:_ZN8osgEarth8GeoPointC2EPKNS_16SpatialReferenceEdddRKNS_12AltitudeModeE
libosgEarth.so.0:_ZN8osgEarth8GeoPointC2ERKNS_6ConfigEPKNS_16SpatialReferenceE
libosgEarth.so.0:_ZN8osgEarth8GeoPointC2ERKS0_
libosgEarth.so.0:_ZN8osgEarth8GeoPointC2Ev
libosgEarth.so.0:_ZN8osgEarth8Geometry10delocalizeERKN3osg5Vec3dE
libosgEarth.so.0:_ZN8osgEarth8Geometry16removeDuplicatesEv
libosgEarth.so.0:_ZN8osgEarth8Geometry18hasBufferOperationEv
libosgEarth.so.0:_ZN8osgEarth8Geometry20removeColinearPointsEv
libosgEarth.so.0:_ZN8osgEarth8Geometry5closeEv
libosgEarth.so.0:_ZN8osgEarth8Geometry6createENS0_4TypeEPKSt6vectorIN3osg5Vec3dESaIS4_EE
libosgEarth.so.0:_ZN8osgEarth8Geometry6rewindENS0_11OrientationE
libosgEarth.so.0:_ZN8osgEarth8Geometry8localizeEv
libosgEarth.so.0:_ZN8osgEarth8GeometryC1EPKSt6vectorIN3osg5Vec3dESaIS3_EE
libosgEarth.so.0:_ZN8osgEarth8GeometryC1ERKS0_
libosgEarth.so.0:_ZN8osgEarth8GeometryC1Ei
libosgEarth.so.0:_ZN8osgEarth8GeometryC2EPKSt6vectorIN3osg5Vec3dESaIS3_EE
libosgEarth.so.0:_ZN8osgEarth8GeometryC2ERKS0_
libosgEarth.so.0:_ZN8osgEarth8GeometryC2Ei
libosgEarth.so.0:_ZN8osgEarth8GeometryD0Ev
libosgEarth.so.0:_ZN8osgEarth8GeometryD1Ev
libosgEarth.so.0:_ZN8osgEarth8GeometryD2Ev
libosgEarth.so.0:_ZN8osgEarth8Internal21CalloutImplementation11CameraLocal9initDebugEv
libosgEarth.so.0:_ZN8osgEarth8Internal21CalloutImplementation11CameraLocalC1Ev
libosgEarth.so.0:_ZN8osgEarth8Internal21CalloutImplementation11CameraLocalC2Ev
libosgEarth.so.0:_ZN8osgEarth8Internal21CalloutImplementation18sortImplementationEPN7osgUtil9RenderBinE
libosgEarth.so.0:_ZN8osgEarth8Internal21CalloutImplementation4pushEPN7osgUtil10RenderLeafERNS1_11CameraLocalE
libosgEarth.so.0:_ZN8osgEarth8Internal21CalloutImplementation4sortERNS1_11CameraLocalE
libosgEarth.so.0:_ZN8osgEarth8Internal21CalloutImplementation7Element4moveEf
libosgEarth.so.0:_ZN8osgEarth8Internal21CalloutImplementation7ElementC1Ev
libosgEarth.so.0:_ZN8osgEarth8Internal21CalloutImplementation7ElementC2Ev
libosgEarth.so.0:_ZN8osgEarth8Internal21CalloutImplementationC1EPNS0_24ScreenSpaceLayoutContextEPNS_20DeclutterSortFunctorE
libosgEarth.so.0:_ZN8osgEarth8Internal21CalloutImplementationC2EPNS0_24ScreenSpaceLayoutContextEPNS_20DeclutterSortFunctorE
libosgEarth.so.0:_ZN8osgEarth8Lighting3setEPN3osg8StateSetEj
libosgEarth.so.0:_ZN8osgEarth8Lighting6removeEPN3osg8StateSetE
libosgEarth.so.0:_ZN8osgEarth8MemCache14getOrCreateBinERKNSt7__cxx1112basic_stringIcSt11char_traitsIcESaIcEEE
libosgEarth.so.0:_ZN8osgEarth8MemCache21getOrCreateDefaultBinEv
libosgEarth.so.0:_ZN8osgEarth8MemCache6addBinERKNSt7__cxx1112basic_stringIcSt11char_traitsIcESaIcEEE
libosgEarth.so.0:_ZN8osgEarth8MemCache9dumpStatsERKNSt7__cxx1112basic_stringIcSt11char_traitsIcESaIcEEE
libosgEarth.so.0:_ZN8osgEarth8MemCacheC1Ej
libosgEarth.so.0:_ZN8osgEarth8MemCacheC2Ej
libosgEarth.so.0:_ZN8osgEarth8PointSet5closeEv
libosgEarth.so.0:_ZN8osgEarth8PointSetC1ERKS0_
libosgEarth.so.0:_ZN8osgEarth8PointSetC2ERKS0_
libosgEarth.so.0:_ZN8osgEarth8PointSetD0Ev
libosgEarth.so.0:_ZN8osgEarth8PointSetD1Ev
libosgEarth.so.0:_ZN8osgEarth8PointSetD2Ev
libosgEarth.so.0:_ZN8osgEarth8Registry11endActivityERKNSt7__cxx1112basic_stringIcSt11char_traitsIcESaIcEEE
libosgEarth.so.0:_ZN8osgEarth8Registry13getActivitiesERSt3setINSt7__cxx1112basic_stringIcSt11char_traitsIcESaIcEEESt4lessIS7_ESaIS7_EE
libosgEarth.so.0:_ZN8osgEarth8Registry13isBlacklistedERKNSt7__cxx1112basic_stringIcSt11char_traitsIcESaIcEEE
libosgEarth.so.0:_ZN8osgEarth8Registry13registerUnitsEPKNS_5UnitsE
libosgEarth.so.0:_ZN8osgEarth8Registry13startActivityERKNSt7__cxx1112basic_stringIcSt11char_traitsIcESaIcEEE
libosgEarth.so.0:_ZN8osgEarth8Registry13startActivityERKNSt7__cxx1112basic_stringIcSt11char_traitsIcESaIcEEES8_
libosgEarth.so.0:_ZN8osgEarth8Registry14clearBlacklistEv
libosgEarth.so.0:_ZN8osgEarth8Registry14getDefaultFontEv
libosgEarth.so.0:_ZN8osgEarth8Registry14getOrCreateSRSERKNS_16SpatialReference3KeyE
libosgEarth.so.0:_ZN8osgEarth8Registry14getProgramRepoEv
libosgEarth.so.0:_ZN8osgEarth8Registry14setDefaultFontEPN7osgText4FontE
libosgEarth.so.0:_ZN8osgEarth8Registry15setCapabilitiesEPNS_12CapabilitiesE
libosgEarth.so.0:_ZN8osgEarth8Registry15setDefaultCacheEPNS_5CacheE
libosgEarth.so.0:_ZN8osgEarth8Registry16initCapabilitiesEv
libosgEarth.so.0:_ZN8osgEarth8Registry16setShaderFactoryEPNS_4Util13ShaderFactoryE
libosgEarth.so.0:_ZN8osgEarth8Registry16setStateSetCacheEPNS_13StateSetCacheE
libosgEarth.so.0:_ZN8osgEarth8Registry18setShaderGeneratorEPNS_15ShaderGeneratorE
libosgEarth.so.0:_ZN8osgEarth8Registry18setURIReadCallbackEPNS_15URIReadCallbackE
libosgEarth.so.0:_ZN8osgEarth8Registry19setDevicePixelRatioEf
libosgEarth.so.0:_ZN8osgEarth8Registry20cloneOrCreateOptionsEPKN5osgDB7OptionsE
libosgEarth.so.0:_ZN8osgEarth8Registry21setDefaultCachePolicyERKNS_11CachePolicyE
libosgEarth.so.0:_ZN8osgEarth8Registry22setOverrideCachePolicyERKNS_11CachePolicyE
libosgEarth.so.0:_ZN8osgEarth8Registry23getExtensionForMimeTypeERKNSt7__cxx1112basic_stringIcSt11char_traitsIcESaIcEEE
libosgEarth.so.0:_ZN8osgEarth8Registry23getMimeTypeForExtensionERKNSt7__cxx1112basic_stringIcSt11char_traitsIcESaIcEEE
libosgEarth.so.0:_ZN8osgEarth8Registry25setDefaultCacheDriverNameERKNSt7__cxx1112basic_stringIcSt11char_traitsIcESaIcEEE
libosgEarth.so.0:_ZN8osgEarth8Registry26getNumBlacklistedFilenamesEv
libosgEarth.so.0:_ZN8osgEarth8Registry28setTextureImageUnitOffLimitsEi
libosgEarth.so.0:_ZN8osgEarth8Registry30setMaxNumberOfVertsPerDrawableEj
libosgEarth.so.0:_ZN8osgEarth8Registry7releaseEv
libosgEarth.so.0:_ZN8osgEarth8Registry8instanceEb
libosgEarth.so.0:_ZN8osgEarth8Registry9blacklistERKNSt7__cxx1112basic_stringIcSt11char_traitsIcESaIcEEE
libosgEarth.so.0:_ZN8osgEarth8Registry9createUIDEv
libosgEarth.so.0:_ZN8osgEarth8RegistryC1Ev
libosgEarth.so.0:_ZN8osgEarth8RegistryC2Ev
libosgEarth.so.0:_ZN8osgEarth8RegistryD0Ev
libosgEarth.so.0:_ZN8osgEarth8RegistryD1Ev
libosgEarth.so.0:_ZN8osgEarth8RegistryD2Ev
libosgEarth.so.0:_ZN8osgEarth9Extension16getConfigOptionsEPKN5osgDB7OptionsE
libosgEarth.so.0:_ZN8osgEarth9Extension6createERKNSt7__cxx1112basic_stringIcSt11char_traitsIcESaIcEEERKNS_13ConfigOptionsE
libosgEarth.so.0:_ZN8osgEarth9ExtensionC1Ev
libosgEarth.so.0:_ZN8osgEarth9ExtensionC2Ev
libosgEarth.so.0:_ZN8osgEarth9GeoCircleC1ERKNS_8GeoPointEd
libosgEarth.so.0:_ZN8osgEarth9GeoCircleC1ERKS0_
libosgEarth.so.0:_ZN8osgEarth9GeoCircleC1Ev
libosgEarth.so.0:_ZN8osgEarth9GeoCircleC2ERKNS_8GeoPointEd
libosgEarth.so.0:_ZN8osgEarth9GeoCircleC2ERKS0_
libosgEarth.so.0:_ZN8osgEarth9GeoCircleC2Ev
libosgEarth.so.0:_ZN8osgEarth9GeoExtent15expandToIncludeERKS0_
libosgEarth.so.0:_ZN8osgEarth9GeoExtent15expandToIncludeEdd
libosgEarth.so.0:_ZN8osgEarth9GeoExtent16setOriginAndSizeEdddd
libosgEarth.so.0:_ZN8osgEarth9GeoExtent3setEdddd
libosgEarth.so.0:_ZN8osgEarth9GeoExtent5clampEv
libosgEarth.so.0:_ZN8osgEarth9GeoExtent5scaleEdd
libosgEarth.so.0:_ZN8osgEarth9GeoExtent6expandERKNS_8DistanceES3_
libosgEarth.so.0:_ZN8osgEarth9GeoExtent6expandEdd
libosgEarth.so.0:_ZN8osgEarth9GeoExtentC1EPKNS_16SpatialReferenceE
libosgEarth.so.0:_ZN8osgEarth9GeoExtentC1EPKNS_16SpatialReferenceERKNS_6BoundsE
libosgEarth.so.0:_ZN8osgEarth9GeoExtentC1EPKNS_16SpatialReferenceEdddd
libosgEarth.so.0:_ZN8osgEarth9GeoExtentC1ERKS0_
libosgEarth.so.0:_ZN8osgEarth9GeoExtentC1Ev
libosgEarth.so.0:_ZN8osgEarth9GeoExtentC2EPKNS_16SpatialReferenceE
libosgEarth.so.0:_ZN8osgEarth9GeoExtentC2EPKNS_16SpatialReferenceERKNS_6BoundsE
libosgEarth.so.0:_ZN8osgEarth9GeoExtentC2EPKNS_16SpatialReferenceEdddd
libosgEarth.so.0:_ZN8osgEarth9GeoExtentC2ERKS0_
libosgEarth.so.0:_ZN8osgEarth9GeoExtentC2Ev
libosgEarth.so.0:_ZN8osgEarth9LabelNode10setDynamicEb
libosgEarth.so.0:_ZN8osgEarth9LabelNode11setPriorityEf
libosgEarth.so.0:_ZN8osgEarth9LabelNode16updateLayoutDataEv
libosgEarth.so.0:_ZN8osgEarth9LabelNode5dirtyEv
libosgEarth.so.0:_ZN8osgEarth9LabelNode7compileEv
libosgEarth.so.0:_ZN8osgEarth9LabelNode7setTextERKNSt7__cxx1112basic_stringIcSt11char_traitsIcESaIcEEE
libosgEarth.so.0:_ZN8osgEarth9LabelNode8setStyleERKNS_5StyleE
libosgEarth.so.0:_ZN8osgEarth9LabelNode9constructEv
libosgEarth.so.0:_ZN8osgEarth9LabelNodeC1ERKNS_6ConfigEPKN5osgDB7OptionsE
libosgEarth.so.0:_ZN8osgEarth9LabelNodeC1ERKNS_8GeoPointERKNSt7__cxx1112basic_stringIcSt11char_traitsIcESaIcEEERKNS_5StyleE
libosgEarth.so.0:_ZN8osgEarth9LabelNodeC1ERKNSt7__cxx1112basic_stringIcSt11char_traitsIcESaIcEEERKNS_5StyleE
libosgEarth.so.0:_ZN8osgEarth9LabelNodeC1Ev
libosgEarth.so.0:_ZN8osgEarth9LabelNodeC2ERKNS_6ConfigEPKN5osgDB7OptionsE
libosgEarth.so.0:_ZN8osgEarth9LabelNodeC2ERKNS_8GeoPointERKNSt7__cxx1112basic_stringIcSt11char_traitsIcESaIcEEERKNS_5StyleE
libosgEarth.so.0:_ZN8osgEarth9LabelNodeC2ERKNSt7__cxx1112basic_stringIcSt11char_traitsIcESaIcEEERKNS_5StyleE
libosgEarth.so.0:_ZN8osgEarth9LabelNodeC2Ev
libosgEarth.so.0:_ZN8osgEarth9LandCover11createImageEjj
libosgEarth.so.0:_ZN8osgEarth9LandCover11isLandCoverEPKN3osg5ImageE
libosgEarth.so.0:_ZN8osgEarth9LandCover16createEmptyImageEv
libosgEarth.so.0:_ZN8osgEarth9LandCover16getTextureFormatEv
libosgEarth.so.0:_ZN8osgEarth9LineGroup15getLineDrawableEj
libosgEarth.so.0:_ZN8osgEarth9LineGroup6importEPN3osg4NodeEb
libosgEarth.so.0:_ZN8osgEarth9LineGroup8optimizeEv
libosgEarth.so.0:_ZN8osgEarth9LineGroupC1ERKS0_RKN3osg6CopyOpE
libosgEarth.so.0:_ZN8osgEarth9LineGroupC1Ev
libosgEarth.so.0:_ZN8osgEarth9LineGroupC2ERKS0_RKN3osg6CopyOpE
libosgEarth.so.0:_ZN8osgEarth9LineGroupC2Ev
libosgEarth.so.0:_ZN8osgEarth9LineGroupD0Ev
libosgEarth.so.0:_ZN8osgEarth9LineGroupD1Ev
libosgEarth.so.0:_ZN8osgEarth9LineGroupD2Ev
libosgEarth.so.0:_ZN8osgEarth9MaskLayer7Options10fromConfigERKNS_6ConfigE
libosgEarth.so.0:_ZN8osgEarth9ModelNode12compileModelEv
libosgEarth.so.0:_ZN8osgEarth9ModelNode8setStyleERKNS_5StyleE
libosgEarth.so.0:_ZN8osgEarth9ModelNode9constructEv
libosgEarth.so.0:_ZN8osgEarth9ModelNodeC1EPNS_7MapNodeERKNS_5StyleEPKN5osgDB7OptionsE
libosgEarth.so.0:_ZN8osgEarth9ModelNodeC1ERKNS_6ConfigEPKN5osgDB7OptionsE
libosgEarth.so.0:_ZN8osgEarth9ModelNodeC2EPNS_7MapNodeERKNS_5StyleEPKN5osgDB7OptionsE
libosgEarth.so.0:_ZN8osgEarth9ModelNodeC2ERKNS_6ConfigEPKN5osgDB7OptionsE
libosgEarth.so.0:_ZN8osgEarth9NormalMap18generateCurvaturesEv
libosgEarth.so.0:_ZN8osgEarth9NormalMap3setEjjRKN3osg5Vec3fEf
libosgEarth.so.0:_ZN8osgEarth9NormalMapC1ERKN3osg5ImageE
libosgEarth.so.0:_ZN8osgEarth9NormalMapC1Ejj
libosgEarth.so.0:_ZN8osgEarth9NormalMapC2ERKN3osg5ImageE
libosgEarth.so.0:_ZN8osgEarth9NormalMapC2Ejj
libosgEarth.so.0:_ZN8osgEarth9NormalMapD0Ev
libosgEarth.so.0:_ZN8osgEarth9NormalMapD1Ev
libosgEarth.so.0:_ZN8osgEarth9NormalMapD2Ev
libosgEarth.so.0:_ZN8osgEarth9PlaceNode10setDynamicEb
libosgEarth.so.0:_ZN8osgEarth9PlaceNode11setPriorityEf
libosgEarth.so.0:_ZN8osgEarth9PlaceNode12setIconImageEPN3osg5ImageE
libosgEarth.so.0:_ZN8osgEarth9PlaceNode16updateLayoutDataEv
libosgEarth.so.0:_ZN8osgEarth9PlaceNode5dirtyEv
libosgEarth.so.0:_ZN8osgEarth9PlaceNode7compileEv
libosgEarth.so.0:_ZN8osgEarth9PlaceNode7setTextERKNSt7__cxx1112basic_stringIcSt11char_traitsIcESaIcEEE
libosgEarth.so.0:_ZN8osgEarth9PlaceNode8setStyleERKNS_5StyleE
libosgEarth.so.0:_ZN8osgEarth9PlaceNode8setStyleERKNS_5StyleEPKN5osgDB7OptionsE
libosgEarth.so.0:_ZN8osgEarth9PlaceNode9constructEv
libosgEarth.so.0:_ZN8osgEarth9PlaceNode9setConfigERKNS_6ConfigE
libosgEarth.so.0:_ZN8osgEarth9PlaceNodeC1ERKNS_6ConfigEPKN5osgDB7OptionsE
libosgEarth.so.0:_ZN8osgEarth9PlaceNodeC1ERKNS_8GeoPointERKNSt7__cxx1112basic_stringIcSt11char_traitsIcESaIcEEERKNS_5StyleEPN3osg5ImageE
libosgEarth.so.0:_ZN8osgEarth9PlaceNodeC1ERKNSt7__cxx1112basic_stringIcSt11char_traitsIcESaIcEEERKNS_5StyleEPN3osg5ImageE
libosgEarth.so.0:_ZN8osgEarth9PlaceNodeC1Ev
libosgEarth.so.0:_ZN8osgEarth9PlaceNodeC2ERKNS_6ConfigEPKN5osgDB7OptionsE
libosgEarth.so.0:_ZN8osgEarth9PlaceNodeC2ERKNS_8GeoPointERKNSt7__cxx1112basic_stringIcSt11char_traitsIcESaIcEEERKNS_5StyleEPN3osg5ImageE
libosgEarth.so.0:_ZN8osgEarth9PlaceNodeC2ERKNSt7__cxx1112basic_stringIcSt11char_traitsIcESaIcEEERKNS_5StyleEPN3osg5ImageE
libosgEarth.so.0:_ZN8osgEarth9PlaceNodeC2Ev
libosgEarth.so.0:_ZN8osgEarth9Threading10MultiEvent12waitAndResetEv
libosgEarth.so.0:_ZN8osgEarth9Threading10MultiEvent3setEv
libosgEarth.so.0:_ZN8osgEarth9Threading10MultiEvent4waitEv
libosgEarth.so.0:_ZN8osgEarth9Threading10MultiEvent5resetEv
libosgEarth.so.0:_ZN8osgEarth9Threading10MultiEventC1Ei
libosgEarth.so.0:_ZN8osgEarth9Threading10MultiEventC2Ei
libosgEarth.so.0:_ZN8osgEarth9Threading10MultiEventD1Ev
libosgEarth.so.0:_ZN8osgEarth9Threading10MultiEventD2Ev
libosgEarth.so.0:_ZN8osgEarth9Threading10ThreadPool11stopThreadsEv
libosgEarth.so.0:_ZN8osgEarth9Threading10ThreadPool12startThreadsEv
libosgEarth.so.0:_ZN8osgEarth9Threading10ThreadPool3getEPKN5osgDB7OptionsE
libosgEarth.so.0:_ZN8osgEarth9Threading10ThreadPool3putEPN5osgDB7OptionsE
libosgEarth.so.0:_ZN8osgEarth9Threading10ThreadPoolC1Ej
libosgEarth.so.0:_ZN8osgEarth9Threading10ThreadPoolC2Ej
libosgEarth.so.0:_ZN8osgEarth9Threading10ThreadPoolD0Ev
libosgEarth.so.0:_ZN8osgEarth9Threading10ThreadPoolD1Ev
libosgEarth.so.0:_ZN8osgEarth9Threading10ThreadPoolD2Ev
libosgEarth.so.0:_ZN8osgEarth9Threading14ReadWriteMutex10readUnlockEv
libosgEarth.so.0:_ZN8osgEarth9Threading14ReadWriteMutex11writeUnlockEv
libosgEarth.so.0:_ZN8osgEarth9Threading14ReadWriteMutex20decrementReaderCountEv
libosgEarth.so.0:_ZN8osgEarth9Threading14ReadWriteMutex20incrementReaderCountEv
libosgEarth.so.0:_ZN8osgEarth9Threading14ReadWriteMutex8readLockEv
libosgEarth.so.0:_ZN8osgEarth9Threading14ReadWriteMutex9writeLockEv
libosgEarth.so.0:_ZN8osgEarth9Threading14ReadWriteMutexC1Ev
libosgEarth.so.0:_ZN8osgEarth9Threading14ReadWriteMutexC2Ev
libosgEarth.so.0:_ZN8osgEarth9Threading18getCurrentThreadIdEv
libosgEarth.so.0:_ZN8osgEarth9Threading5Event12waitAndResetEv
libosgEarth.so.0:_ZN8osgEarth9Threading5Event3setEv
libosgEarth.so.0:_ZN8osgEarth9Threading5Event4waitEj
libosgEarth.so.0:_ZN8osgEarth9Threading5Event4waitEv
libosgEarth.so.0:_ZN8osgEarth9Threading5Event5resetEv
libosgEarth.so.0:_ZN8osgEarth9Threading5EventC1Ev
libosgEarth.so.0:_ZN8osgEarth9Threading5EventC2Ev
libosgEarth.so.0:_ZN8osgEarth9Threading5EventD1Ev
libosgEarth.so.0:_ZN8osgEarth9Threading5EventD2Ev
libosgEarth.so.0:_ZN8osgEarth9TiXmlBase10IsAlphaNumEh13TiXmlEncoding
libosgEarth.so.0:_ZN8osgEarth9TiXmlBase11StringEqualEPKcS2_b13TiXmlEncoding
libosgEarth.so.0:_ZN8osgEarth9TiXmlBase12EncodeStringERKNSt7__cxx1112basic_stringIcSt11char_traitsIcESaIcEEEPS6_
libosgEarth.so.0:_ZN8osgEarth9TiXmlBase14SkipWhiteSpaceEPKc13TiXmlEncoding
libosgEarth.so.0:_ZN8osgEarth9TiXmlBase16StreamWhiteSpaceEPSiPNSt7__cxx1112basic_stringIcSt11char_traitsIcESaIcEEE
libosgEarth.so.0:_ZN8osgEarth9TiXmlBase18ConvertUTF32ToUTF8EmPcPi
libosgEarth.so.0:_ZN8osgEarth9TiXmlBase7IsAlphaEh13TiXmlEncoding
libosgEarth.so.0:_ZN8osgEarth9TiXmlBase8ReadNameEPKcPNSt7__cxx1112basic_stringIcSt11char_traitsIcESaIcEEE13TiXmlEncoding
libosgEarth.so.0:_ZN8osgEarth9TiXmlBase8ReadTextEPKcPNSt7__cxx1112basic_stringIcSt11char_traitsIcESaIcEEEbS2_b13TiXmlEncoding
libosgEarth.so.0:_ZN8osgEarth9TiXmlBase8StreamToEPSiiPNSt7__cxx1112basic_stringIcSt11char_traitsIcESaIcEEE
libosgEarth.so.0:_ZN8osgEarth9TiXmlBase9GetEntityEPKcPcPi13TiXmlEncoding
libosgEarth.so.0:_ZN8osgEarth9TiXmlNode11RemoveChildEPS0_
libosgEarth.so.0:_ZN8osgEarth9TiXmlNode12LinkEndChildEPS0_
libosgEarth.so.0:_ZN8osgEarth9TiXmlNode12ReplaceChildEPS0_RKS0_
libosgEarth.so.0:_ZN8osgEarth9TiXmlNode14InsertEndChildERKS0_
libosgEarth.so.0:_ZN8osgEarth9TiXmlNode16InsertAfterChildEPS0_RKS0_
libosgEarth.so.0:_ZN8osgEarth9TiXmlNode17InsertBeforeChildEPS0_RKS0_
libosgEarth.so.0:_ZN8osgEarth9TiXmlNode5ClearEv
libosgEarth.so.0:_ZN8osgEarth9TiXmlNode8IdentifyEPKc13TiXmlEncoding
libosgEarth.so.0:_ZN8osgEarth9TiXmlNodeC1ENS0_8NodeTypeE
libosgEarth.so.0:_ZN8osgEarth9TiXmlNodeC2ENS0_8NodeTypeE
libosgEarth.so.0:_ZN8osgEarth9TiXmlNodeD0Ev
libosgEarth.so.0:_ZN8osgEarth9TiXmlNodeD1Ev
libosgEarth.so.0:_ZN8osgEarth9TiXmlNodeD2Ev
libosgEarth.so.0:_ZN8osgEarth9TiXmlText5ParseEPKcP16TiXmlParsingData13TiXmlEncoding
libosgEarth.so.0:_ZN8osgEarth9TiXmlText8StreamInEPSiPNSt7__cxx1112basic_stringIcSt11char_traitsIcESaIcEEE
libosgEarth.so.0:_ZN8osgEarth9TileCache6Driver4openERKNS_3URIEPKN5osgDB7OptionsE
libosgEarth.so.0:_ZN8osgEarth9TileCache7Options8readFromERKNS_6ConfigE
libosgEarth.so.0:_ZN8osgEarth9TileCache8toStringB5cxx11Edi
libosgEarth.so.0:_ZN8osgEarth9TileLayer10addedToMapEPKNS_3MapE
libosgEarth.so.0:_ZN8osgEarth9TileLayer10setProfileEPKNS_7ProfileE
libosgEarth.so.0:_ZN8osgEarth9TileLayer11dataExtentsEv
libosgEarth.so.0:_ZN8osgEarth9TileLayer11getCacheBinEPKNS_7ProfileE
libosgEarth.so.0:_ZN8osgEarth9TileLayer11setMaxLevelEj
libosgEarth.so.0:_ZN8osgEarth9TileLayer11setMinLevelEj
libosgEarth.so.0:_ZN8osgEarth9TileLayer11setTileSizeEj
libosgEarth.so.0:_ZN8osgEarth9TileLayer12setUpL2CacheEj
libosgEarth.so.0:_ZN8osgEarth9TileLayer14openForWritingEv
libosgEarth.so.0:_ZN8osgEarth9TileLayer14removedFromMapEPKNS_3MapE
libosgEarth.so.0:_ZN8osgEarth9TileLayer14setNoDataValueEf
libosgEarth.so.0:_ZN8osgEarth9TileLayer15setMaxDataLevelEj
libosgEarth.so.0:_ZN8osgEarth9TileLayer16CacheBinMetadataC1ERKNS_6ConfigE
libosgEarth.so.0:_ZN8osgEarth9TileLayer16CacheBinMetadataC1ERKS1_
libosgEarth.so.0:_ZN8osgEarth9TileLayer16CacheBinMetadataC1Ev
libosgEarth.so.0:_ZN8osgEarth9TileLayer16CacheBinMetadataC2ERKNS_6ConfigE
libosgEarth.so.0:_ZN8osgEarth9TileLayer16CacheBinMetadataC2ERKS1_
libosgEarth.so.0:_ZN8osgEarth9TileLayer16CacheBinMetadataC2Ev
libosgEarth.so.0:_ZN8osgEarth9TileLayer16dirtyDataExtentsEv
libosgEarth.so.0:_ZN8osgEarth9TileLayer16resetNoDataValueEv
libosgEarth.so.0:_ZN8osgEarth9TileLayer16setMaxResolutionEd
libosgEarth.so.0:_ZN8osgEarth9TileLayer16setMaxValidValueEf
libosgEarth.so.0:_ZN8osgEarth9TileLayer16setMinResolutionEd
libosgEarth.so.0:_ZN8osgEarth9TileLayer16setMinValidValueEf
libosgEarth.so.0:_ZN8osgEarth9TileLayer18openImplementationEv
libosgEarth.so.0:_ZN8osgEarth9TileLayer18resetMaxValidValueEv
libosgEarth.so.0:_ZN8osgEarth9TileLayer18resetMinValidValueEv
libosgEarth.so.0:_ZN8osgEarth9TileLayer19closeImplementationEv
libosgEarth.so.0:_ZN8osgEarth9TileLayer19getCacheBinMetadataEPKNS_7ProfileE
libosgEarth.so.0:_ZN8osgEarth9TileLayer22establishCacheSettingsEv
libosgEarth.so.0:_ZN8osgEarth9TileLayer4initEv
libosgEarth.so.0:_ZN8osgEarth9TileLayer7Options10fromConfigERKNS_6ConfigE
libosgEarth.so.0:_ZN8osgEarth9TileLayer7disableERKNSt7__cxx1112basic_stringIcSt11char_traitsIcESaIcEEE
libosgEarth.so.0:_ZN8osgEarth9TileLayerD0Ev
libosgEarth.so.0:_ZN8osgEarth9TileLayerD1Ev
libosgEarth.so.0:_ZN8osgEarth9TileLayerD2Ev
libosgEarth.so.0:_ZN8osgEarth9TrackNode11addDrawableERKNSt7__cxx1112basic_stringIcSt11char_traitsIcESaIcEEEPN3osg8DrawableE
libosgEarth.so.0:_ZN8osgEarth9TrackNode11setPriorityEf
libosgEarth.so.0:_ZN8osgEarth9TrackNode13setFieldValueERKNSt7__cxx1112basic_stringIcSt11char_traitsIcESaIcEEERKN7osgText6StringE
libosgEarth.so.0:_ZN8osgEarth9TrackNode16updateLayoutDataEv
libosgEarth.so.0:_ZN8osgEarth9TrackNode7compileEv
libosgEarth.so.0:_ZN8osgEarth9TrackNode9constructEv
libosgEarth.so.0:_ZN8osgEarth9TrackNodeC1ERKNS_8GeoPointEPN3osg5ImageERKSt3mapINSt7__cxx1112basic_stringIcSt11char_traitsIcESaIcEEENS_14TrackNodeFieldESt4lessISD_ESaISt4pairIKSD_SE_EEE
libosgEarth.so.0:_ZN8osgEarth9TrackNodeC1ERKNS_8GeoPointERKNS_5StyleERKSt3mapINSt7__cxx1112basic_stringIcSt11char_traitsIcESaIcEEENS_14TrackNodeFieldESt4lessISD_ESaISt4pairIKSD_SE_EEE
libosgEarth.so.0:_ZN8osgEarth9TrackNodeC2ERKNS_8GeoPointEPN3osg5ImageERKSt3mapINSt7__cxx1112basic_stringIcSt11char_traitsIcESaIcEEENS_14TrackNodeFieldESt4lessISD_ESaISt4pairIKSD_SE_EEE
libosgEarth.so.0:_ZN8osgEarth9TrackNodeC2ERKNS_8GeoPointERKNS_5StyleERKSt3mapINSt7__cxx1112basic_stringIcSt11char_traitsIcESaIcEEENS_14TrackNodeFieldESt4lessISD_ESaISt4pairIKSD_SE_EEE
libosgEarth.so.0:_ZN8osgEarth9URIStreamC1ERKNS_3URIESt13_Ios_Openmode
libosgEarth.so.0:_ZN8osgEarth9URIStreamC2ERKNS_3URIESt13_Ios_Openmode
libosgEarth.so.0:_ZN8osgEarth9URIStreamD0Ev
libosgEarth.so.0:_ZN8osgEarth9URIStreamD1Ev
libosgEarth.so.0:_ZN8osgEarth9URIStreamD2Ev
libosgEarth.so.0:_ZN8osgEarth9URIStreamcvRSiEv
libosgEarth.so.0:_ZN8osgEarth9ViewpointC1EPKcdddddd
libosgEarth.so.0:_ZN8osgEarth9ViewpointC1ERKNS_6ConfigE
libosgEarth.so.0:_ZN8osgEarth9ViewpointC1ERKS0_
libosgEarth.so.0:_ZN8osgEarth9ViewpointC1Ev
libosgEarth.so.0:_ZN8osgEarth9ViewpointC2EPKcdddddd
libosgEarth.so.0:_ZN8osgEarth9ViewpointC2ERKNS_6ConfigE
libosgEarth.so.0:_ZN8osgEarth9ViewpointC2ERKS0_
libosgEarth.so.0:_ZN8osgEarth9ViewpointC2Ev
libosgEarth.so.0:_ZN8osgEarth9WindLayer10removeWindEPNS_4WindE
libosgEarth.so.0:_ZN8osgEarth9WindLayer18openImplementationEv
libosgEarth.so.0:_ZN8osgEarth9WindLayer19closeImplementationEv
libosgEarth.so.0:_ZN8osgEarth9WindLayer19setTerrainResourcesEPNS_16TerrainResourcesE
libosgEarth.so.0:_ZN8osgEarth9WindLayer4initEv
libosgEarth.so.0:_ZN8osgEarth9WindLayer7Options10fromConfigERKNS_6ConfigE
libosgEarth.so.0:_ZN8osgEarth9WindLayer7addWindEPNS_4WindE
libosgEarth.so.0:_ZNK11TiXmlHandle10FirstChildEPKc
libosgEarth.so.0:_ZNK11TiXmlHandle10FirstChildEv
libosgEarth.so.0:_ZNK11TiXmlHandle12ChildElementEPKci
libosgEarth.so.0:_ZNK11TiXmlHandle12ChildElementEi
libosgEarth.so.0:_ZNK11TiXmlHandle17FirstChildElementEPKc
libosgEarth.so.0:_ZNK11TiXmlHandle17FirstChildElementEv
libosgEarth.so.0:_ZNK11TiXmlHandle5ChildEPKci
libosgEarth.so.0:_ZNK11TiXmlHandle5ChildEi
libosgEarth.so.0:_ZNK3osg16BindImageTexture5applyERNS_5StateE
libosgEarth.so.0:_ZNK3osg16BindImageTexture7compareERKNS_14StateAttributeE
libosgEarth.so.0:_ZNK6mapnik6vector10tile_layer11GetTypeNameB5cxx11Ev
libosgEarth.so.0:_ZNK6mapnik6vector10tile_layer12ByteSizeLongEv
libosgEarth.so.0:_ZNK6mapnik6vector10tile_layer13IsInitializedEv
libosgEarth.so.0:_ZNK6mapnik6vector10tile_layer13SetCachedSizeEi
libosgEarth.so.0:_ZNK6mapnik6vector10tile_layer18_InternalSerializeEPhPN6google8protobuf2io19EpsCopyOutputStreamE
libosgEarth.so.0:_ZNK6mapnik6vector10tile_layer30RequiredFieldsByteSizeFallbackEv
libosgEarth.so.0:_ZNK6mapnik6vector10tile_value11GetTypeNameB5cxx11Ev
libosgEarth.so.0:_ZNK6mapnik6vector10tile_value12ByteSizeLongEv
libosgEarth.so.0:_ZNK6mapnik6vector10tile_value13IsInitializedEv
libosgEarth.so.0:_ZNK6mapnik6vector10tile_value13SetCachedSizeEi
libosgEarth.so.0:_ZNK6mapnik6vector10tile_value18_InternalSerializeEPhPN6google8protobuf2io19EpsCopyOutputStreamE
libosgEarth.so.0:_ZNK6mapnik6vector12tile_feature11GetTypeNameB5cxx11Ev
libosgEarth.so.0:_ZNK6mapnik6vector12tile_feature12ByteSizeLongEv
libosgEarth.so.0:_ZNK6mapnik6vector12tile_feature13IsInitializedEv
libosgEarth.so.0:_ZNK6mapnik6vector12tile_feature13SetCachedSizeEi
libosgEarth.so.0:_ZNK6mapnik6vector12tile_feature18_InternalSerializeEPhPN6google8protobuf2io19EpsCopyOutputStreamE
libosgEarth.so.0:_ZNK6mapnik6vector4tile11GetTypeNameB5cxx11Ev
libosgEarth.so.0:_ZNK6mapnik6vector4tile12ByteSizeLongEv
libosgEarth.so.0:_ZNK6mapnik6vector4tile13IsInitializedEv
libosgEarth.so.0:_ZNK6mapnik6vector4tile13SetCachedSizeEi
libosgEarth.so.0:_ZNK6mapnik6vector4tile18_InternalSerializeEPhPN6google8protobuf2io19EpsCopyOutputStreamE
libosgEarth.so.0:_ZNK8osgEarth10BBoxSymbol9getConfigEv
libosgEarth.so.0:_ZNK8osgEarth10CircleNode11getArcStartEv
libosgEarth.so.0:_ZNK8osgEarth10CircleNode14getNumSegmentsEv
libosgEarth.so.0:_ZNK8osgEarth10CircleNode6getPieEv
libosgEarth.so.0:_ZNK8osgEarth10CircleNode9getArcEndEv
libosgEarth.so.0:_ZNK8osgEarth10CircleNode9getConfigEv
libosgEarth.so.0:_ZNK8osgEarth10CircleNode9getRadiusEv
libosgEarth.so.0:_ZNK8osgEarth10IconSymbol14createResourceEv
libosgEarth.so.0:_ZNK8osgEarth10IconSymbol8getImageEj
libosgEarth.so.0:_ZNK8osgEarth10IconSymbol9getConfigEv
libosgEarth.so.0:_ZNK8osgEarth10ImageLayer11getAltitudeEv
libosgEarth.so.0:_ZNK8osgEarth10ImageLayer11getCoverageEv
libosgEarth.so.0:_ZNK8osgEarth10ImageLayer15getColorFiltersEv
libosgEarth.so.0:_ZNK8osgEarth10ImageLayer21modifyTileBoundingBoxERKNS_7TileKeyERN3osg15BoundingBoxImplINS4_5Vec3fEEE
libosgEarth.so.0:_ZNK8osgEarth10ImageLayer24writeImageImplementationERKNS_7TileKeyEPKN3osg5ImageEPNS_16ProgressCallbackE
libosgEarth.so.0:_ZNK8osgEarth10ImageLayer27applyTextureCompressionModeEPN3osg7TextureE
libosgEarth.so.0:_ZNK8osgEarth10ImageLayer27getSharedTextureUniformNameB5cxx11Ev
libosgEarth.so.0:_ZNK8osgEarth10ImageLayer33getSharedTextureMatrixUniformNameB5cxx11Ev
libosgEarth.so.0:_ZNK8osgEarth10ImageLayer7Options9getConfigEv
libosgEarth.so.0:_ZNK8osgEarth10ImageLayer9getSharedEv
libosgEarth.so.0:_ZNK8osgEarth10LineSymbol9getConfigEv
libosgEarth.so.0:_ZNK8osgEarth10ModelLayer10getCacheIDB5cxx11Ev
libosgEarth.so.0:_ZNK8osgEarth10ModelLayer11getLODScaleEv
libosgEarth.so.0:_ZNK8osgEarth10ModelLayer11getLocationEv
libosgEarth.so.0:_ZNK8osgEarth10ModelLayer14getOrientationEv
libosgEarth.so.0:_ZNK8osgEarth10ModelLayer15getMaskMinLevelEv
libosgEarth.so.0:_ZNK8osgEarth10ModelLayer15getShaderPolicyEv
libosgEarth.so.0:_ZNK8osgEarth10ModelLayer17isLightingEnabledEv
libosgEarth.so.0:_ZNK8osgEarth10ModelLayer6getURLEv
libosgEarth.so.0:_ZNK8osgEarth10ModelLayer7Options9getConfigEv
libosgEarth.so.0:_ZNK8osgEarth10ModelLayer7getNodeEv
libosgEarth.so.0:_ZNK8osgEarth10ModelLayer8getPagedEv
libosgEarth.so.0:_ZNK8osgEarth10PatchLayer7Options9getConfigEv
libosgEarth.so.0:_ZNK8osgEarth10StyleSheet11getSelectorERKNSt7__cxx1112basic_stringIcSt11char_traitsIcESaIcEEE
libosgEarth.so.0:_ZNK8osgEarth10StyleSheet12getSelectorsB5cxx11Ev
libosgEarth.so.0:_ZNK8osgEarth10StyleSheet15getDefaultStyleEv
libosgEarth.so.0:_ZNK8osgEarth10StyleSheet18getResourceLibraryERKNSt7__cxx1112basic_stringIcSt11char_traitsIcESaIcEEE
libosgEarth.so.0:_ZNK8osgEarth10StyleSheet25getDefaultResourceLibraryEv
libosgEarth.so.0:_ZNK8osgEarth10StyleSheet7Options9getConfigEv
libosgEarth.so.0:_ZNK8osgEarth10StyleSheet8getStyleERKNSt7__cxx1112basic_stringIcSt11char_traitsIcESaIcEEEb
libosgEarth.so.0:_ZNK8osgEarth10StyleSheet9getScriptEv
libosgEarth.so.0:_ZNK8osgEarth10StyleSheet9getStylesB5cxx11Ev
libosgEarth.so.0:_ZNK8osgEarth10TextSymbol9getConfigEv
libosgEarth.so.0:_ZNK8osgEarth10Triangle2d8containsERKN3osg5Vec3dE
libosgEarth.so.0:_ZNK8osgEarth10URIContext10getHeadersB5cxx11Ev
libosgEarth.so.0:_ZNK8osgEarth10URIContext10getOSGPathERKNSt7__cxx1112basic_stringIcSt11char_traitsIcESaIcEEE
libosgEarth.so.0:_ZNK8osgEarth10URIContext3addERKNSt7__cxx1112basic_stringIcSt11char_traitsIcESaIcEEE
libosgEarth.so.0:_ZNK8osgEarth10URIContext3addERKS0_
libosgEarth.so.0:_ZNK8osgEarth10VideoLayer13createTextureERKNS_7TileKeyEPNS_16ProgressCallbackE
libosgEarth.so.0:_ZNK8osgEarth10VideoLayer6getURLEv
libosgEarth.so.0:_ZNK8osgEarth10VideoLayer7Options9getConfigEv
libosgEarth.so.0:_ZNK8osgEarth11CachePolicy11usageStringB5cxx11Ev
libosgEarth.so.0:_ZNK8osgEarth11CachePolicy16getMinAcceptTimeEv
libosgEarth.so.0:_ZNK8osgEarth11CachePolicy5emptyEv
libosgEarth.so.0:_ZNK8osgEarth11CachePolicy9getConfigEv
libosgEarth.so.0:_ZNK8osgEarth11CachePolicy9isExpiredEl
libosgEarth.so.0:_ZNK8osgEarth11CachePolicyeqERKS0_
libosgEarth.so.0:_ZNK8osgEarth11EllipseNode11getArcStartEv
libosgEarth.so.0:_ZNK8osgEarth11EllipseNode14getNumSegmentsEv
libosgEarth.so.0:_ZNK8osgEarth11EllipseNode14getRadiusMajorEv
libosgEarth.so.0:_ZNK8osgEarth11EllipseNode14getRadiusMinorEv
libosgEarth.so.0:_ZNK8osgEarth11EllipseNode16getRotationAngleEv
libosgEarth.so.0:_ZNK8osgEarth11EllipseNode6getPieEv
libosgEarth.so.0:_ZNK8osgEarth11EllipseNode9getArcEndEv
libosgEarth.so.0:_ZNK8osgEarth11EllipseNode9getConfigEv
libosgEarth.so.0:_ZNK8osgEarth11FadeOptions9getConfigEv
libosgEarth.so.0:_ZNK8osgEarth11FeatureNode13getStyleSheetEv
libosgEarth.so.0:_ZNK8osgEarth11FeatureNode8getStyleEv
libosgEarth.so.0:_ZNK8osgEarth11FeatureNode9getConfigEv
libosgEarth.so.0:_ZNK8osgEarth11MaterialGL35applyERN3osg5StateE
libosgEarth.so.0:_ZNK8osgEarth11ModelSymbol14createResourceEv
libosgEarth.so.0:_ZNK8osgEarth11ModelSymbol9getConfigEv
libosgEarth.so.0:_ZNK8osgEarth11ObjectIndex11getObjectIDEPN3osg4NodeERj
libosgEarth.so.0:_ZNK8osgEarth11ObjectIndex11loadShadersEPNS_14VirtualProgramE
libosgEarth.so.0:_ZNK8osgEarth11ObjectIndex11tagDrawableEPN3osg8DrawableEj
libosgEarth.so.0:_ZNK8osgEarth11ObjectIndex12getObjectIDsEPKN3osg8DrawableERSt3setIjSt4lessIjESaIjEE
libosgEarth.so.0:_ZNK8osgEarth11ObjectIndex15tagAllDrawablesEPN3osg4NodeEj
libosgEarth.so.0:_ZNK8osgEarth11ObjectIndex7getImplEj
libosgEarth.so.0:_ZNK8osgEarth11ObjectIndex7tagNodeEPN3osg4NodeEj
libosgEarth.so.0:_ZNK8osgEarth11PointSymbol9getConfigEv
libosgEarth.so.0:_ZNK8osgEarth11URIAliasMap7resolveERKNSt7__cxx1112basic_stringIcSt11char_traitsIcESaIcEEERKNS_10URIContextE
libosgEarth.so.0:_ZNK8osgEarth12ArcGISServer10MapService10getProfileEv
libosgEarth.so.0:_ZNK8osgEarth12ArcGISServer10MapService11getTileInfoEv
libosgEarth.so.0:_ZNK8osgEarth12ArcGISServer10MapService12getCopyrightB5cxx11Ev
libosgEarth.so.0:_ZNK8osgEarth12ArcGISServer10MapService7isTiledEv
libosgEarth.so.0:_ZNK8osgEarth12ArcGISServer10MapService7isValidEv
libosgEarth.so.0:_ZNK8osgEarth12ArcGISServer10MapService8getErrorB5cxx11Ev
libosgEarth.so.0:_ZNK8osgEarth12ArcGISServer15MapServiceLayer5getIdEv
libosgEarth.so.0:_ZNK8osgEarth12ArcGISServer15MapServiceLayer7getNameB5cxx11Ev
libosgEarth.so.0:_ZNK8osgEarth12ArcGISServer8TileInfo11getMaxLevelEv
libosgEarth.so.0:_ZNK8osgEarth12ArcGISServer8TileInfo11getMinLevelEv
libosgEarth.so.0:_ZNK8osgEarth12ArcGISServer8TileInfo11getTileSizeEv
libosgEarth.so.0:_ZNK8osgEarth12ArcGISServer8TileInfo15getNumTilesHighEv
libosgEarth.so.0:_ZNK8osgEarth12ArcGISServer8TileInfo15getNumTilesWideEv
libosgEarth.so.0:_ZNK8osgEarth12ArcGISServer8TileInfo7isValidEv
libosgEarth.so.0:_ZNK8osgEarth12ArcGISServer8TileInfo9getFormatB5cxx11Ev
libosgEarth.so.0:_ZNK8osgEarth12Capabilities26supportsTextureCompressionERKN3osg7Texture18InternalFormatModeE
libosgEarth.so.0:_ZNK8osgEarth12ElevationLOD11getMaxRangeEv
libosgEarth.so.0:_ZNK8osgEarth12ElevationLOD11getMinRangeEv
libosgEarth.so.0:_ZNK8osgEarth12ElevationLOD15getMaxElevationEv
libosgEarth.so.0:_ZNK8osgEarth12ElevationLOD15getMinElevationEv
libosgEarth.so.0:_ZNK8osgEarth12FeatureLevel9getConfigEv
libosgEarth.so.0:_ZNK8osgEarth12GDALDEMLayer17getElevationLayerEv
libosgEarth.so.0:_ZNK8osgEarth12GDALDEMLayer25createImageImplementationERKNS_7TileKeyEPNS_16ProgressCallbackE
libosgEarth.so.0:_ZNK8osgEarth12GDALDEMLayer7Options9getConfigEv
libosgEarth.so.0:_ZNK8osgEarth12GeoTransform11getPositionEv
libosgEarth.so.0:_ZNK8osgEarth12GeoTransform21ComputeMatrixCallback25computeLocalToWorldMatrixEPKS0_RN3osg7MatrixdEPNS4_11NodeVisitorE
libosgEarth.so.0:_ZNK8osgEarth12GeoTransform21ComputeMatrixCallback25computeWorldToLocalMatrixEPKS0_RN3osg7MatrixdEPNS4_11NodeVisitorE
libosgEarth.so.0:_ZNK8osgEarth12ImageOverlay12getMagFilterEv
libosgEarth.so.0:_ZNK8osgEarth12ImageOverlay12getMinFilterEv
libosgEarth.so.0:_ZNK8osgEarth12ImageOverlay8getAlphaEv
libosgEarth.so.0:_ZNK8osgEarth12ImageOverlay8getImageEv
libosgEarth.so.0:_ZNK8osgEarth12ImageOverlay9getBoundsEv
libosgEarth.so.0:_ZNK8osgEarth12ImageOverlay9getCenterEv
libosgEarth.so.0:_ZNK8osgEarth12ImageOverlay9getConfigEv
libosgEarth.so.0:_ZNK8osgEarth12ImageOverlay9getDrapedEv
libosgEarth.so.0:_ZNK8osgEarth12LineDrawable11getNumVertsEv
libosgEarth.so.0:_ZNK8osgEarth12LineDrawable12getRealIndexEj
libosgEarth.so.0:_ZNK8osgEarth12LineDrawable15numVirtualVertsEPKN3osg5ArrayE
libosgEarth.so.0:_ZNK8osgEarth12LineDrawable16releaseGLObjectsEPN3osg5StateE
libosgEarth.so.0:_ZNK8osgEarth12LineDrawable25actualVertsPerVirtualVertEj
libosgEarth.so.0:_ZNK8osgEarth12LineDrawable8getCountEv
libosgEarth.so.0:_ZNK8osgEarth12LineDrawable8getFirstEv
libosgEarth.so.0:_ZNK8osgEarth12LineDrawable9getVertexEj
libosgEarth.so.0:_ZNK8osgEarth12RenderSymbol9getConfigEv
libosgEarth.so.0:_ZNK8osgEarth12StringObject9getStringB5cxx11Ev
libosgEarth.so.0:_ZNK8osgEarth12TiXmlComment5CloneEv
libosgEarth.so.0:_ZNK8osgEarth12TiXmlComment5PrintEP8_IO_FILEi
libosgEarth.so.0:_ZNK8osgEarth12TiXmlComment6AcceptEPNS_12TiXmlVisitorE
libosgEarth.so.0:_ZNK8osgEarth12TiXmlComment6CopyToEPS0_
libosgEarth.so.0:_ZNK8osgEarth12TiXmlElement17QueryIntAttributeEPKcPi
libosgEarth.so.0:_ZNK8osgEarth12TiXmlElement17QueryIntAttributeERKNSt7__cxx1112basic_stringIcSt11char_traitsIcESaIcEEEPi
libosgEarth.so.0:_ZNK8osgEarth12TiXmlElement20QueryDoubleAttributeEPKcPd
libosgEarth.so.0:_ZNK8osgEarth12TiXmlElement20QueryDoubleAttributeERKNSt7__cxx1112basic_stringIcSt11char_traitsIcESaIcEEEPd
libosgEarth.so.0:_ZNK8osgEarth12TiXmlElement5CloneEv
libosgEarth.so.0:_ZNK8osgEarth12TiXmlElement5PrintEP8_IO_FILEi
libosgEarth.so.0:_ZNK8osgEarth12TiXmlElement6AcceptEPNS_12TiXmlVisitorE
libosgEarth.so.0:_ZNK8osgEarth12TiXmlElement6CopyToEPS0_
libosgEarth.so.0:_ZNK8osgEarth12TiXmlElement7GetTextEv
libosgEarth.so.0:_ZNK8osgEarth12TiXmlElement9AttributeEPKc
libosgEarth.so.0:_ZNK8osgEarth12TiXmlElement9AttributeEPKcPd
libosgEarth.so.0:_ZNK8osgEarth12TiXmlElement9AttributeEPKcPi
libosgEarth.so.0:_ZNK8osgEarth12TiXmlElement9AttributeERKNSt7__cxx1112basic_stringIcSt11char_traitsIcESaIcEEE
libosgEarth.so.0:_ZNK8osgEarth12TiXmlElement9AttributeERKNSt7__cxx1112basic_stringIcSt11char_traitsIcESaIcEEEPd
libosgEarth.so.0:_ZNK8osgEarth12TiXmlElement9AttributeERKNSt7__cxx1112basic_stringIcSt11char_traitsIcESaIcEEEPi
libosgEarth.so.0:_ZNK8osgEarth12TiXmlUnknown5CloneEv
libosgEarth.so.0:_ZNK8osgEarth12TiXmlUnknown5PrintEP8_IO_FILEi
libosgEarth.so.0:_ZNK8osgEarth12TiXmlUnknown6AcceptEPNS_12TiXmlVisitorE
libosgEarth.so.0:_ZNK8osgEarth12TiXmlUnknown6CopyToEPS0_
libosgEarth.so.0:_ZNK8osgEarth12VisibleLayer10getOpacityEv
libosgEarth.so.0:_ZNK8osgEarth12VisibleLayer10getVisibleEv
libosgEarth.so.0:_ZNK8osgEarth12VisibleLayer18getMaxVisibleRangeEv
libosgEarth.so.0:_ZNK8osgEarth12VisibleLayer18getMinVisibleRangeEv
libosgEarth.so.0:_ZNK8osgEarth12VisibleLayer19getAttenuationRangeEv
libosgEarth.so.0:_ZNK8osgEarth12VisibleLayer7Options9getConfigEv
libosgEarth.so.0:_ZNK8osgEarth13ConfigOptions9getConfigEv
libosgEarth.so.0:_ZNK8osgEarth13DateTimeRange10intersectsERKNS_8DateTimeE
libosgEarth.so.0:_ZNK8osgEarth13DateTimeRange10intersectsERKS0_
libosgEarth.so.0:_ZNK8osgEarth13ElevationPool16fetchTileFromMapERKNS_7TileKeyERKNS_20ElevationLayerVectorERNS_4Util12UnorderedMapIS1_S1_EEPNS0_4TileE
libosgEarth.so.0:_ZNK8osgEarth13FeatureSource10getFiltersEv
libosgEarth.so.0:_ZNK8osgEarth13FeatureSource12applyFiltersERNSt7__cxx114listIN3osg7ref_ptrINS_7FeatureEEESaIS6_EEERKNS_9GeoExtentE
libosgEarth.so.0:_ZNK8osgEarth13FeatureSource12getOpenWriteEv
libosgEarth.so.0:_ZNK8osgEarth13FeatureSource13isBlacklistedEx
libosgEarth.so.0:_ZNK8osgEarth13FeatureSource15getFIDAttributeB5cxx11Ev
libosgEarth.so.0:_ZNK8osgEarth13FeatureSource17getFeatureProfileEv
libosgEarth.so.0:_ZNK8osgEarth13FeatureSource17getRewindPolygonsEv
libosgEarth.so.0:_ZNK8osgEarth13FeatureSource19getGeoInterpolationEv
libosgEarth.so.0:_ZNK8osgEarth13FeatureSource7Options9getConfigEv
libosgEarth.so.0:_ZNK8osgEarth13FeatureSource9getSchemaB5cxx11Ev
libosgEarth.so.0:_ZNK8osgEarth13InstanceCloud14InstancingData16releaseGLObjectsEPN3osg5StateE
libosgEarth.so.0:_ZNK8osgEarth13InstanceCloud16releaseGLObjectsEPN3osg5StateE
libosgEarth.so.0:_ZNK8osgEarth13InstanceCloud18computeBoundingBoxEv
libosgEarth.so.0:_ZNK8osgEarth13InstanceCloud8Renderer18drawImplementationERN3osg10RenderInfoEPKNS2_8DrawableE
libosgEarth.so.0:_ZNK8osgEarth13MultiGeometry16getComponentTypeEv
libosgEarth.so.0:_ZNK8osgEarth13MultiGeometry16getNumGeometriesEv
libosgEarth.so.0:_ZNK8osgEarth13MultiGeometry18getTotalPointCountEv
libosgEarth.so.0:_ZNK8osgEarth13MultiGeometry7cloneAsERKNS_8Geometry4TypeE
libosgEarth.so.0:_ZNK8osgEarth13MultiGeometry7isValidEv
libosgEarth.so.0:_ZNK8osgEarth13MultiGeometry9getBoundsEv
libosgEarth.so.0:_ZNK8osgEarth13MultiGeometry9getLengthEv
libosgEarth.so.0:_ZNK8osgEarth13PointDrawable11getNumVertsEv
libosgEarth.so.0:_ZNK8osgEarth13PointDrawable16compileGLObjectsERN3osg10RenderInfoE
libosgEarth.so.0:_ZNK8osgEarth13PointDrawable16releaseGLObjectsEPN3osg5StateE
libosgEarth.so.0:_ZNK8osgEarth13PointDrawable18drawImplementationERN3osg10RenderInfoE
libosgEarth.so.0:_ZNK8osgEarth13PointDrawable19checkSharedStateSetEPN3osg5StateE
libosgEarth.so.0:_ZNK8osgEarth13PointDrawable8getCountEv
libosgEarth.so.0:_ZNK8osgEarth13PointDrawable8getFirstEv
libosgEarth.so.0:_ZNK8osgEarth13PointDrawable9getVertexEj
libosgEarth.so.0:_ZNK8osgEarth13PolygonSymbol9getConfigEv
libosgEarth.so.0:_ZNK8osgEarth13ProxySettings5applyEPN5osgDB7OptionsE
libosgEarth.so.0:_ZNK8osgEarth13ProxySettings9getConfigEv
libosgEarth.so.0:_ZNK8osgEarth13RectangleNode12getLowerLeftEv
libosgEarth.so.0:_ZNK8osgEarth13RectangleNode12getUpperLeftEv
libosgEarth.so.0:_ZNK8osgEarth13RectangleNode13getLowerRightEv
libosgEarth.so.0:_ZNK8osgEarth13RectangleNode13getUpperRightEv
libosgEarth.so.0:_ZNK8osgEarth13RectangleNode8getStyleEv
libosgEarth.so.0:_ZNK8osgEarth13RectangleNode8getWidthEv
libosgEarth.so.0:_ZNK8osgEarth13RectangleNode9getConfigEv
libosgEarth.so.0:_ZNK8osgEarth13RectangleNode9getCornerENS0_6CornerE
libosgEarth.so.0:_ZNK8osgEarth13RectangleNode9getHeightEv
libosgEarth.so.0:_ZNK8osgEarth13SphereDragger12getPickColorEv
libosgEarth.so.0:_ZNK8osgEarth13SphereDragger7getSizeEv
libosgEarth.so.0:_ZNK8osgEarth13SphereDragger8getColorEv
libosgEarth.so.0:_ZNK8osgEarth13StateSetCache16releaseGLObjectsEPN3osg5StateE
libosgEarth.so.0:_ZNK8osgEarth13StateSetCache8eligibleEPN3osg14StateAttributeE
libosgEarth.so.0:_ZNK8osgEarth13StateSetCache8eligibleEPN3osg8StateSetE
libosgEarth.so.0:_ZNK8osgEarth13StyleSelector20getSelectedStyleNameB5cxx11Ev
libosgEarth.so.0:_ZNK8osgEarth13StyleSelector9getConfigEv
libosgEarth.so.0:_ZNK8osgEarth13TMSImageLayer10getTMSTypeB5cxx11Ev
libosgEarth.so.0:_ZNK8osgEarth13TMSImageLayer24writeImageImplementationERKNS_7TileKeyEPKN3osg5ImageEPNS_16ProgressCallbackE
libosgEarth.so.0:_ZNK8osgEarth13TMSImageLayer25createImageImplementationERKNS_7TileKeyEPNS_16ProgressCallbackE
libosgEarth.so.0:_ZNK8osgEarth13TMSImageLayer6getURLEv
libosgEarth.so.0:_ZNK8osgEarth13TMSImageLayer7Options9getConfigEv
libosgEarth.so.0:_ZNK8osgEarth13TMSImageLayer9getFormatB5cxx11Ev
libosgEarth.so.0:_ZNK8osgEarth13TiXmlDocument5CloneEv
libosgEarth.so.0:_ZNK8osgEarth13TiXmlDocument5PrintEP8_IO_FILEi
libosgEarth.so.0:_ZNK8osgEarth13TiXmlDocument6AcceptEPNS_12TiXmlVisitorE
libosgEarth.so.0:_ZNK8osgEarth13TiXmlDocument6CopyToEPS0_
libosgEarth.so.0:_ZNK8osgEarth13TiXmlDocument8SaveFileEP8_IO_FILE
libosgEarth.so.0:_ZNK8osgEarth13TiXmlDocument8SaveFileEPKc
libosgEarth.so.0:_ZNK8osgEarth13TiXmlDocument8SaveFileEv
libosgEarth.so.0:_ZNK8osgEarth13VerticalDatum14isEquivalentToEPKS0_
libosgEarth.so.0:_ZNK8osgEarth13VerticalDatum7hae2mslEddd
libosgEarth.so.0:_ZNK8osgEarth13VerticalDatum7msl2haeEddd
libosgEarth.so.0:_ZNK8osgEarth13WMSImageLayer14getTransparentEv
libosgEarth.so.0:_ZNK8osgEarth13WMSImageLayer17isSequencePlayingEv
libosgEarth.so.0:_ZNK8osgEarth13WMSImageLayer18getCapabilitiesURLEv
libosgEarth.so.0:_ZNK8osgEarth13WMSImageLayer18getSecondsPerFrameEv
libosgEarth.so.0:_ZNK8osgEarth13WMSImageLayer20getSequenceFrameInfoEv
libosgEarth.so.0:_ZNK8osgEarth13WMSImageLayer23supportsSequenceControlEv
libosgEarth.so.0:_ZNK8osgEarth13WMSImageLayer25createImageImplementationERKNS_7TileKeyEPNS_16ProgressCallbackE
libosgEarth.so.0:_ZNK8osgEarth13WMSImageLayer28getCurrentSequenceFrameIndexEPKN3osg10FrameStampE
libosgEarth.so.0:_ZNK8osgEarth13WMSImageLayer6getCRSB5cxx11Ev
libosgEarth.so.0:_ZNK8osgEarth13WMSImageLayer6getSRSB5cxx11Ev
libosgEarth.so.0:_ZNK8osgEarth13WMSImageLayer6getURLEv
libosgEarth.so.0:_ZNK8osgEarth13WMSImageLayer8getStyleB5cxx11Ev
libosgEarth.so.0:_ZNK8osgEarth13WMSImageLayer8getTimesB5cxx11Ev
libosgEarth.so.0:_ZNK8osgEarth13WMSImageLayer9getFormatB5cxx11Ev
libosgEarth.so.0:_ZNK8osgEarth13WMSImageLayer9getLayersB5cxx11Ev
libosgEarth.so.0:_ZNK8osgEarth13XYZImageLayer10getInvertYEv
libosgEarth.so.0:_ZNK8osgEarth13XYZImageLayer25createImageImplementationERKNS_7TileKeyEPNS_16ProgressCallbackE
libosgEarth.so.0:_ZNK8osgEarth13XYZImageLayer6getURLEv
libosgEarth.so.0:_ZNK8osgEarth13XYZImageLayer9getFormatB5cxx11Ev
libosgEarth.so.0:_ZNK8osgEarth14AltitudeSymbol9getConfigEv
libosgEarth.so.0:_ZNK8osgEarth14AnnotationData9getConfigEv
libosgEarth.so.0:_ZNK8osgEarth14AnnotationNode17getHorizonCullingEv
libosgEarth.so.0:_ZNK8osgEarth14AttributeValue19getDoubleArrayValueEv
libosgEarth.so.0:_ZNK8osgEarth14AttributeValue6getIntEx
libosgEarth.so.0:_ZNK8osgEarth14AttributeValue7getBoolEb
libosgEarth.so.0:_ZNK8osgEarth14AttributeValue9getDoubleEd
libosgEarth.so.0:_ZNK8osgEarth14AttributeValue9getStringB5cxx11Ev
libosgEarth.so.0:_ZNK8osgEarth14BingImageLayer10getQuadKeyB5cxx11ERKNS_7TileKeyE
libosgEarth.so.0:_ZNK8osgEarth14BingImageLayer12getDirectURIB5cxx11ERKNS_7TileKeyE
libosgEarth.so.0:_ZNK8osgEarth14BingImageLayer13getImagerySetB5cxx11Ev
libosgEarth.so.0:_ZNK8osgEarth14BingImageLayer21getImageryMetadataURLEv
libosgEarth.so.0:_ZNK8osgEarth14BingImageLayer25createImageImplementationERKNS_7TileKeyEPNS_16ProgressCallbackE
libosgEarth.so.0:_ZNK8osgEarth14BingImageLayer7Options9getConfigEv
libosgEarth.so.0:_ZNK8osgEarth14BingImageLayer9getAPIKeyB5cxx11Ev
libosgEarth.so.0:_ZNK8osgEarth14CoverageSymbol9getConfigEv
libosgEarth.so.0:_ZNK8osgEarth14ElevationLayer15getNoDataPolicyEv
libosgEarth.so.0:_ZNK8osgEarth14ElevationLayer16getVerticalDatumB5cxx11Ev
libosgEarth.so.0:_ZNK8osgEarth14ElevationLayer16writeHeightFieldERKNS_7TileKeyEPKN3osg11HeightFieldEPNS_16ProgressCallbackE
libosgEarth.so.0:_ZNK8osgEarth14ElevationLayer19assembleHeightFieldERKNS_7TileKeyERN3osg7ref_ptrINS4_11HeightFieldEEERNS5_INS_9NormalMapEEEPNS_16ProgressCallbackE
libosgEarth.so.0:_ZNK8osgEarth14ElevationLayer21applyProfileOverridesERN3osg7ref_ptrIKNS_7ProfileEEE
libosgEarth.so.0:_ZNK8osgEarth14ElevationLayer21normalizeNoDataValuesEPN3osg11HeightFieldE
libosgEarth.so.0:_ZNK8osgEarth14ElevationLayer30writeHeightFieldImplementationERKNS_7TileKeyEPKN3osg11HeightFieldEPNS_16ProgressCallbackE
libosgEarth.so.0:_ZNK8osgEarth14ElevationLayer7Options9getConfigEv
libosgEarth.so.0:_ZNK8osgEarth14ElevationLayer9getOffsetEv
libosgEarth.so.0:_ZNK8osgEarth14FeatureProfile11getMaxLevelEv
libosgEarth.so.0:_ZNK8osgEarth14FeatureProfile13getFirstLevelEv
libosgEarth.so.0:_ZNK8osgEarth14FeatureProfile16getTilingProfileEv
libosgEarth.so.0:_ZNK8osgEarth14FeatureProfile7isTiledEv
libosgEarth.so.0:_ZNK8osgEarth14GDALImageLayer13getConnectionB5cxx11Ev
libosgEarth.so.0:_ZNK8osgEarth14GDALImageLayer13getSubDataSetEv
libosgEarth.so.0:_ZNK8osgEarth14GDALImageLayer14getWarpProfileEv
libosgEarth.so.0:_ZNK8osgEarth14GDALImageLayer16getInterpolationEv
libosgEarth.so.0:_ZNK8osgEarth14GDALImageLayer25createImageImplementationERKNS_7TileKeyEPNS_16ProgressCallbackE
libosgEarth.so.0:_ZNK8osgEarth14GDALImageLayer6getURLEv
libosgEarth.so.0:_ZNK8osgEarth14GDALImageLayer7Options9getConfigEv
libosgEarth.so.0:_ZNK8osgEarth14GeoHeightField12getElevationEPKNS_16SpatialReferenceEddNS_19RasterInterpolationES3_Rf
libosgEarth.so.0:_ZNK8osgEarth14GeoHeightField12getElevationEdd
libosgEarth.so.0:_ZNK8osgEarth14GeoHeightField12getNormalMapEv
libosgEarth.so.0:_ZNK8osgEarth14GeoHeightField12getXIntervalEv
libosgEarth.so.0:_ZNK8osgEarth14GeoHeightField12getYIntervalEv
libosgEarth.so.0:_ZNK8osgEarth14GeoHeightField14getHeightFieldEv
libosgEarth.so.0:_ZNK8osgEarth14GeoHeightField15createSubSampleERKNS_9GeoExtentEjjNS_19RasterInterpolationE
libosgEarth.so.0:_ZNK8osgEarth14GeoHeightField21getElevationAndNormalEPKNS_16SpatialReferenceEddNS_19RasterInterpolationES3_RfRN3osg5Vec3fE
libosgEarth.so.0:_ZNK8osgEarth14GeoHeightField5validEv
libosgEarth.so.0:_ZNK8osgEarth14GeoHeightField9getExtentEv
libosgEarth.so.0:_ZNK8osgEarth14GeoHeightField9getNormalEdd
libosgEarth.so.0:_ZNK8osgEarth14InstanceSymbol6asIconEv
libosgEarth.so.0:_ZNK8osgEarth14InstanceSymbol7asModelEv
libosgEarth.so.0:_ZNK8osgEarth14InstanceSymbol9getConfigEv
libosgEarth.so.0:_ZNK8osgEarth14LandCoverClass9getConfigEv
libosgEarth.so.0:_ZNK8osgEarth14LandCoverLayer13readMetaImageERA3_A3_NS0_18MetaImageComponentERKNS_7TileKeyEiiRN3osg5Vec4fEPNS_16ProgressCallbackE
libosgEarth.so.0:_ZNK8osgEarth14LandCoverLayer25createImageImplementationERKNS_7TileKeyEPNS_16ProgressCallbackE
libosgEarth.so.0:_ZNK8osgEarth14LandCoverLayer25getLandCoverValueMappingsEv
libosgEarth.so.0:_ZNK8osgEarth14LandCoverLayer26createFractalEnhancedImageERKNS_7TileKeyEPNS_16ProgressCallbackE
libosgEarth.so.0:_ZNK8osgEarth14LandCoverLayer7Options9getConfigEv
libosgEarth.so.0:_ZNK8osgEarth14LandCoverLayer9getConfigEv
libosgEarth.so.0:_ZNK8osgEarth14LandCoverLayer9getSourceEv
libosgEarth.so.0:_ZNK8osgEarth14PowerlineLayer12ModelOptions9getConfigEv
libosgEarth.so.0:_ZNK8osgEarth14PowerlineLayer38createFeatureNodeFactoryImplementationEv
libosgEarth.so.0:_ZNK8osgEarth14PowerlineLayer7Options9getConfigEv
libosgEarth.so.0:_ZNK8osgEarth14ProfileOptions7definedEv
libosgEarth.so.0:_ZNK8osgEarth14ProfileOptions9getConfigEv
libosgEarth.so.0:_ZNK8osgEarth14TerrainOptions9getConfigEv
libosgEarth.so.0:_ZNK8osgEarth14TiXmlAttribute11DoubleValueEv
libosgEarth.so.0:_ZNK8osgEarth14TiXmlAttribute13QueryIntValueEPi
libosgEarth.so.0:_ZNK8osgEarth14TiXmlAttribute16QueryDoubleValueEPd
libosgEarth.so.0:_ZNK8osgEarth14TiXmlAttribute4NextEv
libosgEarth.so.0:_ZNK8osgEarth14TiXmlAttribute5PrintEP8_IO_FILEiPNSt7__cxx1112basic_stringIcSt11char_traitsIcESaIcEEE
libosgEarth.so.0:_ZNK8osgEarth14TiXmlAttribute8IntValueEv
libosgEarth.so.0:_ZNK8osgEarth14TiXmlAttribute8PreviousEv
libosgEarth.so.0:_ZNK8osgEarth14TileRasterizer15RenderInstaller18drawImplementationERN3osg10RenderInfoE
libosgEarth.so.0:_ZNK8osgEarth14TileRasterizer5validEv
libosgEarth.so.0:_ZNK8osgEarth14TileRasterizer7getNodeEv
libosgEarth.so.0:_ZNK8osgEarth14VirtualProgram11ShaderEntry6acceptERKN3osg5StateE
libosgEarth.so.0:_ZNK8osgEarth14VirtualProgram11ShaderEntryltERKS1_
libosgEarth.so.0:_ZNK8osgEarth14VirtualProgram12getFunctionsERSt3mapINS_10ShaderComp16FunctionLocationESt8multimapIfNS2_8FunctionESt4lessIfESaISt4pairIKfS5_EEES6_IS3_ESaIS8_IKS3_SC_EEE
libosgEarth.so.0:_ZNK8osgEarth14VirtualProgram12getShaderMapERNS_4Util10vector_mapIjNS0_11ShaderEntryEEE
libosgEarth.so.0:_ZNK8osgEarth14VirtualProgram13getPolyShaderERKNSt7__cxx1112basic_stringIcSt11char_traitsIcESaIcEEE
libosgEarth.so.0:_ZNK8osgEarth14VirtualProgram16compileGLObjectsERN3osg5StateE
libosgEarth.so.0:_ZNK8osgEarth14VirtualProgram16hasGLSLExtensionERKNSt7__cxx1112basic_stringIcSt11char_traitsIcESaIcEEE
libosgEarth.so.0:_ZNK8osgEarth14VirtualProgram16releaseGLObjectsEPN3osg5StateE
libosgEarth.so.0:_ZNK8osgEarth14VirtualProgram19accumulateFunctionsERKN3osg5StateERSt3mapINS_10ShaderComp16FunctionLocationESt8multimapIfNS6_8FunctionESt4lessIfESaISt4pairIKfS9_EEESA_IS7_ESaISC_IKS7_SG_EEE
libosgEarth.so.0:_ZNK8osgEarth14VirtualProgram27addShadersToAccumulationMapERNS_4Util10vector_mapIjNS0_11ShaderEntryEEERKN3osg5StateE
libosgEarth.so.0:_ZNK8osgEarth14VirtualProgram30getAcceptCallbacksVaryPerFrameEv
libosgEarth.so.0:_ZNK8osgEarth14VirtualProgram5applyERN3osg5StateE
libosgEarth.so.0:_ZNK8osgEarth14VirtualProgram7compareERKN3osg14StateAttributeE
libosgEarth.so.0:_ZNK8osgEarth15AnnotationLayer7Options9getConfigEv
libosgEarth.so.0:_ZNK8osgEarth15AnnotationLayer7getNodeEv
libosgEarth.so.0:_ZNK8osgEarth15AnnotationLayer8getGroupEv
libosgEarth.so.0:_ZNK8osgEarth15BillboardSymbol14createResourceEv
libosgEarth.so.0:_ZNK8osgEarth15BillboardSymbol9getConfigEv
libosgEarth.so.0:_ZNK8osgEarth15ContourMapLayer12getGrayscaleEv
libosgEarth.so.0:_ZNK8osgEarth15ContourMapLayer7Options9getConfigEv
libosgEarth.so.0:_ZNK8osgEarth15ExtrusionSymbol9getConfigEv
libosgEarth.so.0:_ZNK8osgEarth15GeoPositionNode19getOcclusionCullingEv
libosgEarth.so.0:_ZNK8osgEarth15GeoPositionNode30getOcclusionCullingMaxAltitudeEv
libosgEarth.so.0:_ZNK8osgEarth15GeoPositionNode9getConfigEv
libosgEarth.so.0:_ZNK8osgEarth15GeometryFactory12createCircleERKN3osg5Vec3dERKNS_8DistanceEjPNS_8GeometryE
libosgEarth.so.0:_ZNK8osgEarth15GeometryFactory13createEllipseERKN3osg5Vec3dERKNS_8DistanceES7_RKNS_5AngleEjPNS_8GeometryE
libosgEarth.so.0:_ZNK8osgEarth15GeometryFactory15createRectangleERKN3osg5Vec3dERKNS_8DistanceES7_
libosgEarth.so.0:_ZNK8osgEarth15GeometryFactory19createEllipticalArcERKN3osg5Vec3dERKNS_8DistanceES7_RKNS_5AngleESA_SA_jPNS_8GeometryEb
libosgEarth.so.0:_ZNK8osgEarth15GeometryFactory9createArcERKN3osg5Vec3dERKNS_8DistanceERKNS_5AngleESA_jPNS_8GeometryEb
libosgEarth.so.0:_ZNK8osgEarth15InstanceBuilder17installInstancingEPN3osg8GeometryE
libosgEarth.so.0:_ZNK8osgEarth15ShaderGenerator6acceptEPKN3osg14StateAttributeE
libosgEarth.so.0:_ZNK8osgEarth16DepthOffsetGroup12computeBoundEv
libosgEarth.so.0:_ZNK8osgEarth16DepthOffsetGroup21getDepthOffsetOptionsEv
libosgEarth.so.0:_ZNK8osgEarth16FeatureMaskLayer16getFeatureSourceEv
libosgEarth.so.0:_ZNK8osgEarth16FeatureMaskLayer7Options9getConfigEv
libosgEarth.so.0:_ZNK8osgEarth16FeatureMaskLayer9getConfigEv
libosgEarth.so.0:_ZNK8osgEarth16GeometryIterator7hasMoreEv
libosgEarth.so.0:_ZNK8osgEarth16HorizonClipPlane14ReleaseFunctorclERKNS0_13PerCameraDataE
libosgEarth.so.0:_ZNK8osgEarth16HorizonClipPlane16releaseGLObjectsEPN3osg5StateE
libosgEarth.so.0:_ZNK8osgEarth16MVTFeatureSource6getURLEv
libosgEarth.so.0:_ZNK8osgEarth16MaskSourceDriver20getMaskSourceOptionsEPKN5osgDB7OptionsE
libosgEarth.so.0:_ZNK8osgEarth16OGRFeatureSource10isWritableEv
libosgEarth.so.0:_ZNK8osgEarth16OGRFeatureSource12getOGRDriverB5cxx11Ev
libosgEarth.so.0:_ZNK8osgEarth16OGRFeatureSource13getConnectionB5cxx11Ev
libosgEarth.so.0:_ZNK8osgEarth16OGRFeatureSource14getGeometryURLEv
libosgEarth.so.0:_ZNK8osgEarth16OGRFeatureSource15getFeatureCountEv
libosgEarth.so.0:_ZNK8osgEarth16OGRFeatureSource15getGeometryTypeEv
libosgEarth.so.0:_ZNK8osgEarth16OGRFeatureSource18supportsGetFeatureEv
libosgEarth.so.0:_ZNK8osgEarth16OGRFeatureSource20getBuildSpatialIndexEv
libosgEarth.so.0:_ZNK8osgEarth16OGRFeatureSource6getURLEv
libosgEarth.so.0:_ZNK8osgEarth16OGRFeatureSource7Options9getConfigEv
libosgEarth.so.0:_ZNK8osgEarth16OGRFeatureSource8getLayerB5cxx11Ev
libosgEarth.so.0:_ZNK8osgEarth16OGRFeatureSource8getQueryEv
libosgEarth.so.0:_ZNK8osgEarth16OGRFeatureSource9getSchemaB5cxx11Ev
libosgEarth.so.0:_ZNK8osgEarth16ProgressCallback10isCanceledEv
libosgEarth.so.0:_ZNK8osgEarth16SimpleOceanLayer11getSeaLevelEv
libosgEarth.so.0:_ZNK8osgEarth16SimpleOceanLayer12getMaskLayerEv
libosgEarth.so.0:_ZNK8osgEarth16SimpleOceanLayer14getMaxAltitudeEv
libosgEarth.so.0:_ZNK8osgEarth16SimpleOceanLayer16getUseBathymetryEv
libosgEarth.so.0:_ZNK8osgEarth16SimpleOceanLayer20getSurfaceTextureLODEv
libosgEarth.so.0:_ZNK8osgEarth16SimpleOceanLayer21modifyTileBoundingBoxERKNS_7TileKeyERN3osg15BoundingBoxImplINS4_5Vec3fEEE
libosgEarth.so.0:_ZNK8osgEarth16SimpleOceanLayer7Options9getConfigEv
libosgEarth.so.0:_ZNK8osgEarth16SimpleOceanLayer8getColorEv
libosgEarth.so.0:_ZNK8osgEarth16SimpleOceanLayer9getConfigEv
libosgEarth.so.0:_ZNK8osgEarth16SpatialReference10isGeodeticEv
libosgEarth.so.0:_ZNK8osgEarth16SpatialReference10isMercatorEv
libosgEarth.so.0:_ZNK8osgEarth16SpatialReference10transformZERSt6vectorIN3osg5Vec3dESaIS3_EEPKS0_b
libosgEarth.so.0:_ZNK8osgEarth16SpatialReference11getInitTypeB5cxx11Ev
libosgEarth.so.0:_ZNK8osgEarth16SpatialReference11guessBoundsERNS_6BoundsE
libosgEarth.so.0:_ZNK8osgEarth16SpatialReference11isProjectedEv
libosgEarth.so.0:_ZNK8osgEarth16SpatialReference11transform2DEddPKS0_RdS3_
libosgEarth.so.0:_ZNK8osgEarth16SpatialReference12getDatumNameB5cxx11Ev
libosgEarth.so.0:_ZNK8osgEarth16SpatialReference12getEllipsoidEv
libosgEarth.so.0:_ZNK8osgEarth16SpatialReference12isContiguousEv
libosgEarth.so.0:_ZNK8osgEarth16SpatialReference12isGeocentricEv
libosgEarth.so.0:_ZNK8osgEarth16SpatialReference12isGeographicEv
libosgEarth.so.0:_ZNK8osgEarth16SpatialReference12isNorthPolarEv
libosgEarth.so.0:_ZNK8osgEarth16SpatialReference12isSouthPolarEv
libosgEarth.so.0:_ZNK8osgEarth16SpatialReference13isUserDefinedEv
libosgEarth.so.0:_ZNK8osgEarth16SpatialReference14getGeodeticSRSEv
libosgEarth.so.0:_ZNK8osgEarth16SpatialReference14isEquivalentToEPKS0_
libosgEarth.so.0:_ZNK8osgEarth16SpatialReference14transformUnitsEdPKS0_d
libosgEarth.so.0:_ZNK8osgEarth16SpatialReference15_isEquivalentToEPKS0_b
libosgEarth.so.0:_ZNK8osgEarth16SpatialReference16getGeocentricSRSEv
libosgEarth.so.0:_ZNK8osgEarth16SpatialReference16getGeographicSRSEv
libosgEarth.so.0:_ZNK8osgEarth16SpatialReference16getVerticalDatumEv
libosgEarth.so.0:_ZNK8osgEarth16SpatialReference16transformToWorldERKN3osg5Vec3dERS2_
libosgEarth.so.0:_ZNK8osgEarth16SpatialReference17getVertInitStringB5cxx11Ev
libosgEarth.so.0:_ZNK8osgEarth16SpatialReference18createLocalToWorldERKN3osg5Vec3dERNS1_7MatrixdE
libosgEarth.so.0:_ZNK8osgEarth16SpatialReference18createWorldToLocalERKN3osg5Vec3dERNS1_7MatrixdE
libosgEarth.so.0:_ZNK8osgEarth16SpatialReference18getHorizInitStringB5cxx11Ev
libosgEarth.so.0:_ZNK8osgEarth16SpatialReference18isVertEquivalentToEPKS0_
libosgEarth.so.0:_ZNK8osgEarth16SpatialReference18transformFromWorldERKN3osg5Vec3dERS2_Pd
libosgEarth.so.0:_ZNK8osgEarth16SpatialReference19createUTMFromLonLatERKNS_5AngleES3_
libosgEarth.so.0:_ZNK8osgEarth16SpatialReference19isHorizEquivalentToEPKS0_
libosgEarth.so.0:_ZNK8osgEarth16SpatialReference19isSphericalMercatorEv
libosgEarth.so.0:_ZNK8osgEarth16SpatialReference20transformExtentToMBREPKS0_RdS3_S3_S3_
libosgEarth.so.0:_ZNK8osgEarth16SpatialReference21createTangentPlaneSRSERKN3osg5Vec3dE
libosgEarth.so.0:_ZNK8osgEarth16SpatialReference21transformExtentPointsEPKS0_ddddPdS3_jj
libosgEarth.so.0:_ZNK8osgEarth16SpatialReference22transformXYPointArraysEPdS1_jPKS0_
libosgEarth.so.0:_ZNK8osgEarth16SpatialReference24createEquirectangularSRSEv
libosgEarth.so.0:_ZNK8osgEarth16SpatialReference26createCoordinateSystemNodeEv
libosgEarth.so.0:_ZNK8osgEarth16SpatialReference28createTransMercFromLongitudeERKNS_5AngleE
libosgEarth.so.0:_ZNK8osgEarth16SpatialReference28populateCoordinateSystemNodeEPN3osg20CoordinateSystemNodeE
libosgEarth.so.0:_ZNK8osgEarth16SpatialReference6getKeyEv
libosgEarth.so.0:_ZNK8osgEarth16SpatialReference6getWKTB5cxx11Ev
libosgEarth.so.0:_ZNK8osgEarth16SpatialReference6isCubeEv
libosgEarth.so.0:_ZNK8osgEarth16SpatialReference7getNameB5cxx11Ev
libosgEarth.so.0:_ZNK8osgEarth16SpatialReference8getUnitsEv
libosgEarth.so.0:_ZNK8osgEarth16SpatialReference9transformERKN3osg5Vec3dEPKS0_RS2_
libosgEarth.so.0:_ZNK8osgEarth16SpatialReference9transformERSt6vectorIN3osg5Vec3dESaIS3_EEPKS0_
libosgEarth.so.0:_ZNK8osgEarth16StringExpression4evalB5cxx11Ev
libosgEarth.so.0:_ZNK8osgEarth16StringExpression7evalURIEv
libosgEarth.so.0:_ZNK8osgEarth16StringExpression9getConfigEv
libosgEarth.so.0:_ZNK8osgEarth16TFSFeatureSource10getInvertYEv
libosgEarth.so.0:_ZNK8osgEarth16TFSFeatureSource11getMaxLevelEv
libosgEarth.so.0:_ZNK8osgEarth16TFSFeatureSource11getMinLevelEv
libosgEarth.so.0:_ZNK8osgEarth16TFSFeatureSource5isGMLERKNSt7__cxx1112basic_stringIcSt11char_traitsIcESaIcEEE
libosgEarth.so.0:_ZNK8osgEarth16TFSFeatureSource6getURLEv
libosgEarth.so.0:_ZNK8osgEarth16TFSFeatureSource6isJSONERKNSt7__cxx1112basic_stringIcSt11char_traitsIcESaIcEEE
libosgEarth.so.0:_ZNK8osgEarth16TFSFeatureSource9getFormatB5cxx11Ev
libosgEarth.so.0:_ZNK8osgEarth16TerrainTileModel10getTextureEi
libosgEarth.so.0:_ZNK8osgEarth16TerrainTileModel16compileGLObjectsERN3osg5StateE
libosgEarth.so.0:_ZNK8osgEarth16TerrainTileModel16getNormalTextureEv
libosgEarth.so.0:_ZNK8osgEarth16TerrainTileModel19getElevationTextureEv
libosgEarth.so.0:_ZNK8osgEarth16TerrainTileModel19getLandCoverTextureEv
libosgEarth.so.0:_ZNK8osgEarth16TerrainTileModel22getNormalTextureMatrixEv
libosgEarth.so.0:_ZNK8osgEarth16TerrainTileModel25getElevationTextureMatrixEv
libosgEarth.so.0:_ZNK8osgEarth16TerrainTileModel25getLandCoverTextureMatrixEv
libosgEarth.so.0:_ZNK8osgEarth16TerrainTileModel9getMatrixEi
libosgEarth.so.0:_ZNK8osgEarth16TiXmlDeclaration5CloneEv
libosgEarth.so.0:_ZNK8osgEarth16TiXmlDeclaration5PrintEP8_IO_FILEiPNSt7__cxx1112basic_stringIcSt11char_traitsIcESaIcEEE
libosgEarth.so.0:_ZNK8osgEarth16TiXmlDeclaration6AcceptEPNS_12TiXmlVisitorE
libosgEarth.so.0:_ZNK8osgEarth16TiXmlDeclaration6CopyToEPS0_
libosgEarth.so.0:_ZNK8osgEarth16WFSFeatureSource11getTypeNameB5cxx11Ev
libosgEarth.so.0:_ZNK8osgEarth16WFSFeatureSource14getMaxFeaturesEv
libosgEarth.so.0:_ZNK8osgEarth16WFSFeatureSource15getOutputFormatB5cxx11Ev
libosgEarth.so.0:_ZNK8osgEarth16WFSFeatureSource16getDisableTilingEv
libosgEarth.so.0:_ZNK8osgEarth16WFSFeatureSource5isGMLERKNSt7__cxx1112basic_stringIcSt11char_traitsIcESaIcEEE
libosgEarth.so.0:_ZNK8osgEarth16WFSFeatureSource6getURLEv
libosgEarth.so.0:_ZNK8osgEarth16WFSFeatureSource6isJSONERKNSt7__cxx1112basic_stringIcSt11char_traitsIcESaIcEEE
libosgEarth.so.0:_ZNK8osgEarth16WFSFeatureSource9createURLB5cxx11ERKNS_5QueryE
libosgEarth.so.0:_ZNK8osgEarth16WFSFeatureSource9getBufferEv
libosgEarth.so.0:_ZNK8osgEarth16XYZFeatureSource10getInvertYEv
libosgEarth.so.0:_ZNK8osgEarth16XYZFeatureSource11getMaxLevelEv
libosgEarth.so.0:_ZNK8osgEarth16XYZFeatureSource11getMinLevelEv
libosgEarth.so.0:_ZNK8osgEarth16XYZFeatureSource5isGMLERKNSt7__cxx1112basic_stringIcSt11char_traitsIcESaIcEEE
libosgEarth.so.0:_ZNK8osgEarth16XYZFeatureSource6getURLEv
libosgEarth.so.0:_ZNK8osgEarth16XYZFeatureSource6isJSONERKNSt7__cxx1112basic_stringIcSt11char_traitsIcESaIcEEE
libosgEarth.so.0:_ZNK8osgEarth16XYZFeatureSource7Options9getConfigEv
libosgEarth.so.0:_ZNK8osgEarth16XYZFeatureSource9getFormatB5cxx11Ev
libosgEarth.so.0:_ZNK8osgEarth17ElevationEnvelope6getSRSEv
libosgEarth.so.0:_ZNK8osgEarth17FeatureImageLayer10preProcessEPN3osg5ImageE
libosgEarth.so.0:_ZNK8osgEarth17FeatureImageLayer11postProcessEPN3osg5ImageE
libosgEarth.so.0:_ZNK8osgEarth17FeatureImageLayer22renderFeaturesForStyleEPNS_4Util7SessionERKNS_5StyleERKNSt7__cxx114listIN3osg7ref_ptrINS_7FeatureEEESaISC_EEERKNS_9GeoExtentEPNS9_5ImageE
libosgEarth.so.0:_ZNK8osgEarth17FeatureImageLayer25createImageImplementationERKNS_7TileKeyEPNS_16ProgressCallbackE
libosgEarth.so.0:_ZNK8osgEarth17FeatureImageLayer7Options9getConfigEv
libosgEarth.so.0:_ZNK8osgEarth17FeatureListCursor7hasMoreEv
libosgEarth.so.0:_ZNK8osgEarth17FeatureModelLayer13getStyleSheetEv
libosgEarth.so.0:_ZNK8osgEarth17FeatureModelLayer16getAlphaBlendingEv
libosgEarth.so.0:_ZNK8osgEarth17FeatureModelLayer16getFeatureSourceEv
libosgEarth.so.0:_ZNK8osgEarth17FeatureModelLayer17getEnableLightingEv
libosgEarth.so.0:_ZNK8osgEarth17FeatureModelLayer35getCreateFeatureNodeFactoryCallbackEv
libosgEarth.so.0:_ZNK8osgEarth17FeatureModelLayer38createFeatureNodeFactoryImplementationEv
libosgEarth.so.0:_ZNK8osgEarth17FeatureModelLayer7Options9getConfigEv
libosgEarth.so.0:_ZNK8osgEarth17FeatureModelLayer7getNodeEv
libosgEarth.so.0:_ZNK8osgEarth17FeatureModelLayer9getConfigEv
libosgEarth.so.0:_ZNK8osgEarth17FeatureModelLayer9getExtentEv
libosgEarth.so.0:_ZNK8osgEarth17FeatureModelLayer9getLayoutEv
libosgEarth.so.0:_ZNK8osgEarth17LocalGeometryNode9getConfigEv
libosgEarth.so.0:_ZNK8osgEarth17MBTilesImageLayer11getCompressEv
libosgEarth.so.0:_ZNK8osgEarth17MBTilesImageLayer24writeImageImplementationERKNS_7TileKeyEPKN3osg5ImageEPNS_16ProgressCallbackE
libosgEarth.so.0:_ZNK8osgEarth17MBTilesImageLayer25createImageImplementationERKNS_7TileKeyEPNS_16ProgressCallbackE
libosgEarth.so.0:_ZNK8osgEarth17MBTilesImageLayer6getURLEv
libosgEarth.so.0:_ZNK8osgEarth17MBTilesImageLayer7Options9getConfigEv
libosgEarth.so.0:_ZNK8osgEarth17MBTilesImageLayer9getFormatB5cxx11Ev
libosgEarth.so.0:_ZNK8osgEarth17MaskSourceOptions9getConfigEv
libosgEarth.so.0:_ZNK8osgEarth17ModelSourceDriver21getModelSourceOptionsEPKN5osgDB7OptionsE
libosgEarth.so.0:_ZNK8osgEarth17NumericExpression4evalEv
libosgEarth.so.0:_ZNK8osgEarth17NumericExpression9getConfigEv
libosgEarth.so.0:_ZNK8osgEarth17TMSElevationLayer10getTMSTypeB5cxx11Ev
libosgEarth.so.0:_ZNK8osgEarth17TMSElevationLayer31createHeightFieldImplementationERKNS_7TileKeyEPNS_16ProgressCallbackE
libosgEarth.so.0:_ZNK8osgEarth17TMSElevationLayer6getURLEv
libosgEarth.so.0:_ZNK8osgEarth17TMSElevationLayer7Options9getConfigEv
libosgEarth.so.0:_ZNK8osgEarth17TMSElevationLayer9getFormatB5cxx11Ev
libosgEarth.so.0:_ZNK8osgEarth17TerrainEngineNode12computeBoundEv
libosgEarth.so.0:_ZNK8osgEarth17TerrainEngineNode12getResourcesEv
libosgEarth.so.0:_ZNK8osgEarth17TerrainEngineNode23getComputeRangeCallbackEv
libosgEarth.so.0:_ZNK8osgEarth17TerrainOptionsAPI11getFirstLODEv
libosgEarth.so.0:_ZNK8osgEarth17TerrainOptionsAPI11getTileSizeEv
libosgEarth.so.0:_ZNK8osgEarth17TerrainOptionsAPI12getRangeModeEv
libosgEarth.so.0:_ZNK8osgEarth17TerrainOptionsAPI13getNormalMapsEv
libosgEarth.so.0:_ZNK8osgEarth17TerrainOptionsAPI14getCastShadowsEv
libosgEarth.so.0:_ZNK8osgEarth17TerrainOptionsAPI14getProgressiveEv
libosgEarth.so.0:_ZNK8osgEarth17TerrainOptionsAPI15getMorphImageryEv
libosgEarth.so.0:_ZNK8osgEarth17TerrainOptionsAPI15getMorphTerrainEv
libosgEarth.so.0:_ZNK8osgEarth17TerrainOptionsAPI16getMinExpiryTimeEv
libosgEarth.so.0:_ZNK8osgEarth17TerrainOptionsAPI16getPriorityScaleEv
libosgEarth.so.0:_ZNK8osgEarth17TerrainOptionsAPI16getTilePixelSizeEv
libosgEarth.so.0:_ZNK8osgEarth17TerrainOptionsAPI16getVerticalScaleEv
libosgEarth.so.0:_ZNK8osgEarth17TerrainOptionsAPI17getClusterCullingEv
libosgEarth.so.0:_ZNK8osgEarth17TerrainOptionsAPI17getEnableBlendingEv
libosgEarth.so.0:_ZNK8osgEarth17TerrainOptionsAPI17getEnableLightingEv
libosgEarth.so.0:_ZNK8osgEarth17TerrainOptionsAPI17getMergesPerFrameEv
libosgEarth.so.0:_ZNK8osgEarth17TerrainOptionsAPI17getMinExpiryRangeEv
libosgEarth.so.0:_ZNK8osgEarth17TerrainOptionsAPI17getNormalizeEdgesEv
libosgEarth.so.0:_ZNK8osgEarth17TerrainOptionsAPI17getVerticalOffsetEv
libosgEarth.so.0:_ZNK8osgEarth17TerrainOptionsAPI18getGPUTessellationEv
libosgEarth.so.0:_ZNK8osgEarth17TerrainOptionsAPI18getMinExpiryFramesEv
libosgEarth.so.0:_ZNK8osgEarth17TerrainOptionsAPI18getMinNormalMapLODEv
libosgEarth.so.0:_ZNK8osgEarth17TerrainOptionsAPI18getRenderBinNumberEv
libosgEarth.so.0:_ZNK8osgEarth17TerrainOptionsAPI21getCompressNormalMapsEv
libosgEarth.so.0:_ZNK8osgEarth17TerrainOptionsAPI21getMinTileRangeFactorEv
libosgEarth.so.0:_ZNK8osgEarth17TerrainOptionsAPI22getExpirationThresholdEv
libosgEarth.so.0:_ZNK8osgEarth17TerrainOptionsAPI24getHeightFieldSkirtRatioEv
libosgEarth.so.0:_ZNK8osgEarth17TerrainOptionsAPI27getMaxTilesToUnloadPerFrameEv
libosgEarth.so.0:_ZNK8osgEarth17TerrainOptionsAPI8getColorEv
libosgEarth.so.0:_ZNK8osgEarth17TerrainOptionsAPI8getDebugEv
libosgEarth.so.0:_ZNK8osgEarth17TerrainOptionsAPI9getMaxLODEv
libosgEarth.so.0:_ZNK8osgEarth17TerrainOptionsAPI9getMinLODEv
libosgEarth.so.0:_ZNK8osgEarth17TiXmlAttributeSet4FindEPKc
libosgEarth.so.0:_ZNK8osgEarth17TiXmlAttributeSet4FindERKNSt7__cxx1112basic_stringIcSt11char_traitsIcESaIcEEE
libosgEarth.so.0:_ZNK8osgEarth17WireLinesOperator14installShadersEPN3osg4NodeE
libosgEarth.so.0:_ZNK8osgEarth17WireLinesOperatorclEPN3osg13TemplateArrayINS1_5Vec3fELNS1_5Array4TypeE28ELi3ELi5126EEES7_PNS_4Util19OsgGeometryOperator8CallbackEb
libosgEarth.so.0:_ZNK8osgEarth17XYZElevationLayer10getInvertYEv
libosgEarth.so.0:_ZNK8osgEarth17XYZElevationLayer20getElevationEncodingB5cxx11Ev
libosgEarth.so.0:_ZNK8osgEarth17XYZElevationLayer31createHeightFieldImplementationERKNS_7TileKeyEPNS_16ProgressCallbackE
libosgEarth.so.0:_ZNK8osgEarth17XYZElevationLayer6getURLEv
libosgEarth.so.0:_ZNK8osgEarth17XYZElevationLayer9getFormatB5cxx11Ev
libosgEarth.so.0:_ZNK8osgEarth18BingElevationLayer31createHeightFieldImplementationERKNS_7TileKeyEPNS_16ProgressCallbackE
libosgEarth.so.0:_ZNK8osgEarth18BingElevationLayer6getURLEv
libosgEarth.so.0:_ZNK8osgEarth18BingElevationLayer7Options9getConfigEv
libosgEarth.so.0:_ZNK8osgEarth18BingElevationLayer9getAPIKeyB5cxx11Ev
libosgEarth.so.0:_ZNK8osgEarth18CreateTileManifest10inSyncWithEPKNS_3MapE
libosgEarth.so.0:_ZNK8osgEarth18CreateTileManifest17includesElevationEv
libosgEarth.so.0:_ZNK8osgEarth18CreateTileManifest17includesLandCoverEv
libosgEarth.so.0:_ZNK8osgEarth18CreateTileManifest5emptyEv
libosgEarth.so.0:_ZNK8osgEarth18CreateTileManifest8excludesEPKNS_5LayerE
libosgEarth.so.0:_ZNK8osgEarth18CreateTileManifest8includesEPKNS_5LayerE
libosgEarth.so.0:_ZNK8osgEarth18CreateTileManifest8includesEi
libosgEarth.so.0:_ZNK8osgEarth18DepthOffsetOptions9getConfigEv
libosgEarth.so.0:_ZNK8osgEarth18FeatureSourceIndex10getFeatureEj
libosgEarth.so.0:_ZNK8osgEarth18FeatureSourceIndex11getObjectIDEx
libosgEarth.so.0:_ZNK8osgEarth18GDALElevationLayer13getConnectionB5cxx11Ev
libosgEarth.so.0:_ZNK8osgEarth18GDALElevationLayer13getSubDataSetEv
libosgEarth.so.0:_ZNK8osgEarth18GDALElevationLayer14getWarpProfileEv
libosgEarth.so.0:_ZNK8osgEarth18GDALElevationLayer16getInterpolationEv
libosgEarth.so.0:_ZNK8osgEarth18GDALElevationLayer31createHeightFieldImplementationERKNS_7TileKeyEPNS_16ProgressCallbackE
libosgEarth.so.0:_ZNK8osgEarth18GDALElevationLayer6getURLEv
libosgEarth.so.0:_ZNK8osgEarth18GDALElevationLayer7Options9getConfigEv
libosgEarth.so.0:_ZNK8osgEarth18GDALElevationLayer9getUseVRTEv
libosgEarth.so.0:_ZNK8osgEarth18IntersectionPicker12getObjectIDsERKSt8multisetINS_4Util20PrimitiveIntersector12IntersectionESt4lessIS4_ESaIS4_EERSt3setIjS5_IjESaIjEE
libosgEarth.so.0:_ZNK8osgEarth18IntersectionPicker4pickEffRSt8multisetINS_4Util20PrimitiveIntersector12IntersectionESt4lessIS4_ESaIS4_EE
libosgEarth.so.0:_ZNK8osgEarth18ModelSourceOptions9getConfigEv
libosgEarth.so.0:_ZNK8osgEarth19CesiumIonImageLayer10getAssetIdB5cxx11Ev
libosgEarth.so.0:_ZNK8osgEarth19CesiumIonImageLayer25createImageImplementationERKNS_7TileKeyEPNS_16ProgressCallbackE
libosgEarth.so.0:_ZNK8osgEarth19CesiumIonImageLayer7Options9getConfigEv
libosgEarth.so.0:_ZNK8osgEarth19CesiumIonImageLayer8getTokenB5cxx11Ev
libosgEarth.so.0:_ZNK8osgEarth19CesiumIonImageLayer9getServerEv
libosgEarth.so.0:_ZNK8osgEarth19ColorFilterRegistry9createOneERKNS_6ConfigE
libosgEarth.so.0:_ZNK8osgEarth19CompositeImageLayer25createImageImplementationERKNS_7TileKeyEPNS_16ProgressCallbackE
libosgEarth.so.0:_ZNK8osgEarth19CompositeImageLayer7Options9getConfigEv
libosgEarth.so.0:_ZNK8osgEarth19CompositeImageLayer7getNodeEv
libosgEarth.so.0:_ZNK8osgEarth19CompositeImageLayer9getLayersEv
libosgEarth.so.0:_ZNK8osgEarth19FeatureModelOptions9getConfigEv
libosgEarth.so.0:_ZNK8osgEarth19LandCoverDictionary12getClassByUVERKNS_8GeoImageEdd
libosgEarth.so.0:_ZNK8osgEarth19LandCoverDictionary14getClassByNameERKNSt7__cxx1112basic_stringIcSt11char_traitsIcESaIcEEE
libosgEarth.so.0:_ZNK8osgEarth19LandCoverDictionary15getClassByValueEi
libosgEarth.so.0:_ZNK8osgEarth19LandCoverDictionary7Options9getConfigEv
libosgEarth.so.0:_ZNK8osgEarth19TileCacheImageLayer25createImageImplementationERKNS_7TileKeyEPNS_16ProgressCallbackE
libosgEarth.so.0:_ZNK8osgEarth19TileCacheImageLayer6getURLEv
libosgEarth.so.0:_ZNK8osgEarth19TileCacheImageLayer7Options9getConfigEv
libosgEarth.so.0:_ZNK8osgEarth19TileCacheImageLayer8getLayerB5cxx11Ev
libosgEarth.so.0:_ZNK8osgEarth19TileCacheImageLayer9getFormatB5cxx11Ev
libosgEarth.so.0:_ZNK8osgEarth20ElevationLayerVector31populateHeightFieldAndNormalMapEPN3osg11HeightFieldEPNS_9NormalMapERKNS_7TileKeyEPKNS_7ProfileENS_19RasterInterpolationEPNS_16ProgressCallbackE
libosgEarth.so.0:_ZNK8osgEarth20FeatureDisplayLayout12getNumLevelsEv
libosgEarth.so.0:_ZNK8osgEarth20FeatureDisplayLayout8getLevelEj
libosgEarth.so.0:_ZNK8osgEarth20FeatureDisplayLayout9chooseLODERKNS_12FeatureLevelEd
libosgEarth.so.0:_ZNK8osgEarth20FeatureDisplayLayout9getConfigEv
libosgEarth.so.0:_ZNK8osgEarth20ImageToFeatureSource12getAttributeB5cxx11Ev
libosgEarth.so.0:_ZNK8osgEarth20ImageToFeatureSource13getImageLayerEv
libosgEarth.so.0:_ZNK8osgEarth20ImageToFeatureSource7Options9getConfigEv
libosgEarth.so.0:_ZNK8osgEarth20ImageToFeatureSource8getLevelEv
libosgEarth.so.0:_ZNK8osgEarth20ImageToFeatureSource9getConfigEv
libosgEarth.so.0:_ZNK8osgEarth20LandCoverLayerVector22populateLandCoverImageERN3osg7ref_ptrINS1_5ImageEEERKNS_7TileKeyEPNS_16ProgressCallbackE
libosgEarth.so.0:_ZNK8osgEarth21CesiumIon3DTilesLayer10getAssetIdB5cxx11Ev
libosgEarth.so.0:_ZNK8osgEarth21CesiumIon3DTilesLayer7Options9getConfigEv
libosgEarth.so.0:_ZNK8osgEarth21CesiumIon3DTilesLayer8getTokenB5cxx11Ev
libosgEarth.so.0:_ZNK8osgEarth21CesiumIon3DTilesLayer9getServerEv
libosgEarth.so.0:_ZNK8osgEarth21ConstGeometryIterator7hasMoreEv
libosgEarth.so.0:_ZNK8osgEarth21FeatureElevationLayer10intersectsERKNS_7TileKeyE
libosgEarth.so.0:_ZNK8osgEarth21FeatureElevationLayer31createHeightFieldImplementationERKNS_7TileKeyEPNS_16ProgressCallbackE
libosgEarth.so.0:_ZNK8osgEarth21FeatureElevationLayer7Options9getConfigEv
libosgEarth.so.0:_ZNK8osgEarth21FeatureElevationLayer9getConfigEv
libosgEarth.so.0:_ZNK8osgEarth21FilteredFeatureCursor7hasMoreEv
libosgEarth.so.0:_ZNK8osgEarth21GeometryFeatureCursor7hasMoreEv
libosgEarth.so.0:_ZNK8osgEarth21LandCoverValueMapping9getConfigEv
libosgEarth.so.0:_ZNK8osgEarth21MBTilesElevationLayer11getCompressEv
libosgEarth.so.0:_ZNK8osgEarth21MBTilesElevationLayer30writeHeightFieldImplementationERKNS_7TileKeyEPKN3osg11HeightFieldEPNS_16ProgressCallbackE
libosgEarth.so.0:_ZNK8osgEarth21MBTilesElevationLayer31createHeightFieldImplementationERKNS_7TileKeyEPNS_16ProgressCallbackE
libosgEarth.so.0:_ZNK8osgEarth21MBTilesElevationLayer6getURLEv
libosgEarth.so.0:_ZNK8osgEarth21MBTilesElevationLayer7Options9getConfigEv
libosgEarth.so.0:_ZNK8osgEarth21MBTilesElevationLayer9getFormatB5cxx11Ev
libosgEarth.so.0:_ZNK8osgEarth22ArcGISServerImageLayer25createImageImplementationERKNS_7TileKeyEPNS_16ProgressCallbackE
libosgEarth.so.0:_ZNK8osgEarth22ArcGISServerImageLayer6getURLEv
libosgEarth.so.0:_ZNK8osgEarth22ArcGISServerImageLayer7Options9getConfigEv
libosgEarth.so.0:_ZNK8osgEarth22ArcGISServerImageLayer8getTokenB5cxx11Ev
libosgEarth.so.0:_ZNK8osgEarth22ArcGISServerImageLayer9getFormatB5cxx11Ev
libosgEarth.so.0:_ZNK8osgEarth22ArcGISServerImageLayer9getLayersB5cxx11Ev
libosgEarth.so.0:_ZNK8osgEarth22FeatureSourceIndexNode10getAllFIDsERSt6vectorIxSaIxEE
libosgEarth.so.0:_ZNK8osgEarth22LandCoverCoverageLayer7Options9getConfigEv
libosgEarth.so.0:_ZNK8osgEarth22LandCoverCoverageLayer7getWarpEv
libosgEarth.so.0:_ZNK8osgEarth22TiledFeatureModelGraph12createCursorEPNS_13FeatureSourceERNS_4Util13FilterContextERKNS_5QueryEPNS_16ProgressCallbackE
libosgEarth.so.0:_ZNK8osgEarth22TiledFeatureModelLayer11getAdditiveEv
libosgEarth.so.0:_ZNK8osgEarth22TiledFeatureModelLayer13getStyleSheetEv
libosgEarth.so.0:_ZNK8osgEarth22TiledFeatureModelLayer16getAlphaBlendingEv
libosgEarth.so.0:_ZNK8osgEarth22TiledFeatureModelLayer16getFeatureSourceEv
libosgEarth.so.0:_ZNK8osgEarth22TiledFeatureModelLayer17getEnableLightingEv
libosgEarth.so.0:_ZNK8osgEarth22TiledFeatureModelLayer7Options9getConfigEv
libosgEarth.so.0:_ZNK8osgEarth22TiledFeatureModelLayer7getNodeEv
libosgEarth.so.0:_ZNK8osgEarth22TiledFeatureModelLayer9getConfigEv
libosgEarth.so.0:_ZNK8osgEarth22TiledFeatureModelLayer9getExtentEv
libosgEarth.so.0:_ZNK8osgEarth23CompositeElevationLayer31createHeightFieldImplementationERKNS_7TileKeyEPNS_16ProgressCallbackE
libosgEarth.so.0:_ZNK8osgEarth23CompositeElevationLayer7Options9getConfigEv
libosgEarth.so.0:_ZNK8osgEarth23CompositeElevationLayer7getNodeEv
libosgEarth.so.0:_ZNK8osgEarth23CompositeElevationLayer9getLayersEv
libosgEarth.so.0:_ZNK8osgEarth23CompositeLandCoverLayer25createImageImplementationERKNS_7TileKeyEPNS_16ProgressCallbackE
libosgEarth.so.0:_ZNK8osgEarth23CompositeLandCoverLayer7Options9getConfigEv
libosgEarth.so.0:_ZNK8osgEarth23CompositeLandCoverLayer7getNodeEv
libosgEarth.so.0:_ZNK8osgEarth23CompositeLandCoverLayer9getLayersEv
libosgEarth.so.0:_ZNK8osgEarth23GeometryCompilerOptions9getConfigEv
libosgEarth.so.0:_ZNK8osgEarth23TerrainTileModelFactory18createImageTextureEPN3osg5ImageEPKNS_10ImageLayerE
libosgEarth.so.0:_ZNK8osgEarth23TerrainTileModelFactory19createNormalTextureEPN3osg5ImageEb
libosgEarth.so.0:_ZNK8osgEarth23TerrainTileModelFactory21createCoverageTextureEPN3osg5ImageE
libosgEarth.so.0:_ZNK8osgEarth23TerrainTileModelFactory22createElevationTextureEPN3osg5ImageE
libosgEarth.so.0:_ZNK8osgEarth23TileCacheElevationLayer31createHeightFieldImplementationERKNS_7TileKeyEPNS_16ProgressCallbackE
libosgEarth.so.0:_ZNK8osgEarth23TileCacheElevationLayer6getURLEv
libosgEarth.so.0:_ZNK8osgEarth23TileCacheElevationLayer7Options9getConfigEv
libosgEarth.so.0:_ZNK8osgEarth23TileCacheElevationLayer8getLayerB5cxx11Ev
libosgEarth.so.0:_ZNK8osgEarth23TileCacheElevationLayer9getFormatB5cxx11Ev
libosgEarth.so.0:_ZNK8osgEarth24ElevationConstraintLayer25createImageImplementationERKNS_7TileKeyEPNS_16ProgressCallbackE
libosgEarth.so.0:_ZNK8osgEarth24ElevationConstraintLayer28createImageImplementationAuxERKNS_7TileKeyEPNS_16ProgressCallbackE
libosgEarth.so.0:_ZNK8osgEarth24ElevationConstraintLayer7Options9getConfigEv
libosgEarth.so.0:_ZNK8osgEarth24ScreenSpaceLayoutOptions9getConfigEv
libosgEarth.so.0:_ZNK8osgEarth25FeatureSourceIndexOptions9getConfigEv
libosgEarth.so.0:_ZNK8osgEarth27ArcGISTilePackageImageLayer25createImageImplementationERKNS_7TileKeyEPNS_16ProgressCallbackE
libosgEarth.so.0:_ZNK8osgEarth27ArcGISTilePackageImageLayer6getURLEv
libosgEarth.so.0:_ZNK8osgEarth27ArcGISTilePackageImageLayer7Options9getConfigEv
libosgEarth.so.0:_ZNK8osgEarth28TangentPlaneSpatialReference12preTransformERSt6vectorIN3osg5Vec3dESaIS3_EE
libosgEarth.so.0:_ZNK8osgEarth28TangentPlaneSpatialReference13postTransformERSt6vectorIN3osg5Vec3dESaIS3_EE
libosgEarth.so.0:_ZNK8osgEarth28TangentPlaneSpatialReference15_isEquivalentToEPKNS_16SpatialReferenceEb
libosgEarth.so.0:_ZNK8osgEarth29DatabasePagerProgressCallback12shouldCancelEv
libosgEarth.so.0:_ZNK8osgEarth30LightSourceGL3UniformGenerator16releaseGLObjectsEPN3osg5StateE
libosgEarth.so.0:_ZNK8osgEarth3MVT23MVTFeatureSourceOptions9getConfigEv
libosgEarth.so.0:_ZNK8osgEarth3Map10getLayerAtEj
libosgEarth.so.0:_ZNK8osgEarth3Map10getProfileEv
libosgEarth.so.0:_ZNK8osgEarth3Map11getWorldSRSEv
libosgEarth.so.0:_ZNK8osgEarth3Map12getNumLayersEv
libosgEarth.so.0:_ZNK8osgEarth3Map13getLayerByUIDEi
libosgEarth.so.0:_ZNK8osgEarth3Map14addMapCallbackEPNS_11MapCallbackE
libosgEarth.so.0:_ZNK8osgEarth3Map14getCachePolicyEv
libosgEarth.so.0:_ZNK8osgEarth3Map14getLayerByNameERKNSt7__cxx1112basic_stringIcSt11char_traitsIcESaIcEEE
libosgEarth.so.0:_ZNK8osgEarth3Map15getAttributionsERSt3setINSt7__cxx1112basic_stringIcSt11char_traitsIcESaIcEEESt4lessIS7_ESaIS7_EE
libosgEarth.so.0:_ZNK8osgEarth3Map15getIndexOfLayerEPKNS_5LayerE
libosgEarth.so.0:_ZNK8osgEarth3Map16getElevationPoolEv
libosgEarth.so.0:_ZNK8osgEarth3Map17removeMapCallbackEPNS_11MapCallbackE
libosgEarth.so.0:_ZNK8osgEarth3Map20getDataModelRevisionEv
libosgEarth.so.0:_ZNK8osgEarth3Map25getElevationInterpolationEv
libosgEarth.so.0:_ZNK8osgEarth3Map6getSRSEv
libosgEarth.so.0:_ZNK8osgEarth3Map6isFastERKNS_7TileKeyERKSt6vectorIN3osg7ref_ptrINS_5LayerEEESaIS8_EE
libosgEarth.so.0:_ZNK8osgEarth3Map7Options9getConfigEv
libosgEarth.so.0:_ZNK8osgEarth3Map8getCacheEv
libosgEarth.so.0:_ZNK8osgEarth3Map9getLayersERSt6vectorIN3osg7ref_ptrINS_5LayerEEESaIS5_EE
libosgEarth.so.0:_ZNK8osgEarth3OGR16OGRFeatureCursor7hasMoreEv
libosgEarth.so.0:_ZNK8osgEarth3TFS23TFSFeatureSourceOptions9getConfigEv
libosgEarth.so.0:_ZNK8osgEarth3TMS6Driver4readERKNS_3URIERKNS_7TileKeyEbPNS_16ProgressCallbackEPKN5osgDB7OptionsE
libosgEarth.so.0:_ZNK8osgEarth3TMS6Driver5writeERKNS_3URIERKNS_7TileKeyEPKN3osg5ImageEbPNS_16ProgressCallbackEPKN5osgDB7OptionsE
libosgEarth.so.0:_ZNK8osgEarth3TMS7Options7writeToERNS_6ConfigE
libosgEarth.so.0:_ZNK8osgEarth3TMS7TileMap10getExtentsERdS2_S2_S2_
libosgEarth.so.0:_ZNK8osgEarth3TMS7TileMap13createProfileEv
libosgEarth.so.0:_ZNK8osgEarth3URI10readObjectEPKN5osgDB7OptionsEPNS_16ProgressCallbackE
libosgEarth.so.0:_ZNK8osgEarth3URI10readStringEPKN5osgDB7OptionsEPNS_16ProgressCallbackE
libosgEarth.so.0:_ZNK8osgEarth3URI13readNodeAsyncEPKN5osgDB7OptionsEPNS_16ProgressCallbackE
libosgEarth.so.0:_ZNK8osgEarth3URI6appendERKNSt7__cxx1112basic_stringIcSt11char_traitsIcESaIcEEE
libosgEarth.so.0:_ZNK8osgEarth3URI8isRemoteEv
libosgEarth.so.0:_ZNK8osgEarth3URI8readNodeEPKN5osgDB7OptionsEPNS_16ProgressCallbackE
libosgEarth.so.0:_ZNK8osgEarth3URI9getConfigEv
libosgEarth.so.0:_ZNK8osgEarth3URI9readImageEPKN5osgDB7OptionsEPNS_16ProgressCallbackE
libosgEarth.so.0:_ZNK8osgEarth3WFS23WFSFeatureSourceOptions9getConfigEv
libosgEarth.so.0:_ZNK8osgEarth3WMS20WMSImageLayerOptions9getConfigEv
libosgEarth.so.0:_ZNK8osgEarth3WMS6Driver11isSequencedEv
libosgEarth.so.0:_ZNK8osgEarth3WMS6Driver20getSequenceFrameInfoEv
libosgEarth.so.0:_ZNK8osgEarth3WMS6Driver28getCurrentSequenceFrameIndexEPKN3osg10FrameStampEd
libosgEarth.so.0:_ZNK8osgEarth3WMS6Driver7optionsEv
libosgEarth.so.0:_ZNK8osgEarth3WMS6Driver9createURIB5cxx11ERKNS_7TileKeyE
libosgEarth.so.0:_ZNK8osgEarth3XYZ20XYZImageLayerOptions9getConfigEv
libosgEarth.so.0:_ZNK8osgEarth3XYZ24XYZElevationLayerOptions9getConfigEv
libosgEarth.so.0:_ZNK8osgEarth3XYZ6Driver4readERKNS_3URIERKNS_7TileKeyEbPNS_16ProgressCallbackEPKN5osgDB7OptionsE
libosgEarth.so.0:_ZNK8osgEarth4Fill9getConfigEv
libosgEarth.so.0:_ZNK8osgEarth4GDAL7Options7writeToERNS_6ConfigE
libosgEarth.so.0:_ZNK8osgEarth4Ring10contains2DEdd
libosgEarth.so.0:_ZNK8osgEarth4Ring15getSignedArea2DEv
libosgEarth.so.0:_ZNK8osgEarth4Ring6isOpenEv
libosgEarth.so.0:_ZNK8osgEarth4Ring7cloneAsERKNS_8Geometry4TypeE
libosgEarth.so.0:_ZNK8osgEarth4Ring9getLengthEv
libosgEarth.so.0:_ZNK8osgEarth4Util10FadeEffect11getMaxRangeEv
libosgEarth.so.0:_ZNK8osgEarth4Util10FadeEffect15getFadeDurationEv
libosgEarth.so.0:_ZNK8osgEarth4Util10FadeEffect22getAttenuationDistanceEv
libosgEarth.so.0:_ZNK8osgEarth4Util10GeoLocator11unitToWorldERKN3osg5Vec3dERS3_
libosgEarth.so.0:_ZNK8osgEarth4Util10GeoLocator11worldToUnitERKN3osg5Vec3dERS3_
libosgEarth.so.0:_ZNK8osgEarth4Util10GeoLocator9mapToUnitERKN3osg5Vec3dERS3_
libosgEarth.so.0:_ZNK8osgEarth4Util10GeoLocator9unitToMapERKN3osg5Vec3dERS3_
libosgEarth.so.0:_ZNK8osgEarth4Util10HTTPClient10initializeEv
libosgEarth.so.0:_ZNK8osgEarth4Util10HTTPClient11readOptionsEPKN5osgDB7OptionsERNSt7__cxx1112basic_stringIcSt11char_traitsIcESaIcEEESC_
libosgEarth.so.0:_ZNK8osgEarth4Util10HTTPClient5doGetERKNS0_11HTTPRequestEPKN5osgDB7OptionsEPNS_16ProgressCallbackE
libosgEarth.so.0:_ZNK8osgEarth4Util10ImageUtils11PixelReaderclERN3osg5Vec4fEddii
libosgEarth.so.0:_ZNK8osgEarth4Util10ImageUtils11PixelReaderclERN3osg5Vec4fEffii
libosgEarth.so.0:_ZNK8osgEarth4Util10ImageUtils11PixelReaderclEddii
libosgEarth.so.0:_ZNK8osgEarth4Util10ImageUtils11PixelReaderclEffii
libosgEarth.so.0:_ZNK8osgEarth4Util10ImageUtils11PixelWriter4dataEiiii
libosgEarth.so.0:_ZNK8osgEarth4Util10PolyShader16releaseGLObjectsEPN3osg5StateE
libosgEarth.so.0:_ZNK8osgEarth4Util10PolyShader9getShaderEj
libosgEarth.so.0:_ZNK8osgEarth4Util10SkinSymbol9getConfigEv
libosgEarth.so.0:_ZNK8osgEarth4Util10ViewFitter15createViewpointERKSt6vectorINS_8GeoPointESaIS3_EERNS_9ViewpointE
libosgEarth.so.0:_ZNK8osgEarth4Util10XmlElement11findElementERKNSt7__cxx1112basic_stringIcSt11char_traitsIcESaIcEEE
libosgEarth.so.0:_ZNK8osgEarth4Util10XmlElement11getChildrenEv
libosgEarth.so.0:_ZNK8osgEarth4Util10XmlElement13getSubElementERKNSt7__cxx1112basic_stringIcSt11char_traitsIcESaIcEEE
libosgEarth.so.0:_ZNK8osgEarth4Util10XmlElement14getSubElementsERKNSt7__cxx1112basic_stringIcSt11char_traitsIcESaIcEEE
libosgEarth.so.0:_ZNK8osgEarth4Util10XmlElement17getSubElementTextERKNSt7__cxx1112basic_stringIcSt11char_traitsIcESaIcEEE
libosgEarth.so.0:_ZNK8osgEarth4Util10XmlElement7getAttrERKNSt7__cxx1112basic_stringIcSt11char_traitsIcESaIcEEE
libosgEarth.so.0:_ZNK8osgEarth4Util10XmlElement7getNameB5cxx11Ev
libosgEarth.so.0:_ZNK8osgEarth4Util10XmlElement7getTextB5cxx11Ev
libosgEarth.so.0:_ZNK8osgEarth4Util10XmlElement8getAttrsB5cxx11Ev
libosgEarth.so.0:_ZNK8osgEarth4Util10XmlElement9getConfigERKNSt7__cxx1112basic_stringIcSt11char_traitsIcESaIcEEE
libosgEarth.so.0:_ZNK8osgEarth4Util11CacheDriver15getCacheOptionsEPKN5osgDB7OptionsE
libosgEarth.so.0:_ZNK8osgEarth4Util11GLSLChunker4dumpERKNSt7__cxx1112basic_stringIcSt11char_traitsIcESaIcEEERKSt6vectorINS1_5ChunkESaISB_EE
libosgEarth.so.0:_ZNK8osgEarth4Util11GLSLChunker4readERKNSt7__cxx1112basic_stringIcSt11char_traitsIcESaIcEEERSt6vectorINS1_5ChunkESaISB_EE
libosgEarth.so.0:_ZNK8osgEarth4Util11GLSLChunker5writeERKSt6vectorINS1_5ChunkESaIS3_EERNSt7__cxx1112basic_stringIcSt11char_traitsIcESaIcEEE
libosgEarth.so.0:_ZNK8osgEarth4Util11GLSLChunker7replaceERSt6vectorINS1_5ChunkESaIS3_EERKNSt7__cxx1112basic_stringIcSt11char_traitsIcESaIcEEESE_
libosgEarth.so.0:_ZNK8osgEarth4Util11GLSLChunker9chunkLineERKNSt7__cxx1112basic_stringIcSt11char_traitsIcESaIcEEE
libosgEarth.so.0:_ZNK8osgEarth4Util11HTTPRequest10getHeadersB5cxx11Ev
libosgEarth.so.0:_ZNK8osgEarth4Util11HTTPRequest13getParametersB5cxx11Ev
libosgEarth.so.0:_ZNK8osgEarth4Util11HTTPRequest6getURLB5cxx11Ev
libosgEarth.so.0:_ZNK8osgEarth4Util11ProgramRepo16releaseGLObjectsEPN3osg5StateE
libosgEarth.so.0:_ZNK8osgEarth4Util11ProgramRepo28isProgramBinaryCachingActiveEv
libosgEarth.so.0:_ZNK8osgEarth4Util11SimplePager10getProfileEv
libosgEarth.so.0:_ZNK8osgEarth4Util11SimplePager20getEnableCancalationEv
libosgEarth.so.0:_ZNK8osgEarth4Util11SimplePager9getBoundsERKNS_7TileKeyE
libosgEarth.so.0:_ZNK8osgEarth4Util11TaskRequest11wasCanceledEv
libosgEarth.so.0:_ZNK8osgEarth4Util11TaskService13getNumThreadsEv
libosgEarth.so.0:_ZNK8osgEarth4Util11TaskService14getNumRequestsEv
libosgEarth.so.0:_ZNK8osgEarth4Util11TaskService8getStampEv
libosgEarth.so.0:_ZNK8osgEarth4Util11TileHandler16getProcessStringB5cxx11Ev
libosgEarth.so.0:_ZNK8osgEarth4Util11TileHandler7hasDataERKNS_7TileKeyE
libosgEarth.so.0:_ZNK8osgEarth4Util11XmlDocument5storeERSo
libosgEarth.so.0:_ZNK8osgEarth4Util11XmlDocument9getConfigEv
libosgEarth.so.0:_ZNK8osgEarth4Util12ArrayUniform10getElementEjRN3osg5Vec3fE
libosgEarth.so.0:_ZNK8osgEarth4Util12ArrayUniform10getElementEjRN3osg7MatrixdE
libosgEarth.so.0:_ZNK8osgEarth4Util12ArrayUniform10getElementEjRb
libosgEarth.so.0:_ZNK8osgEarth4Util12ArrayUniform10getElementEjRf
libosgEarth.so.0:_ZNK8osgEarth4Util12ArrayUniform10getElementEjRi
libosgEarth.so.0:_ZNK8osgEarth4Util12ArrayUniform10getElementEjRj
libosgEarth.so.0:_ZNK8osgEarth4Util12BufferFilter9getConfigEv
libosgEarth.so.0:_ZNK8osgEarth4Util12CIStringCompclERKNSt7__cxx1112basic_stringIcSt11char_traitsIcESaIcEEES9_
libosgEarth.so.0:_ZNK8osgEarth4Util12CullDebugger13dumpRenderBinEPN7osgUtil9RenderBinE
libosgEarth.so.0:_ZNK8osgEarth4Util12HTTPResponse11getMimeTypeB5cxx11Ev
libosgEarth.so.0:_ZNK8osgEarth4Util12HTTPResponse11getNumPartsEv
libosgEarth.so.0:_ZNK8osgEarth4Util12HTTPResponse11getPartSizeEj
libosgEarth.so.0:_ZNK8osgEarth4Util12HTTPResponse13getPartHeaderEjRKNSt7__cxx1112basic_stringIcSt11char_traitsIcESaIcEEE
libosgEarth.so.0:_ZNK8osgEarth4Util12HTTPResponse13getPartStreamEj
libosgEarth.so.0:_ZNK8osgEarth4Util12HTTPResponse15getCodeCategoryEv
libosgEarth.so.0:_ZNK8osgEarth4Util12HTTPResponse15getPartAsStringB5cxx11Ej
libosgEarth.so.0:_ZNK8osgEarth4Util12HTTPResponse18getHeadersAsConfigEv
libosgEarth.so.0:_ZNK8osgEarth4Util12HTTPResponse4isOKEv
libosgEarth.so.0:_ZNK8osgEarth4Util12HTTPResponse7getCodeEv
libosgEarth.so.0:_ZNK8osgEarth4Util12IconResource17createNodeFromURIERKNS_3URIEPKN5osgDB7OptionsE
libosgEarth.so.0:_ZNK8osgEarth4Util12IconResource9getConfigEv
libosgEarth.so.0:_ZNK8osgEarth4Util12ShadowCaster16releaseGLObjectsEPN3osg5StateE
libosgEarth.so.0:_ZNK8osgEarth4Util12SimplexNoise13getTiledValueEdd
libosgEarth.so.0:_ZNK8osgEarth4Util12SimplexNoise19createSeamlessImageEj
libosgEarth.so.0:_ZNK8osgEarth4Util12SimplexNoise27getTiledValueWithTurbulenceEddd
libosgEarth.so.0:_ZNK8osgEarth4Util12SimplexNoise5NoiseEdd
libosgEarth.so.0:_ZNK8osgEarth4Util12SimplexNoise5NoiseEddd
libosgEarth.so.0:_ZNK8osgEarth4Util12SimplexNoise5NoiseEdddd
libosgEarth.so.0:_ZNK8osgEarth4Util12SimplexNoise8getValueEdd
libosgEarth.so.0:_ZNK8osgEarth4Util12SimplexNoise8getValueEddd
libosgEarth.so.0:_ZNK8osgEarth4Util12SimplexNoise8getValueEdddd
libosgEarth.so.0:_ZNK8osgEarth4Util12SkinResource11createImageEPKN5osgDB7OptionsE
libosgEarth.so.0:_ZNK8osgEarth4Util12SkinResource11getUniqueIDB5cxx11Ev
libosgEarth.so.0:_ZNK8osgEarth4Util12SkinResource13createTextureEPKN5osgDB7OptionsE
libosgEarth.so.0:_ZNK8osgEarth4Util12SkinResource13createTextureEPN3osg5ImageE
libosgEarth.so.0:_ZNK8osgEarth4Util12SkinResource14createStateSetEPKN5osgDB7OptionsE
libosgEarth.so.0:_ZNK8osgEarth4Util12SkinResource14createStateSetEPN3osg5ImageE
libosgEarth.so.0:_ZNK8osgEarth4Util12SkinResource9getConfigEv
libosgEarth.so.0:_ZNK8osgEarth4Util12UTMGraticule11getGZDStyleEv
libosgEarth.so.0:_ZNK8osgEarth4Util12UTMGraticule12getTextScaleEv
libosgEarth.so.0:_ZNK8osgEarth4Util12UTMGraticule7Options9getConfigEv
libosgEarth.so.0:_ZNK8osgEarth4Util12UTMGraticule7getNodeEv
libosgEarth.so.0:_ZNK8osgEarth4Util13CacheSettings14isCacheEnabledEv
libosgEarth.so.0:_ZNK8osgEarth4Util13CacheSettings8toStringB5cxx11Ev
libosgEarth.so.0:_ZNK8osgEarth4Util13FilterContext10getHistoryB5cxx11Ev
libosgEarth.so.0:_ZNK8osgEarth4Util13FilterContext10getSessionEv
libosgEarth.so.0:_ZNK8osgEarth4Util13FilterContext12getDBOptionsEv
libosgEarth.so.0:_ZNK8osgEarth4Util13FilterContext12getOutputSRSEv
libosgEarth.so.0:_ZNK8osgEarth4Util13FilterContext15isGeoreferencedEv
libosgEarth.so.0:_ZNK8osgEarth4Util13FilterContext5toMapERKN3osg5Vec3dE
libosgEarth.so.0:_ZNK8osgEarth4Util13FilterContext7fromMapERKN3osg5Vec3dE
libosgEarth.so.0:_ZNK8osgEarth4Util13FilterContext7toLocalEPNS_8GeometryE
libosgEarth.so.0:_ZNK8osgEarth4Util13FilterContext7toWorldEPNS_8GeometryE
libosgEarth.so.0:_ZNK8osgEarth4Util13FilterContext8toStringB5cxx11Ev
libosgEarth.so.0:_ZNK8osgEarth4Util13GARSGraticule7Options9getConfigEv
libosgEarth.so.0:_ZNK8osgEarth4Util13GARSGraticule7getNodeEv
libosgEarth.so.0:_ZNK8osgEarth4Util13GARSGraticule8getStyleEv
libosgEarth.so.0:_ZNK8osgEarth4Util13MGRSFormatter6formatB5cxx11ERKNS_8GeoPointE
libosgEarth.so.0:_ZNK8osgEarth4Util13MGRSFormatter9transformERKNS_8GeoPointERNS0_9MGRSCoordE
libosgEarth.so.0:_ZNK8osgEarth4Util13MGRSGraticule13getStyleSheetEv
libosgEarth.so.0:_ZNK8osgEarth4Util13MGRSGraticule14getSQIDDataURLEv
libosgEarth.so.0:_ZNK8osgEarth4Util13MGRSGraticule15loadGZDFeaturesEPKNS_16SpatialReferenceERNSt7__cxx114listIN3osg7ref_ptrINS_7FeatureEEESaISA_EEE
libosgEarth.so.0:_ZNK8osgEarth4Util13MGRSGraticule19getUseDefaultStylesEv
libosgEarth.so.0:_ZNK8osgEarth4Util13MGRSGraticule7Options9getConfigEv
libosgEarth.so.0:_ZNK8osgEarth4Util13MGRSGraticule7getNodeEv
libosgEarth.so.0:_ZNK8osgEarth4Util13MGRSGraticule9getConfigEv
libosgEarth.so.0:_ZNK8osgEarth4Util13MapNodeHelper13configureViewEPN9osgViewer4ViewE
libosgEarth.so.0:_ZNK8osgEarth4Util13MapNodeHelper4loadERN3osg14ArgumentParserEPN9osgViewer10ViewerBaseEPNS0_8Controls9ContainerEPKN5osgDB7OptionsE
libosgEarth.so.0:_ZNK8osgEarth4Util13MapNodeHelper5parseEPNS_7MapNodeERN3osg14ArgumentParserEPN9osgViewer4ViewEPNS4_5GroupEPNS0_8Controls12LabelControlE
libosgEarth.so.0:_ZNK8osgEarth4Util13MapNodeHelper5parseEPNS_7MapNodeERN3osg14ArgumentParserEPN9osgViewer4ViewEPNS4_5GroupEPNS0_8Controls9ContainerE
libosgEarth.so.0:_ZNK8osgEarth4Util13MapNodeHelper5usageB5cxx11Ev
libosgEarth.so.0:_ZNK8osgEarth4Util13ModelResource17createNodeFromURIERKNS_3URIEPKN5osgDB7OptionsE
libosgEarth.so.0:_ZNK8osgEarth4Util13ModelResource9getConfigEv
libosgEarth.so.0:_ZNK8osgEarth4Util13ShaderFactory11createMainsERKSt3mapINS_10ShaderComp16FunctionLocationESt8multimapIfNS3_8FunctionESt4lessIfESaISt4pairIKfS6_EEES7_IS4_ESaIS9_IKS4_SD_EEERKNS0_10vector_mapIjNS_14VirtualProgram11ShaderEntryEEERKNS0_10vector_setINSt7__cxx1112basic_stringIcSt11char_traitsIcESaIcEEEEERSt6vectorIN3osg7ref_ptrINS12_6ShaderEEESaIS15_EE
libosgEarth.so.0:_ZNK8osgEarth4Util13ShaderFactory18createRangeUniformEv
libosgEarth.so.0:_ZNK8osgEarth4Util13ShaderFactory19getRangeUniformNameB5cxx11Ev
libosgEarth.so.0:_ZNK8osgEarth4Util13ShaderFactory36createColorFilterChainFragmentShaderERKNSt7__cxx1112basic_stringIcSt11char_traitsIcESaIcEEERKSt6vectorIN3osg7ref_ptrINS_11ColorFilterEEESaISE_EE
libosgEarth.so.0:_ZNK8osgEarth4Util13ShaderOptions9getConfigEv
libosgEarth.so.0:_ZNK8osgEarth4Util13ShaderPackage4loadEPNS_14VirtualProgramERKNSt7__cxx1112basic_stringIcSt11char_traitsIcESaIcEEEPKN5osgDB7OptionsE
libosgEarth.so.0:_ZNK8osgEarth4Util13ShaderPackage6unloadEPNS_14VirtualProgramERKNSt7__cxx1112basic_stringIcSt11char_traitsIcESaIcEEEPKN5osgDB7OptionsE
libosgEarth.so.0:_ZNK8osgEarth4Util13ShaderPackage7loadAllEPNS_14VirtualProgramEPKN5osgDB7OptionsE
libosgEarth.so.0:_ZNK8osgEarth4Util13ShaderPackage9unloadAllEPNS_14VirtualProgramEPKN5osgDB7OptionsE
libosgEarth.so.0:_ZNK8osgEarth4Util13TopologyGraph14createBoundaryEjRSt6vectorISt23_Rb_tree_const_iteratorINS1_6VertexEESaIS5_EE
libosgEarth.so.0:_ZNK8osgEarth4Util13TopologyGraph16getNumBoundariesEv
libosgEarth.so.0:_ZNK8osgEarth4Util14CacheEstimator11getNumTilesEv
libosgEarth.so.0:_ZNK8osgEarth4Util14CacheEstimator11getSizeInMBEv
libosgEarth.so.0:_ZNK8osgEarth4Util14CacheEstimator21getTotalTimeInSecondsEv
libosgEarth.so.0:_ZNK8osgEarth4Util14SymbolRegistry8parseSLDERKNS_6ConfigERNS_5StyleE
libosgEarth.so.0:_ZNK8osgEarth4Util14TextSymbolizer11getEncodingEv
libosgEarth.so.0:_ZNK8osgEarth4Util14TextSymbolizer5applyEPN7osgText4TextE
libosgEarth.so.0:_ZNK8osgEarth4Util14TextSymbolizer5applyEPN7osgText4TextEPNS_7FeatureEPKNS0_13FilterContextEPKN3osg15BoundingBoxImplINSA_5Vec3fEEE
libosgEarth.so.0:_ZNK8osgEarth4Util15DebugImageLayer25createImageImplementationERKNS_7TileKeyEPNS_16ProgressCallbackE
libosgEarth.so.0:_ZNK8osgEarth4Util15DebugImageLayer7Options9getConfigEv
libosgEarth.so.0:_ZNK8osgEarth4Util15ResourceLibrary11getInstanceERKNSt7__cxx1112basic_stringIcSt11char_traitsIcESaIcEEEPKN5osgDB7OptionsE
libosgEarth.so.0:_ZNK8osgEarth4Util15ResourceLibrary7getSkinEPKNS0_10SkinSymbolEjPKN5osgDB7OptionsE
libosgEarth.so.0:_ZNK8osgEarth4Util15ResourceLibrary7getSkinERKNSt7__cxx1112basic_stringIcSt11char_traitsIcESaIcEEEPKN5osgDB7OptionsE
libosgEarth.so.0:_ZNK8osgEarth4Util15ResourceLibrary7matchesEPKNS0_10SkinSymbolEPNS0_12SkinResourceE
libosgEarth.so.0:_ZNK8osgEarth4Util15ResourceLibrary8getModelEPKNS_11ModelSymbolEPKN5osgDB7OptionsE
libosgEarth.so.0:_ZNK8osgEarth4Util15ResourceLibrary8getSkinsEPKNS0_10SkinSymbolERSt6vectorIN3osg7ref_ptrINS0_12SkinResourceEEESaIS9_EEPKN5osgDB7OptionsE
libosgEarth.so.0:_ZNK8osgEarth4Util15ResourceLibrary8getSkinsERSt6vectorIN3osg7ref_ptrINS0_12SkinResourceEEESaIS6_EEPKN5osgDB7OptionsE
libosgEarth.so.0:_ZNK8osgEarth4Util15ResourceLibrary9getConfigEv
libosgEarth.so.0:_ZNK8osgEarth4Util15ResourceLibrary9getModelsEPKNS_11ModelSymbolERSt6vectorIN3osg7ref_ptrINS0_13ModelResourceEEESaIS9_EEPKN5osgDB7OptionsE
libosgEarth.so.0:_ZNK8osgEarth4Util15ResourceLibrary9getModelsERSt6vectorIN3osg7ref_ptrINS0_13ModelResourceEEESaIS6_EEPKN5osgDB7OptionsE
libosgEarth.so.0:_ZNK8osgEarth4Util15StringTokenizer8tokenizeERKNSt7__cxx1112basic_stringIcSt11char_traitsIcESaIcEEERSt6vectorIS7_SaIS7_EE
libosgEarth.so.0:_ZNK8osgEarth4Util16DrapingTechnique16getAttachStencilEv
libosgEarth.so.0:_ZNK8osgEarth4Util16DrapingTechnique18getResolutionRatioEv
libosgEarth.so.0:_ZNK8osgEarth4Util16DrapingTechnique7hasDataERNS0_16OverlayDecorator13TechRTTParamsE
libosgEarth.so.0:_ZNK8osgEarth4Util16DrapingTechnique8getBoundERNS0_16OverlayDecorator13TechRTTParamsE
libosgEarth.so.0:_ZNK8osgEarth4Util16EarthManipulator11getRotationERKN3osg5Vec3dE
libosgEarth.so.0:_ZNK8osgEarth4Util16EarthManipulator11getSettingsEv
libosgEarth.so.0:_ZNK8osgEarth4Util16EarthManipulator11isTetheringEv
libosgEarth.so.0:_ZNK8osgEarth4Util16EarthManipulator12getViewpointEv
libosgEarth.so.0:_ZNK8osgEarth4Util16EarthManipulator12isMouseClickEPKN5osgGA15GUIEventAdapterE
libosgEarth.so.0:_ZNK8osgEarth4Util16EarthManipulator13getQuaternionEdd
libosgEarth.so.0:_ZNK8osgEarth4Util16EarthManipulator13screenToWorldEffPN3osg4ViewERNS2_5Vec3dE
libosgEarth.so.0:_ZNK8osgEarth4Util16EarthManipulator14dumpActionInfoERKNS1_6ActionEN3osg14NotifySeverityE
libosgEarth.so.0:_ZNK8osgEarth4Util16EarthManipulator14getEulerAnglesERKN3osg4QuatEPdS6_
libosgEarth.so.0:_ZNK8osgEarth4Util16EarthManipulator14getWorldMatrixEv
libosgEarth.so.0:_ZNK8osgEarth4Util16EarthManipulator16getInverseMatrixEv
libosgEarth.so.0:_ZNK8osgEarth4Util16EarthManipulator18isSettingViewpointEv
libosgEarth.so.0:_ZNK8osgEarth4Util16EarthManipulator19intersectLookVectorERN3osg5Vec3dES4_S4_
libosgEarth.so.0:_ZNK8osgEarth4Util16EarthManipulator21computeCenterRotationERKN3osg5Vec3dE
libosgEarth.so.0:_ZNK8osgEarth4Util16EarthManipulator21createLocalCoordFrameERKN3osg5Vec3dERNS2_7MatrixdE
libosgEarth.so.0:_ZNK8osgEarth4Util16EarthManipulator21getWorldInverseMatrixEv
libosgEarth.so.0:_ZNK8osgEarth4Util16EarthManipulator23getCompositeEulerAnglesEPdS2_
libosgEarth.so.0:_ZNK8osgEarth4Util16EarthManipulator6Action12getIntOptionEii
libosgEarth.so.0:_ZNK8osgEarth4Util16EarthManipulator6Action13getBoolOptionEib
libosgEarth.so.0:_ZNK8osgEarth4Util16EarthManipulator6Action15getDoubleOptionEid
libosgEarth.so.0:_ZNK8osgEarth4Util16EarthManipulator8Settings10expandSpecERKNS1_9InputSpecERNSt7__cxx114listIS3_SaIS3_EEE
libosgEarth.so.0:_ZNK8osgEarth4Util16EarthManipulator8Settings9getActionEiii
libosgEarth.so.0:_ZNK8osgEarth4Util16EarthManipulator8getUsageERN3osg16ApplicationUsageE
libosgEarth.so.0:_ZNK8osgEarth4Util16EarthManipulator9getMatrixEv
libosgEarth.so.0:_ZNK8osgEarth4Util16EarthManipulator9intersectERKN3osg5Vec3dES5_RS3_S6_
libosgEarth.so.0:_ZNK8osgEarth4Util16InstanceResource10createNodeEPKN5osgDB7OptionsE
libosgEarth.so.0:_ZNK8osgEarth4Util16InstanceResource9getConfigEv
libosgEarth.so.0:_ZNK8osgEarth4Util16LatLongFormatter6formatB5cxx11ERKNS_5AngleEbiRKNS1_13AngularFormatE
libosgEarth.so.0:_ZNK8osgEarth4Util16LatLongFormatter6formatB5cxx11ERKNS_8GeoPointE
libosgEarth.so.0:_ZNK8osgEarth4Util16OverlayDecorator16releaseGLObjectsEPN3osg5StateE
libosgEarth.so.0:_ZNK8osgEarth4Util16OverlayDecorator21getMaxHorizonDistanceEv
libosgEarth.so.0:_ZNK8osgEarth4Util16ProxyCullVisitor11getEyePointEv
libosgEarth.so.0:_ZNK8osgEarth4Util16ProxyCullVisitor12getViewPointEv
libosgEarth.so.0:_ZNK8osgEarth4Util16ProxyCullVisitor21getDistanceToEyePointERKN3osg5Vec3fEb
libosgEarth.so.0:_ZNK8osgEarth4Util16ProxyCullVisitor22getDistanceToViewPointERKN3osg5Vec3fEb
libosgEarth.so.0:_ZNK8osgEarth4Util16ProxyCullVisitor23getDistanceFromEyePointERKN3osg5Vec3fEb
libosgEarth.so.0:_ZNK8osgEarth4Util16ResourceReleaser16releaseGLObjectsEPN3osg5StateE
libosgEarth.so.0:_ZNK8osgEarth4Util16ResourceReleaser18drawImplementationERN3osg10RenderInfoE
libosgEarth.so.0:_ZNK8osgEarth4Util16TaskRequestQueue14getNumRequestsEv
libosgEarth.so.0:_ZNK8osgEarth4Util16TaskRequestQueue6isFullEv
libosgEarth.so.0:_ZNK8osgEarth4Util16TaskRequestQueue7isEmptyEv
libosgEarth.so.0:_ZNK8osgEarth4Util17BillboardResource17createNodeFromURIERKNS_3URIEPKN5osgDB7OptionsE
libosgEarth.so.0:_ZNK8osgEarth4Util17BillboardResource9getConfigEv
libosgEarth.so.0:_ZNK8osgEarth4Util17ClampingTechnique7hasDataERNS0_16OverlayDecorator13TechRTTParamsE
libosgEarth.so.0:_ZNK8osgEarth4Util17ClampingTechnique8getBoundERNS0_16OverlayDecorator13TechRTTParamsE
libosgEarth.so.0:_ZNK8osgEarth4Util17ConvertTypeFilter9getConfigEv
libosgEarth.so.0:_ZNK8osgEarth4Util17FeatureModelGraph10getSessionEv
libosgEarth.so.0:_ZNK8osgEarth4Util17FeatureModelGraph12createCursorEPNS_13FeatureSourceERNS0_13FilterContextERKNS_5QueryEPNS_16ProgressCallbackE
libosgEarth.so.0:_ZNK8osgEarth4Util17FeatureModelGraph21getBoundInWorldCoordsERKNS_9GeoExtentEPKNS_7ProfileE
libosgEarth.so.0:_ZNK8osgEarth4Util17GeodeticGraticule10CameraData16releaseGLObjectsEPN3osg5StateE
libosgEarth.so.0:_ZNK8osgEarth4Util17GeodeticGraticule12getLineWidthEv
libosgEarth.so.0:_ZNK8osgEarth4Util17GeodeticGraticule13getCameraDataEPN3osg6CameraE
libosgEarth.so.0:_ZNK8osgEarth4Util17GeodeticGraticule13getViewExtentEPN7osgUtil11CullVisitorE
libosgEarth.so.0:_ZNK8osgEarth4Util17GeodeticGraticule15getNumGridLinesEv
libosgEarth.so.0:_ZNK8osgEarth4Util17GeodeticGraticule16releaseGLObjectsEPN3osg5StateE
libosgEarth.so.0:_ZNK8osgEarth4Util17GeodeticGraticule19getGridLinesVisibleEv
libosgEarth.so.0:_ZNK8osgEarth4Util17GeodeticGraticule20getEdgeLabelsVisibleEv
libosgEarth.so.0:_ZNK8osgEarth4Util17GeodeticGraticule20getGridLabelsVisibleEv
libosgEarth.so.0:_ZNK8osgEarth4Util17GeodeticGraticule7Options9getConfigEv
libosgEarth.so.0:_ZNK8osgEarth4Util17GeodeticGraticule7getNodeEv
libosgEarth.so.0:_ZNK8osgEarth4Util17GeodeticGraticule8getColorEv
libosgEarth.so.0:_ZNK8osgEarth4Util18AnnotationRegistry6createEPNS_7MapNodeERKNS_6ConfigEPKN5osgDB7OptionsERPN3osg5GroupE
libosgEarth.so.0:_ZNK8osgEarth4Util18AnnotationRegistry9createOneEPNS_7MapNodeERKNS_6ConfigEPKN5osgDB7OptionsE
libosgEarth.so.0:_ZNK8osgEarth4Util18AnnotationRegistry9getConfigEPN3osg4NodeE
libosgEarth.so.0:_ZNK8osgEarth4Util18ScriptEngineDriver22getScriptEngineOptionsEPKN5osgDB7OptionsE
libosgEarth.so.0:_ZNK8osgEarth4Util18TaskServiceManager3getEi
libosgEarth.so.0:_ZNK8osgEarth4Util18TessellateOperator4pushERNSt7__cxx114listIN3osg7ref_ptrINS_7FeatureEEESaIS7_EEERNS0_13FilterContextE
libosgEarth.so.0:_ZNK8osgEarth4Util18TessellateOperatorclEPNS_7FeatureERNS0_13FilterContextE
libosgEarth.so.0:_ZNK8osgEarth4Util19FeatureFilterDriver16getConfigOptionsEPKN5osgDB7OptionsE
libosgEarth.so.0:_ZNK8osgEarth4Util19ScriptEngineOptions9getConfigEv
libosgEarth.so.0:_ZNK8osgEarth4Util20FeatureImageRenderer11getFeaturesEPNS0_7SessionERKNS_5QueryERKNS_9GeoExtentERNSt7__cxx114listIN3osg7ref_ptrINS_7FeatureEEESaISF_EEEPNS_16ProgressCallbackE
libosgEarth.so.0:_ZNK8osgEarth4Util20FeatureImageRenderer30queryAndRenderFeaturesForStyleEPNS0_7SessionERKNS_5StyleERKNS_5QueryERKNS_9GeoExtentEPN3osg5ImageEPNS_16ProgressCallbackE
libosgEarth.so.0:_ZNK8osgEarth4Util20FeatureImageRenderer6renderERKNS_7TileKeyEPNS0_7SessionEPKNS_10StyleSheetEPN3osg5ImageEPNS_16ProgressCallbackE
libosgEarth.so.0:_ZNK8osgEarth4Util20FeaturesToNodeFilter10delocalizeEPN3osg4NodeE
libosgEarth.so.0:_ZNK8osgEarth4Util20FeaturesToNodeFilter10delocalizeEPN3osg4NodeERKNS2_7MatrixdE
libosgEarth.so.0:_ZNK8osgEarth4Util20FeaturesToNodeFilter17delocalizeAsGroupEPN3osg4NodeE
libosgEarth.so.0:_ZNK8osgEarth4Util20FeaturesToNodeFilter17delocalizeAsGroupEPN3osg4NodeERKNS2_7MatrixdE
libosgEarth.so.0:_ZNK8osgEarth4Util20FeaturesToNodeFilter21createDelocalizeGroupERKN3osg7MatrixdE
libosgEarth.so.0:_ZNK8osgEarth4Util20FeaturesToNodeFilter21createDelocalizeGroupEv
libosgEarth.so.0:_ZNK8osgEarth4Util21DiscardAlphaFragments7installEPN3osg8StateSetEf
libosgEarth.so.0:_ZNK8osgEarth4Util21DiscardAlphaFragments9uninstallEPN3osg8StateSetE
libosgEarth.so.0:_ZNK8osgEarth4Util22GeodeticLabelingEngine13getResolutionEv
libosgEarth.so.0:_ZNK8osgEarth4Util22TransientUserDataStore4sizeEv
libosgEarth.so.0:_ZNK8osgEarth4Util22TransientUserDataStore5fetchEPN3osg10ReferencedERKNSt7__cxx1112basic_stringIcSt11char_traitsIcESaIcEEE
libosgEarth.so.0:_ZNK8osgEarth4Util22TransientUserDataStore6existsEPN3osg10ReferencedERKNSt7__cxx1112basic_stringIcSt11char_traitsIcESaIcEEE
libosgEarth.so.0:_ZNK8osgEarth4Util23MultiprocessTileVisitor12getBatchSizeEv
libosgEarth.so.0:_ZNK8osgEarth4Util23MultiprocessTileVisitor12getEarthFileB5cxx11Ev
libosgEarth.so.0:_ZNK8osgEarth4Util23MultiprocessTileVisitor15getNumProcessesEv
libosgEarth.so.0:_ZNK8osgEarth4Util23PolygonizeLinesOperator14installShadersEPN3osg4NodeE
libosgEarth.so.0:_ZNK8osgEarth4Util23PolygonizeLinesOperatorclEPN3osg13TemplateArrayINS2_5Vec3fELNS2_5Array4TypeE28ELi3ELi5126EEES8_PNS0_19OsgGeometryOperator8CallbackEb
libosgEarth.so.0:_ZNK8osgEarth4Util24MultithreadedTileVisitor13getNumThreadsEv
libosgEarth.so.0:_ZNK8osgEarth4Util24OcclusionCullingCallback14getMaxAltitudeEv
libosgEarth.so.0:_ZNK8osgEarth4Util25AttributionControlFactory6createEPNS_7MapNodeE
libosgEarth.so.0:_ZNK8osgEarth4Util25MouseCoordsControlFactory6createEPNS_7MapNodeEPN9osgViewer4ViewE
libosgEarth.so.0:_ZNK8osgEarth4Util27ImageToHeightFieldConverter13convertToR16FEPKN3osg11HeightFieldE
libosgEarth.so.0:_ZNK8osgEarth4Util27ImageToHeightFieldConverter13convertToR32FEPKN3osg11HeightFieldE
libosgEarth.so.0:_ZNK8osgEarth4Util27ImageToHeightFieldConverter9convert16EPKN3osg11HeightFieldE
libosgEarth.so.0:_ZNK8osgEarth4Util27ImageToHeightFieldConverter9convert16EPKN3osg5ImageE
libosgEarth.so.0:_ZNK8osgEarth4Util27ImageToHeightFieldConverter9convert32EPKN3osg11HeightFieldE
libosgEarth.so.0:_ZNK8osgEarth4Util27ImageToHeightFieldConverter9convert32EPKN3osg5ImageE
libosgEarth.so.0:_ZNK8osgEarth4Util27SuperClusterCullingCallback4cullEPN3osg11NodeVisitorEPNS2_8DrawableEPNS2_5StateE
libosgEarth.so.0:_ZNK8osgEarth4Util29AnnotationGraphControlFactory6createEPN3osg4NodeEPN9osgViewer4ViewE
libosgEarth.so.0:_ZNK8osgEarth4Util29CURLHTTPImplementationFactory6createEv
libosgEarth.so.0:_ZNK8osgEarth4Util31PagedLODWithSceneGraphCallbacks22getSceneGraphCallbacksEv
libosgEarth.so.0:_ZNK8osgEarth4Util32WinInetHTTPImplementationFactory6createEv
libosgEarth.so.0:_ZNK8osgEarth4Util4Json17ValueIteratorBase10memberNameEv
libosgEarth.so.0:_ZNK8osgEarth4Util4Json17ValueIteratorBase15computeDistanceERKS2_
libosgEarth.so.0:_ZNK8osgEarth4Util4Json17ValueIteratorBase3keyEv
libosgEarth.so.0:_ZNK8osgEarth4Util4Json17ValueIteratorBase5derefEv
libosgEarth.so.0:_ZNK8osgEarth4Util4Json17ValueIteratorBase5indexEv
libosgEarth.so.0:_ZNK8osgEarth4Util4Json17ValueIteratorBase7isEqualERKS2_
libosgEarth.so.0:_ZNK8osgEarth4Util4Json4Path4makeERNS1_5ValueE
libosgEarth.so.0:_ZNK8osgEarth4Util4Json4Path7resolveERKNS1_5ValueE
libosgEarth.so.0:_ZNK8osgEarth4Util4Json4Path7resolveERKNS1_5ValueES5_
libosgEarth.so.0:_ZNK8osgEarth4Util4Json5Value10getCommentB5cxx11ENS1_16CommentPlacementE
libosgEarth.so.0:_ZNK8osgEarth4Util4Json5Value10hasCommentENS1_16CommentPlacementE
libosgEarth.so.0:_ZNK8osgEarth4Util4Json5Value10isIntegralEv
libosgEarth.so.0:_ZNK8osgEarth4Util4Json5Value12isValidIndexEj
libosgEarth.so.0:_ZNK8osgEarth4Util4Json5Value14getMemberNamesB5cxx11Ev
libosgEarth.so.0:_ZNK8osgEarth4Util4Json5Value14toStyledStringB5cxx11Ev
libosgEarth.so.0:_ZNK8osgEarth4Util4Json5Value15isConvertibleToENS1_9ValueTypeE
libosgEarth.so.0:_ZNK8osgEarth4Util4Json5Value3endEv
libosgEarth.so.0:_ZNK8osgEarth4Util4Json5Value3getEPKcRKS2_
libosgEarth.so.0:_ZNK8osgEarth4Util4Json5Value3getERKNSt7__cxx1112basic_stringIcSt11char_traitsIcESaIcEEERKS2_
libosgEarth.so.0:_ZNK8osgEarth4Util4Json5Value3getEjRKS2_
libosgEarth.so.0:_ZNK8osgEarth4Util4Json5Value4sizeEv
libosgEarth.so.0:_ZNK8osgEarth4Util4Json5Value4typeEv
libosgEarth.so.0:_ZNK8osgEarth4Util4Json5Value5asIntEv
libosgEarth.so.0:_ZNK8osgEarth4Util4Json5Value5beginEv
libosgEarth.so.0:_ZNK8osgEarth4Util4Json5Value5emptyEv
libosgEarth.so.0:_ZNK8osgEarth4Util4Json5Value5isIntEv
libosgEarth.so.0:_ZNK8osgEarth4Util4Json5Value6asBoolEv
libosgEarth.so.0:_ZNK8osgEarth4Util4Json5Value6asUIntEv
libosgEarth.so.0:_ZNK8osgEarth4Util4Json5Value6isBoolEv
libosgEarth.so.0:_ZNK8osgEarth4Util4Json5Value6isNullEv
libosgEarth.so.0:_ZNK8osgEarth4Util4Json5Value6isUIntEv
libosgEarth.so.0:_ZNK8osgEarth4Util4Json5Value7isArrayEv
libosgEarth.so.0:_ZNK8osgEarth4Util4Json5Value8CZString14isStaticStringEv
libosgEarth.so.0:_ZNK8osgEarth4Util4Json5Value8CZString5c_strEv
libosgEarth.so.0:_ZNK8osgEarth4Util4Json5Value8CZString5indexEv
libosgEarth.so.0:_ZNK8osgEarth4Util4Json5Value8CZStringeqERKS3_
libosgEarth.so.0:_ZNK8osgEarth4Util4Json5Value8CZStringltERKS3_
libosgEarth.so.0:_ZNK8osgEarth4Util4Json5Value8asDoubleEv
libosgEarth.so.0:_ZNK8osgEarth4Util4Json5Value8asStringB5cxx11Ev
libosgEarth.so.0:_ZNK8osgEarth4Util4Json5Value8isDoubleEv
libosgEarth.so.0:_ZNK8osgEarth4Util4Json5Value8isMemberEPKc
libosgEarth.so.0:_ZNK8osgEarth4Util4Json5Value8isMemberERKNSt7__cxx1112basic_stringIcSt11char_traitsIcESaIcEEE
libosgEarth.so.0:_ZNK8osgEarth4Util4Json5Value8isObjectEv
libosgEarth.so.0:_ZNK8osgEarth4Util4Json5Value8isStringEv
libosgEarth.so.0:_ZNK8osgEarth4Util4Json5Value9asCStringEv
libosgEarth.so.0:_ZNK8osgEarth4Util4Json5Value9isNumericEv
libosgEarth.so.0:_ZNK8osgEarth4Util4Json5ValueeqERKS2_
libosgEarth.so.0:_ZNK8osgEarth4Util4Json5ValuegeERKS2_
libosgEarth.so.0:_ZNK8osgEarth4Util4Json5ValuegtERKS2_
libosgEarth.so.0:_ZNK8osgEarth4Util4Json5ValueixEPKc
libosgEarth.so.0:_ZNK8osgEarth4Util4Json5ValueixERKNSt7__cxx1112basic_stringIcSt11char_traitsIcESaIcEEE
libosgEarth.so.0:_ZNK8osgEarth4Util4Json5ValueixEj
libosgEarth.so.0:_ZNK8osgEarth4Util4Json5ValueleERKS2_
libosgEarth.so.0:_ZNK8osgEarth4Util4Json5ValueltERKS2_
libosgEarth.so.0:_ZNK8osgEarth4Util4Json5ValueneERKS2_
libosgEarth.so.0:_ZNK8osgEarth4Util4Json5ValuentEv
libosgEarth.so.0:_ZNK8osgEarth4Util4Json6Reader24getFormatedErrorMessagesB5cxx11Ev
libosgEarth.so.0:_ZNK8osgEarth4Util4Json6Reader24getLocationLineAndColumnB5cxx11EPKc
libosgEarth.so.0:_ZNK8osgEarth4Util4Json6Reader24getLocationLineAndColumnEPKcRiS5_
libosgEarth.so.0:_ZNK8osgEarth4Util7Session12getDBOptionsEv
libosgEarth.so.0:_ZNK8osgEarth4Util7Session13getMapProfileEv
libosgEarth.so.0:_ZNK8osgEarth4Util7Session15getScriptEngineEv
libosgEarth.so.0:_ZNK8osgEarth4Util7Session15isMapGeocentricEv
libosgEarth.so.0:_ZNK8osgEarth4Util7Session16getFeatureSourceEv
libosgEarth.so.0:_ZNK8osgEarth4Util7Session6getMapEv
libosgEarth.so.0:_ZNK8osgEarth4Util7Session9getMapSRSEv
libosgEarth.so.0:_ZNK8osgEarth4Util7XmlText8getValueB5cxx11Ev
libosgEarth.so.0:_ZNK8osgEarth4Util8Controls11ControlNode12computeBoundEv
libosgEarth.so.0:_ZNK8osgEarth4Util8Controls12ImageControl18calculateImageSizeEv
libosgEarth.so.0:_ZNK8osgEarth4Util8Controls4Grid10getNumRowsEv
libosgEarth.so.0:_ZNK8osgEarth4Util8Controls4Grid13getNumColumnsEv
libosgEarth.so.0:_ZNK8osgEarth4Util8Controls6UVec2f1xERKN3osg5Vec2fE
libosgEarth.so.0:_ZNK8osgEarth4Util8Controls6UVec2f1xERKNS1_14ControlContextE
libosgEarth.so.0:_ZNK8osgEarth4Util8Controls6UVec2f1yERKN3osg5Vec2fE
libosgEarth.so.0:_ZNK8osgEarth4Util8Controls6UVec2f1yERKNS1_14ControlContextE
libosgEarth.so.0:_ZNK8osgEarth4Util8Controls6UVec2f8asPixelsERKN3osg5Vec2fE
libosgEarth.so.0:_ZNK8osgEarth4Util8Controls6UVec2f8asPixelsERKNS1_14ControlContextE
libosgEarth.so.0:_ZNK8osgEarth4Util8Controls7Control10intersectsEff
libosgEarth.so.0:_ZNK8osgEarth4Util8Controls7Control15parentIsVisibleEv
libosgEarth.so.0:_ZNK8osgEarth4Util8Resource9getConfigEv
libosgEarth.so.0:_ZNK8osgEarth4Util8TaskList7getKeysEv
libosgEarth.so.0:_ZNK8osgEarth4Util9MetaImage12getScaleBiasEii
libosgEarth.so.0:_ZNK8osgEarth4Util9MetaImage4dumpEv
libosgEarth.so.0:_ZNK8osgEarth4Util9MetaImage4readEddRN3osg5Vec4fE
libosgEarth.so.0:_ZNK8osgEarth4Util9MetaImage8getImageEii
libosgEarth.so.0:_ZNK8osgEarth4Util9PagedNode13getChildBoundEv
libosgEarth.so.0:_ZNK8osgEarth4Util9PagedNode8hasChildEv
libosgEarth.so.0:_ZNK8osgEarth4Util9SkyDriver13getSkyOptionsEPKN5osgDB7OptionsE
libosgEarth.so.0:_ZNK8osgEarth4Wind9getConfigEv
libosgEarth.so.0:_ZNK8osgEarth5Color10brightnessEf
libosgEarth.so.0:_ZNK8osgEarth5Color2asENS0_6FormatE
libosgEarth.so.0:_ZNK8osgEarth5Color5asHSLEv
libosgEarth.so.0:_ZNK8osgEarth5Color6toHTMLB5cxx11ENS0_6FormatE
libosgEarth.so.0:_ZNK8osgEarth5Geoid14isEquivalentToERKS0_
libosgEarth.so.0:_ZNK8osgEarth5Geoid9getHeightEddRKNS_19RasterInterpolationE
libosgEarth.so.0:_ZNK8osgEarth5Layer10getCacheIDB5cxx11Ev
libosgEarth.so.0:_ZNK8osgEarth5Layer10getEnabledEv
libosgEarth.so.0:_ZNK8osgEarth5Layer11getStateSetEv
libosgEarth.so.0:_ZNK8osgEarth5Layer11getTypeNameEv
libosgEarth.so.0:_ZNK8osgEarth5Layer14getAttributionB5cxx11Ev
libosgEarth.so.0:_ZNK8osgEarth5Layer14getCachePolicyEv
libosgEarth.so.0:_ZNK8osgEarth5Layer14getReadOptionsEv
libosgEarth.so.0:_ZNK8osgEarth5Layer15getCullCallbackEv
libosgEarth.so.0:_ZNK8osgEarth5Layer16releaseGLObjectsEPN3osg5StateE
libosgEarth.so.0:_ZNK8osgEarth5Layer17TraversalCallback8traverseEPN3osg4NodeEPNS2_11NodeVisitorE
libosgEarth.so.0:_ZNK8osgEarth5Layer21modifyTileBoundingBoxERKNS_7TileKeyERN3osg15BoundingBoxImplINS4_5Vec3fEEE
libosgEarth.so.0:_ZNK8osgEarth5Layer22getSceneGraphCallbacksEv
libosgEarth.so.0:_ZNK8osgEarth5Layer5applyEPN3osg4NodeEPNS1_11NodeVisitorE
libosgEarth.so.0:_ZNK8osgEarth5Layer6isOpenEv
libosgEarth.so.0:_ZNK8osgEarth5Layer7Options9getConfigEv
libosgEarth.so.0:_ZNK8osgEarth5Layer8getHintsEv
libosgEarth.so.0:_ZNK8osgEarth5Layer9getConfigEv
libosgEarth.so.0:_ZNK8osgEarth5Layer9getExtentEv
libosgEarth.so.0:_ZNK8osgEarth5Layer9getStatusEv
libosgEarth.so.0:_ZNK8osgEarth5Layer9setStatusERKNS_6Status4CodeERKNSt7__cxx1112basic_stringIcSt11char_traitsIcESaIcEEE
libosgEarth.so.0:_ZNK8osgEarth5Layer9setStatusERKNS_6StatusE
libosgEarth.so.0:_ZNK8osgEarth5Query11combineWithERKS0_
libosgEarth.so.0:_ZNK8osgEarth5Query9getConfigEv
libosgEarth.so.0:_ZNK8osgEarth5Ray2d13isPointOnLeftERKN3osg5Vec2dE
libosgEarth.so.0:_ZNK8osgEarth5Ray2d13isPointOnLeftERKN3osg5Vec3dE
libosgEarth.so.0:_ZNK8osgEarth5Ray2d5angleERKNS_9Segment2dE
libosgEarth.so.0:_ZNK8osgEarth5Ray2d9intersectERKNS_6Line2dERN3osg5Vec2dE
libosgEarth.so.0:_ZNK8osgEarth5Ray2d9intersectERKNS_6Line2dERN3osg5Vec3dE
libosgEarth.so.0:_ZNK8osgEarth5Ray2d9intersectERKNS_9Segment2dERN3osg5Vec2dE
libosgEarth.so.0:_ZNK8osgEarth5Ray2d9intersectERKNS_9Segment2dERN3osg5Vec3dE
libosgEarth.so.0:_ZNK8osgEarth5Ray2d9intersectERKS0_RN3osg5Vec2dE
libosgEarth.so.0:_ZNK8osgEarth5Ray2d9intersectERKS0_RN3osg5Vec3dE
libosgEarth.so.0:_ZNK8osgEarth5Style11combineWithERKS0_
libosgEarth.so.0:_ZNK8osgEarth5Style9getConfigEb
libosgEarth.so.0:_ZNK8osgEarth6Bounds16intersectionWithERKS0_
libosgEarth.so.0:_ZNK8osgEarth6Bounds5depthEv
libosgEarth.so.0:_ZNK8osgEarth6Bounds5widthEv
libosgEarth.so.0:_ZNK8osgEarth6Bounds6area2dEv
libosgEarth.so.0:_ZNK8osgEarth6Bounds6heightEv
libosgEarth.so.0:_ZNK8osgEarth6Bounds7isValidEv
libosgEarth.so.0:_ZNK8osgEarth6Bounds8center2dEv
libosgEarth.so.0:_ZNK8osgEarth6Bounds8containsERKS0_
libosgEarth.so.0:_ZNK8osgEarth6Bounds8containsEdd
libosgEarth.so.0:_ZNK8osgEarth6Bounds8radius2dEv
libosgEarth.so.0:_ZNK8osgEarth6Bounds8toStringB5cxx11Ev
libosgEarth.so.0:_ZNK8osgEarth6Bounds9unionWithERKS0_
libosgEarth.so.0:_ZNK8osgEarth6Config4findERKNSt7__cxx1112basic_stringIcSt11char_traitsIcESaIcEEEb
libosgEarth.so.0:_ZNK8osgEarth6Config5childERKNSt7__cxx1112basic_stringIcSt11char_traitsIcESaIcEEE
libosgEarth.so.0:_ZNK8osgEarth6Config6toJSONB5cxx11Eb
libosgEarth.so.0:_ZNK8osgEarth6Config9child_ptrERKNSt7__cxx1112basic_stringIcSt11char_traitsIcESaIcEEE
libosgEarth.so.0:_ZNK8osgEarth6ConfigmiERKS0_
libosgEarth.so.0:_ZNK8osgEarth6Line2d13isPointOnLeftERKN3osg5Vec2dE
libosgEarth.so.0:_ZNK8osgEarth6Line2d13isPointOnLeftERKN3osg5Vec3dE
libosgEarth.so.0:_ZNK8osgEarth6Line2d9intersectERKNS_5Ray2dERN3osg5Vec2dE
libosgEarth.so.0:_ZNK8osgEarth6Line2d9intersectERKNS_5Ray2dERN3osg5Vec3dE
libosgEarth.so.0:_ZNK8osgEarth6Line2d9intersectERKNS_9Segment2dERN3osg5Vec2dE
libosgEarth.so.0:_ZNK8osgEarth6Line2d9intersectERKNS_9Segment2dERN3osg5Vec3dE
libosgEarth.so.0:_ZNK8osgEarth6Line2d9intersectERKS0_RN3osg5Vec2dE
libosgEarth.so.0:_ZNK8osgEarth6Line2d9intersectERKS0_RN3osg5Vec3dE
libosgEarth.so.0:_ZNK8osgEarth6Line2d9intersectERKS0_RN3osg5Vec4dE
libosgEarth.so.0:_ZNK8osgEarth6Status8toStringB5cxx11Ev
libosgEarth.so.0:_ZNK8osgEarth6Stroke9getConfigEv
libosgEarth.so.0:_ZNK8osgEarth6Symbol9getConfigEv
libosgEarth.so.0:_ZNK8osgEarth7Contrib10TileSource10getProfileEv
libosgEarth.so.0:_ZNK8osgEarth7Contrib10TileSource12getBlacklistEv
libosgEarth.so.0:_ZNK8osgEarth7Contrib10TileSource16getPixelsPerTileEv
libosgEarth.so.0:_ZNK8osgEarth7Contrib10TileSource4isOKEv
libosgEarth.so.0:_ZNK8osgEarth7Contrib11ClusterNode10getEnabledEv
libosgEarth.so.0:_ZNK8osgEarth7Contrib11ClusterNode10getMapNodeEv
libosgEarth.so.0:_ZNK8osgEarth7Contrib11ClusterNode9getRadiusEv
libosgEarth.so.0:_ZNK8osgEarth7Contrib11ThreeDTiles11TileContent7getJSONEv
libosgEarth.so.0:_ZNK8osgEarth7Contrib11ThreeDTiles14BoundingVolume16asBoundingSphereEv
libosgEarth.so.0:_ZNK8osgEarth7Contrib11ThreeDTiles14BoundingVolume7getJSONEv
libosgEarth.so.0:_ZNK8osgEarth7Contrib11ThreeDTiles14ThreeDTileNode12computeBoundEv
libosgEarth.so.0:_ZNK8osgEarth7Contrib11ThreeDTiles14ThreeDTileNode16releaseGLObjectsEPN3osg5StateE
libosgEarth.so.0:_ZNK8osgEarth7Contrib11ThreeDTiles14ThreeDTileNode22getLastCulledFrameTimeEv
libosgEarth.so.0:_ZNK8osgEarth7Contrib11ThreeDTiles14ThreeDTileNode24getLastCulledFrameNumberEv
libosgEarth.so.0:_ZNK8osgEarth7Contrib11ThreeDTiles17ThreeDTilesetNode11getMaxTilesEv
libosgEarth.so.0:_ZNK8osgEarth7Contrib11ThreeDTiles17ThreeDTilesetNode12getOwnerNameB5cxx11Ev
libosgEarth.so.0:_ZNK8osgEarth7Contrib11ThreeDTiles17ThreeDTilesetNode15getColorPerTileEv
libosgEarth.so.0:_ZNK8osgEarth7Contrib11ThreeDTiles17ThreeDTilesetNode17getSSEDenominatorEv
libosgEarth.so.0:_ZNK8osgEarth7Contrib11ThreeDTiles17ThreeDTilesetNode22getShowBoundingVolumesEv
libosgEarth.so.0:_ZNK8osgEarth7Contrib11ThreeDTiles17ThreeDTilesetNode26getMaximumScreenSpaceErrorEv
libosgEarth.so.0:_ZNK8osgEarth7Contrib11ThreeDTiles17ThreeDTilesetNode9getMaxAgeEv
libosgEarth.so.0:_ZNK8osgEarth7Contrib11ThreeDTiles4Tile7getJSONEv
libosgEarth.so.0:_ZNK8osgEarth7Contrib11ThreeDTiles5Asset7getJSONEv
libosgEarth.so.0:_ZNK8osgEarth7Contrib11ThreeDTiles7Tileset7getJSONEv
libosgEarth.so.0:_ZNK8osgEarth7Contrib12AtlasBuilder5buildEPKNS_4Util15ResourceLibraryERKNSt7__cxx1112basic_stringIcSt11char_traitsIcESaIcEEERNS1_5AtlasE
libosgEarth.so.0:_ZNK8osgEarth7Contrib13ClampCallback13clampGeometryEPN3osg8GeometryERKNS2_7MatrixdES7_
libosgEarth.so.0:_ZNK8osgEarth7Contrib13ClampCallback19getIntersectionMaskEv
libosgEarth.so.0:_ZNK8osgEarth7Contrib13ClampCallback5clampERKN3osg5Vec3dERS3_
libosgEarth.so.0:_ZNK8osgEarth7Contrib13TileBlacklist5writeERKNSt7__cxx1112basic_stringIcSt11char_traitsIcESaIcEEE
libosgEarth.so.0:_ZNK8osgEarth7Contrib13TileBlacklist5writeERSo
libosgEarth.so.0:_ZNK8osgEarth7Contrib13TileBlacklist8containsERKNS_7TileKeyE
libosgEarth.so.0:_ZNK8osgEarth7Contrib14CalloutManager13CalloutRecordltERKS2_
libosgEarth.so.0:_ZNK8osgEarth7Contrib14CalloutManager18drawImplementationERN3osg10RenderInfoE
libosgEarth.so.0:_ZNK8osgEarth7Contrib14CalloutManager20getDrawObscuredItemsEv
libosgEarth.so.0:_ZNK8osgEarth7Contrib14CalloutManager4BBox7overlapERKS2_
libosgEarth.so.0:_ZNK8osgEarth7Contrib14CalloutManager4BBox8overlapsERKS2_
libosgEarth.so.0:_ZNK8osgEarth7Contrib14CalloutManager7isStuckEPKNS1_13CalloutRecordE
libosgEarth.so.0:_ZNK8osgEarth7Contrib14TerrainProfile11getDistanceEi
libosgEarth.so.0:_ZNK8osgEarth7Contrib14TerrainProfile12getElevationEi
libosgEarth.so.0:_ZNK8osgEarth7Contrib14TerrainProfile16getNumElevationsEv
libosgEarth.so.0:_ZNK8osgEarth7Contrib14TerrainProfile16getTotalDistanceEv
libosgEarth.so.0:_ZNK8osgEarth7Contrib14TerrainProfile18getElevationRangesERdS2_
libosgEarth.so.0:_ZNK8osgEarth7Contrib15DecalImageLayer14getDecalExtentERKNSt7__cxx1112basic_stringIcSt11char_traitsIcESaIcEEE
libosgEarth.so.0:_ZNK8osgEarth7Contrib15DecalImageLayer25createImageImplementationERKNS_7TileKeyEPNS_16ProgressCallbackE
libosgEarth.so.0:_ZNK8osgEarth7Contrib15DecalImageLayer7Options9getConfigEv
libosgEarth.so.0:_ZNK8osgEarth7Contrib15FlatteningLayer12getLineWidthEv
libosgEarth.so.0:_ZNK8osgEarth7Contrib15FlatteningLayer14getBufferWidthEv
libosgEarth.so.0:_ZNK8osgEarth7Contrib15FlatteningLayer31createHeightFieldImplementationERKNS_7TileKeyEPNS_16ProgressCallbackE
libosgEarth.so.0:_ZNK8osgEarth7Contrib15FlatteningLayer7Options9getConfigEv
libosgEarth.so.0:_ZNK8osgEarth7Contrib15FlatteningLayer7getFillEv
libosgEarth.so.0:_ZNK8osgEarth7Contrib15FlatteningLayer9getConfigEv
libosgEarth.so.0:_ZNK8osgEarth7Contrib16CacheTileHandler16getProcessStringB5cxx11Ev
libosgEarth.so.0:_ZNK8osgEarth7Contrib16CacheTileHandler7hasDataERKNS_7TileKeyE
libosgEarth.so.0:_ZNK8osgEarth7Contrib16ThreeDTilesLayer26getMaximumScreenSpaceErrorEv
libosgEarth.so.0:_ZNK8osgEarth7Contrib16ThreeDTilesLayer6getURLEv
libosgEarth.so.0:_ZNK8osgEarth7Contrib16ThreeDTilesLayer7Options9getConfigEv
libosgEarth.so.0:_ZNK8osgEarth7Contrib16ThreeDTilesLayer7getNodeEv
libosgEarth.so.0:_ZNK8osgEarth7Contrib16TileSourceDriver16getInterfaceNameB5cxx11EPKN5osgDB7OptionsE
libosgEarth.so.0:_ZNK8osgEarth7Contrib16TileSourceDriver20getTileSourceOptionsEPKN5osgDB7OptionsE
libosgEarth.so.0:_ZNK8osgEarth7Contrib17SkyViewImageLayer25createImageImplementationERKNS_7TileKeyEPNS_16ProgressCallbackE
libosgEarth.so.0:_ZNK8osgEarth7Contrib17SkyViewImageLayer7Options9getConfigEv
libosgEarth.so.0:_ZNK8osgEarth7Contrib17SkyViewImageLayer9getConfigEv
libosgEarth.so.0:_ZNK8osgEarth7Contrib17TileSourceOptions9getConfigEv
libosgEarth.so.0:_ZNK8osgEarth7Contrib18MeasureToolHandler14getMouseButtonEv
libosgEarth.so.0:_ZNK8osgEarth7Contrib18MeasureToolHandler19getGeoInterpolationEv
libosgEarth.so.0:_ZNK8osgEarth7Contrib18MeasureToolHandler9getIsPathEv
libosgEarth.so.0:_ZNK8osgEarth7Contrib18UnifiedCubeProfile16getEquivalentLODEPKNS_7ProfileEj
libosgEarth.so.0:_ZNK8osgEarth7Contrib18UnifiedCubeProfile20getIntersectingTilesERKNS_9GeoExtentEjRSt6vectorINS_7TileKeyESaIS6_EE
libosgEarth.so.0:_ZNK8osgEarth7Contrib18UnifiedCubeProfile24transformGcsExtentOnFaceERKNS_9GeoExtentEi
libosgEarth.so.0:_ZNK8osgEarth7Contrib19DecalElevationLayer14getDecalExtentERKNSt7__cxx1112basic_stringIcSt11char_traitsIcESaIcEEE
libosgEarth.so.0:_ZNK8osgEarth7Contrib19DecalElevationLayer31createHeightFieldImplementationERKNS_7TileKeyEPNS_16ProgressCallbackE
libosgEarth.so.0:_ZNK8osgEarth7Contrib19DecalElevationLayer7Options9getConfigEv
libosgEarth.so.0:_ZNK8osgEarth7Contrib19DecalLandCoverLayer14getDecalExtentERKNSt7__cxx1112basic_stringIcSt11char_traitsIcESaIcEEE
libosgEarth.so.0:_ZNK8osgEarth7Contrib19DecalLandCoverLayer25createImageImplementationERKNS_7TileKeyEPNS_16ProgressCallbackE
libosgEarth.so.0:_ZNK8osgEarth7Contrib19DecalLandCoverLayer7Options9getConfigEv
libosgEarth.so.0:_ZNK8osgEarth7Contrib20CubeSpatialReference12preTransformERSt6vectorIN3osg5Vec3dESaIS4_EE
libosgEarth.so.0:_ZNK8osgEarth7Contrib20CubeSpatialReference13postTransformERSt6vectorIN3osg5Vec3dESaIS4_EE
libosgEarth.so.0:_ZNK8osgEarth7Contrib20CubeSpatialReference20transformExtentToMBREPKNS_16SpatialReferenceERdS5_S5_S5_
libosgEarth.so.0:_ZNK8osgEarth7Contrib20CubeSpatialReference26transformInFaceExtentToMBREPKNS_16SpatialReferenceEiRdS5_S5_S5_
libosgEarth.so.0:_ZNK8osgEarth7Contrib20TileSourceImageLayer24writeImageImplementationERKNS_7TileKeyEPKN3osg5ImageEPNS_16ProgressCallbackE
libosgEarth.so.0:_ZNK8osgEarth7Contrib20TileSourceImageLayer25createImageImplementationERKNS_7TileKeyEPNS_16ProgressCallbackE
libosgEarth.so.0:_ZNK8osgEarth7Contrib20TileSourceImageLayer7Options9getConfigEv
libosgEarth.so.0:_ZNK8osgEarth7Contrib21FractalElevationLayer10getMappingEPKNS_14LandCoverClassE
libosgEarth.so.0:_ZNK8osgEarth7Contrib21FractalElevationLayer31createHeightFieldImplementationERKNS_7TileKeyEPNS_16ProgressCallbackE
libosgEarth.so.0:_ZNK8osgEarth7Contrib21FractalElevationLayer7Options9getConfigEv
libosgEarth.so.0:_ZNK8osgEarth7Contrib21FractalElevationLayer9getConfigEv
libosgEarth.so.0:_ZNK8osgEarth7Contrib21LinearLineOfSightNode11getBadColorEv
libosgEarth.so.0:_ZNK8osgEarth7Contrib21LinearLineOfSightNode11getEndWorldEv
libosgEarth.so.0:_ZNK8osgEarth7Contrib21LinearLineOfSightNode11getHitWorldEv
libosgEarth.so.0:_ZNK8osgEarth7Contrib21LinearLineOfSightNode12getGoodColorEv
libosgEarth.so.0:_ZNK8osgEarth7Contrib21LinearLineOfSightNode13getStartWorldEv
libosgEarth.so.0:_ZNK8osgEarth7Contrib21LinearLineOfSightNode14getDisplayModeEv
libosgEarth.so.0:_ZNK8osgEarth7Contrib21LinearLineOfSightNode14getTerrainOnlyEv
libosgEarth.so.0:_ZNK8osgEarth7Contrib21LinearLineOfSightNode6getEndEv
libosgEarth.so.0:_ZNK8osgEarth7Contrib21LinearLineOfSightNode6getHitEv
libosgEarth.so.0:_ZNK8osgEarth7Contrib21LinearLineOfSightNode8getStartEv
libosgEarth.so.0:_ZNK8osgEarth7Contrib21LinearLineOfSightNode9getHasLOSEv
libosgEarth.so.0:_ZNK8osgEarth7Contrib21RadialLineOfSightNode11getBadColorEv
libosgEarth.so.0:_ZNK8osgEarth7Contrib21RadialLineOfSightNode12getGoodColorEv
libosgEarth.so.0:_ZNK8osgEarth7Contrib21RadialLineOfSightNode12getNumSpokesEv
libosgEarth.so.0:_ZNK8osgEarth7Contrib21RadialLineOfSightNode14getCenterWorldEv
libosgEarth.so.0:_ZNK8osgEarth7Contrib21RadialLineOfSightNode14getDisplayModeEv
libosgEarth.so.0:_ZNK8osgEarth7Contrib21RadialLineOfSightNode14getTerrainOnlyEv
libosgEarth.so.0:_ZNK8osgEarth7Contrib21RadialLineOfSightNode15getOutlineColorEv
libosgEarth.so.0:_ZNK8osgEarth7Contrib21RadialLineOfSightNode7getFillEv
libosgEarth.so.0:_ZNK8osgEarth7Contrib21RadialLineOfSightNode9getCenterEv
libosgEarth.so.0:_ZNK8osgEarth7Contrib21RadialLineOfSightNode9getRadiusEv
libosgEarth.so.0:_ZNK8osgEarth7Contrib24TerrainProfileCalculator10getProfileEv
libosgEarth.so.0:_ZNK8osgEarth7Contrib24TerrainProfileCalculator6getEndENS_12AltitudeModeE
libosgEarth.so.0:_ZNK8osgEarth7Contrib24TerrainProfileCalculator6getEndEv
libosgEarth.so.0:_ZNK8osgEarth7Contrib24TerrainProfileCalculator8getStartENS_12AltitudeModeE
libosgEarth.so.0:_ZNK8osgEarth7Contrib24TerrainProfileCalculator8getStartEv
libosgEarth.so.0:_ZNK8osgEarth7Contrib24TileSourceElevationLayer21getOrCreatePreCacheOpEv
libosgEarth.so.0:_ZNK8osgEarth7Contrib24TileSourceElevationLayer31createHeightFieldImplementationERKNS_7TileKeyEPNS_16ProgressCallbackE
libosgEarth.so.0:_ZNK8osgEarth7Contrib24TileSourceElevationLayer7Options9getConfigEv
libosgEarth.so.0:_ZNK8osgEarth7Contrib7HTMNode10PolytopeDP13containsAnyOfERKSt6vectorIN3osg5Vec3dESaIS5_EE
libosgEarth.so.0:_ZNK8osgEarth7Contrib7HTMNode10PolytopeDP8containsERKN3osg5Vec3dE
libosgEarth.so.0:_ZNK8osgEarth7Contrib7HTMNode8Triangle12getMidpointsEPN3osg5Vec3dE
libosgEarth.so.0:_ZNK8osgEarth7Contrib9CacheSeed10getVisitorEv
libosgEarth.so.0:_ZNK8osgEarth7Dragger10getHoveredEv
libosgEarth.so.0:_ZNK8osgEarth7Dragger11getDraggingEv
libosgEarth.so.0:_ZNK8osgEarth7Feature10getGeoJSONB5cxx11Ev
libosgEarth.so.0:_ZNK8osgEarth7Feature13getWorldBoundEPKNS_16SpatialReferenceERN3osg18BoundingSphereImplINS4_5Vec3dEEE
libosgEarth.so.0:_ZNK8osgEarth7Feature14getDoubleArrayERKNSt7__cxx1112basic_stringIcSt11char_traitsIcESaIcEEE
libosgEarth.so.0:_ZNK8osgEarth7Feature15calculateExtentEv
libosgEarth.so.0:_ZNK8osgEarth7Feature24getWorldBoundingPolytopeEPKNS_16SpatialReferenceERN3osg8PolytopeE
libosgEarth.so.0:_ZNK8osgEarth7Feature4evalB5cxx11ERNS_16StringExpressionEPKNS_4Util13FilterContextE
libosgEarth.so.0:_ZNK8osgEarth7Feature4evalB5cxx11ERNS_16StringExpressionEPNS_4Util7SessionE
libosgEarth.so.0:_ZNK8osgEarth7Feature4evalERNS_17NumericExpressionEPKNS_4Util13FilterContextE
libosgEarth.so.0:_ZNK8osgEarth7Feature4evalERNS_17NumericExpressionEPNS_4Util7SessionE
libosgEarth.so.0:_ZNK8osgEarth7Feature5isSetERKNSt7__cxx1112basic_stringIcSt11char_traitsIcESaIcEEE
libosgEarth.so.0:_ZNK8osgEarth7Feature6getFIDEv
libosgEarth.so.0:_ZNK8osgEarth7Feature6getIntERKNSt7__cxx1112basic_stringIcSt11char_traitsIcESaIcEEEx
libosgEarth.so.0:_ZNK8osgEarth7Feature7getBoolERKNSt7__cxx1112basic_stringIcSt11char_traitsIcESaIcEEEb
libosgEarth.so.0:_ZNK8osgEarth7Feature7hasAttrERKNSt7__cxx1112basic_stringIcSt11char_traitsIcESaIcEEE
libosgEarth.so.0:_ZNK8osgEarth7Feature9getDoubleERKNSt7__cxx1112basic_stringIcSt11char_traitsIcESaIcEEEd
libosgEarth.so.0:_ZNK8osgEarth7Feature9getExtentEv
libosgEarth.so.0:_ZNK8osgEarth7Feature9getStringERKNSt7__cxx1112basic_stringIcSt11char_traitsIcESaIcEEE
libosgEarth.so.0:_ZNK8osgEarth7GeoNode5validEv
libosgEarth.so.0:_ZNK8osgEarth7Horizon27getDistanceToVisibleHorizonEv
libosgEarth.so.0:_ZNK8osgEarth7Horizon8getPlaneERN3osg5PlaneE
libosgEarth.so.0:_ZNK8osgEarth7Horizon9getRadiusEv
libosgEarth.so.0:_ZNK8osgEarth7Horizon9isVisibleERKN3osg5Vec3dES4_d
libosgEarth.so.0:_ZNK8osgEarth7Horizon9isVisibleERKN3osg5Vec3dEd
libosgEarth.so.0:_ZNK8osgEarth7MBTiles6Driver4readERKNS_7TileKeyEPNS_16ProgressCallbackEPKN5osgDB7OptionsE
libosgEarth.so.0:_ZNK8osgEarth7MBTiles6Driver5writeERKNS_7TileKeyEPKN3osg5ImageEPNS_16ProgressCallbackE
libosgEarth.so.0:_ZNK8osgEarth7MBTiles7Options7writeToERNS_6ConfigE
libosgEarth.so.0:_ZNK8osgEarth7MapNode10getTerrainEv
libosgEarth.so.0:_ZNK8osgEarth7MapNode12computeBoundEv
libosgEarth.so.0:_ZNK8osgEarth7MapNode12getLayerNodeEPNS_5LayerE
libosgEarth.so.0:_ZNK8osgEarth7MapNode12isGeocentricEv
libosgEarth.so.0:_ZNK8osgEarth7MapNode16getTerrainEngineEv
libosgEarth.so.0:_ZNK8osgEarth7MapNode16releaseGLObjectsEPN3osg5StateE
libosgEarth.so.0:_ZNK8osgEarth7MapNode17getEnableLightingEv
libosgEarth.so.0:_ZNK8osgEarth7MapNode17getLayerNodeGroupEv
libosgEarth.so.0:_ZNK8osgEarth7MapNode17getTerrainOptionsEv
libosgEarth.so.0:_ZNK8osgEarth7MapNode19getResourceReleaserEv
libosgEarth.so.0:_ZNK8osgEarth7MapNode6getMapEv
libosgEarth.so.0:_ZNK8osgEarth7MapNode7Options9getConfigEv
libosgEarth.so.0:_ZNK8osgEarth7MapNode9getConfigEv
libosgEarth.so.0:_ZNK8osgEarth7MapNode9getMapSRSEv
libosgEarth.so.0:_ZNK8osgEarth7Polygon10contains2DEdd
libosgEarth.so.0:_ZNK8osgEarth7Polygon18getTotalPointCountEv
libosgEarth.so.0:_ZNK8osgEarth7Profile11getNumTilesEjRjS1_
libosgEarth.so.0:_ZNK8osgEarth7Profile11getRootKeysERSt6vectorINS_7TileKeyESaIS2_EE
libosgEarth.so.0:_ZNK8osgEarth7Profile11overrideSRSEPKNS_16SpatialReferenceE
libosgEarth.so.0:_ZNK8osgEarth7Profile13createTileKeyEddj
libosgEarth.so.0:_ZNK8osgEarth7Profile14getProfileTypeEv
libosgEarth.so.0:_ZNK8osgEarth7Profile14isEquivalentToEPKS0_
libosgEarth.so.0:_ZNK8osgEarth7Profile15getAllKeysAtLODEjRSt6vectorINS_7TileKeyESaIS2_EE
libosgEarth.so.0:_ZNK8osgEarth7Profile16getEquivalentLODEPKS0_j
libosgEarth.so.0:_ZNK8osgEarth7Profile16getLatLongExtentEv
libosgEarth.so.0:_ZNK8osgEarth7Profile16toProfileOptionsEv
libosgEarth.so.0:_ZNK8osgEarth7Profile17getTileDimensionsEjRdS1_
libosgEarth.so.0:_ZNK8osgEarth7Profile19isHorizEquivalentToEPKS0_
libosgEarth.so.0:_ZNK8osgEarth7Profile20addIntersectingTilesERKNS_9GeoExtentEjRSt6vectorINS_7TileKeyESaIS5_EE
libosgEarth.so.0:_ZNK8osgEarth7Profile20getIntersectingTilesERKNS_7TileKeyERSt6vectorIS1_SaIS1_EE
libosgEarth.so.0:_ZNK8osgEarth7Profile20getIntersectingTilesERKNS_9GeoExtentEjRSt6vectorINS_7TileKeyESaIS5_EE
libosgEarth.so.0:_ZNK8osgEarth7Profile23clampAndTransformExtentERKNS_9GeoExtentEPb
libosgEarth.so.0:_ZNK8osgEarth7Profile34getLevelOfDetailForHorizResolutionEdi
libosgEarth.so.0:_ZNK8osgEarth7Profile4isOKEv
libosgEarth.so.0:_ZNK8osgEarth7Profile6getLODEd
libosgEarth.so.0:_ZNK8osgEarth7Profile6getSRSEv
libosgEarth.so.0:_ZNK8osgEarth7Profile8toStringB5cxx11Ev
libosgEarth.so.0:_ZNK8osgEarth7Profile9getExtentEv
libosgEarth.so.0:_ZNK8osgEarth7SkyNode12getEphemerisEv
libosgEarth.so.0:_ZNK8osgEarth7Terrain24getWorldCoordsUnderMouseEPN3osg4ViewEffRNS1_5Vec3dE
libosgEarth.so.0:_ZNK8osgEarth7Terrain9getHeightEPKNS_16SpatialReferenceEddPdS4_
libosgEarth.so.0:_ZNK8osgEarth7Terrain9getHeightEPN3osg4NodeEPKNS_16SpatialReferenceEddPdS7_
libosgEarth.so.0:_ZNK8osgEarth7TileKey10getProfileEv
libosgEarth.so.0:_ZNK8osgEarth7TileKey11getQuadrantEv
libosgEarth.so.0:_ZNK8osgEarth7TileKey13mapResolutionEjjj
libosgEarth.so.0:_ZNK8osgEarth7TileKey14createChildKeyEj
libosgEarth.so.0:_ZNK8osgEarth7TileKey15createParentKeyEv
libosgEarth.so.0:_ZNK8osgEarth7TileKey15getPixelExtentsERjS1_S1_S1_RKj
libosgEarth.so.0:_ZNK8osgEarth7TileKey17createAncestorKeyEi
libosgEarth.so.0:_ZNK8osgEarth7TileKey17createNeighborKeyEii
libosgEarth.so.0:_ZNK8osgEarth7TileKey9getTileXYERjS1_
libosgEarth.so.0:_ZNK8osgEarth8DateTime12getJulianDayEv
libosgEarth.so.0:_ZNK8osgEarth8DateTime16asCompactISO8601B5cxx11Ev
libosgEarth.so.0:_ZNK8osgEarth8DateTime3dayEv
libosgEarth.so.0:_ZNK8osgEarth8DateTime4yearEv
libosgEarth.so.0:_ZNK8osgEarth8DateTime5hoursEv
libosgEarth.so.0:_ZNK8osgEarth8DateTime5monthEv
libosgEarth.so.0:_ZNK8osgEarth8DateTime6timegmEPK2tm
libosgEarth.so.0:_ZNK8osgEarth8DateTime9asISO8601B5cxx11Ev
libosgEarth.so.0:_ZNK8osgEarth8DateTime9asRFC1123B5cxx11Ev
libosgEarth.so.0:_ZNK8osgEarth8DateTimeplEd
libosgEarth.so.0:_ZNK8osgEarth8GeoImage16getUnitsPerPixelEv
libosgEarth.so.0:_ZNK8osgEarth8GeoImage4cropERKNS_9GeoExtentEbjjb
libosgEarth.so.0:_ZNK8osgEarth8GeoImage5validEv
libosgEarth.so.0:_ZNK8osgEarth8GeoImage6getSRSEv
libosgEarth.so.0:_ZNK8osgEarth8GeoImage8getImageEv
libosgEarth.so.0:_ZNK8osgEarth8GeoImage9getExtentEv
libosgEarth.so.0:_ZNK8osgEarth8GeoImage9reprojectEPKNS_16SpatialReferenceEPKNS_9GeoExtentEjjb
libosgEarth.so.0:_ZNK8osgEarth8GeoPoint10distanceToERKS0_
libosgEarth.so.0:_ZNK8osgEarth8GeoPoint10transformZERKNS_12AltitudeModeEPKNS_15TerrainResolverERd
libosgEarth.so.0:_ZNK8osgEarth8GeoPoint11interpolateERKS0_d
libosgEarth.so.0:_ZNK8osgEarth8GeoPoint18createLocalToWorldERN3osg7MatrixdE
libosgEarth.so.0:_ZNK8osgEarth8GeoPoint18createWorldToLocalERN3osg7MatrixdE
libosgEarth.so.0:_ZNK8osgEarth8GeoPoint19createWorldUpVectorERN3osg5Vec3dE
libosgEarth.so.0:_ZNK8osgEarth8GeoPoint7toWorldERN3osg5Vec3dE
libosgEarth.so.0:_ZNK8osgEarth8GeoPoint7toWorldERN3osg5Vec3dEPKNS_15TerrainResolverE
libosgEarth.so.0:_ZNK8osgEarth8GeoPoint8toStringB5cxx11Ev
libosgEarth.so.0:_ZNK8osgEarth8GeoPoint9getConfigEv
libosgEarth.so.0:_ZNK8osgEarth8GeoPoint9transformEPKNS_16SpatialReferenceE
libosgEarth.so.0:_ZNK8osgEarth8GeoPoint9transformEPKNS_16SpatialReferenceERS0_
libosgEarth.so.0:_ZNK8osgEarth8GeoPointeqERKS0_
libosgEarth.so.0:_ZNK8osgEarth8Geometry10differenceEPKNS_7PolygonERN3osg7ref_ptrIS0_EE
libosgEarth.so.0:_ZNK8osgEarth8Geometry10intersectsEPKS0_
libosgEarth.so.0:_ZNK8osgEarth8Geometry14getOrientationEv
libosgEarth.so.0:_ZNK8osgEarth8Geometry15createVec3ArrayEv
libosgEarth.so.0:_ZNK8osgEarth8Geometry16createVec3dArrayEv
libosgEarth.so.0:_ZNK8osgEarth8Geometry18getTotalPointCountEv
libosgEarth.so.0:_ZNK8osgEarth8Geometry4cropEPKNS_7PolygonERN3osg7ref_ptrIS0_EE
libosgEarth.so.0:_ZNK8osgEarth8Geometry4cropERKNS_6BoundsERN3osg7ref_ptrIS0_EE
libosgEarth.so.0:_ZNK8osgEarth8Geometry6bufferEdRN3osg7ref_ptrIS0_EERKNS_16BufferParametersE
libosgEarth.so.0:_ZNK8osgEarth8Geometry7cloneAsERKNS0_4TypeE
libosgEarth.so.0:_ZNK8osgEarth8Geometry8geounionEPKS0_RN3osg7ref_ptrIS0_EE
libosgEarth.so.0:_ZNK8osgEarth8Geometry9getBoundsEv
libosgEarth.so.0:_ZNK8osgEarth8Geometry9getLengthEv
libosgEarth.so.0:_ZNK8osgEarth8Internal21CalloutImplementation7ElementltERKS2_
libosgEarth.so.0:_ZNK8osgEarth8LightGL35applyERN3osg5StateE
libosgEarth.so.0:_ZNK8osgEarth8Registry14getObjectIndexEv
libosgEarth.so.0:_ZNK8osgEarth8Registry15getCapabilitiesEv
libosgEarth.so.0:_ZNK8osgEarth8Registry15getDefaultCacheEv
libosgEarth.so.0:_ZNK8osgEarth8Registry15getNamedProfileERKNSt7__cxx1112basic_stringIcSt11char_traitsIcESaIcEEE
libosgEarth.so.0:_ZNK8osgEarth8Registry15hasCapabilitiesEv
libosgEarth.so.0:_ZNK8osgEarth8Registry16getShaderFactoryEv
libosgEarth.so.0:_ZNK8osgEarth8Registry16getStateSetCacheEv
libosgEarth.so.0:_ZNK8osgEarth8Registry16releaseGLObjectsEPN3osg5StateE
libosgEarth.so.0:_ZNK8osgEarth8Registry17getDefaultOptionsEv
libosgEarth.so.0:_ZNK8osgEarth8Registry18defaultCachePolicyEv
libosgEarth.so.0:_ZNK8osgEarth8Registry18getShaderGeneratorEv
libosgEarth.so.0:_ZNK8osgEarth8Registry18getURIReadCallbackEv
libosgEarth.so.0:_ZNK8osgEarth8Registry18resolveCachePolicyERNS_8optionalINS_11CachePolicyEEE
libosgEarth.so.0:_ZNK8osgEarth8Registry19getDevicePixelRatioEv
libosgEarth.so.0:_ZNK8osgEarth8Registry19overrideCachePolicyEv
libosgEarth.so.0:_ZNK8osgEarth8Registry21getAsyncMemoryManagerEv
libosgEarth.so.0:_ZNK8osgEarth8Registry24getGlobalGeodeticProfileEv
libosgEarth.so.0:_ZNK8osgEarth8Registry24getGlobalMercatorProfileEv
libosgEarth.so.0:_ZNK8osgEarth8Registry25getDefaultCacheDriverNameB5cxx11Ev
libosgEarth.so.0:_ZNK8osgEarth8Registry27getSphericalMercatorProfileEv
libosgEarth.so.0:_ZNK8osgEarth8Registry29getOffLimitsTextureImageUnitsEv
libosgEarth.so.0:_ZNK8osgEarth8Registry30getMaxNumberOfVertsPerDrawableEv
libosgEarth.so.0:_ZNK8osgEarth8Registry8getUnitsERKNSt7__cxx1112basic_stringIcSt11char_traitsIcESaIcEEE
libosgEarth.so.0:_ZNK8osgEarth9Ephemeris14getSunPositionERKNS_8DateTimeE
libosgEarth.so.0:_ZNK8osgEarth9Ephemeris15getMoonPositionERKNS_8DateTimeE
libosgEarth.so.0:_ZNK8osgEarth9Ephemeris17getECEFfromRADeclEddd
libosgEarth.so.0:_ZNK8osgEarth9Extension16getConfigOptionsEv
libosgEarth.so.0:_ZNK8osgEarth9GeoCircle10intersectsERKS0_
libosgEarth.so.0:_ZNK8osgEarth9GeoCircle9transformEPKNS_16SpatialReferenceE
libosgEarth.so.0:_ZNK8osgEarth9GeoCircle9transformEPKNS_16SpatialReferenceERS0_
libosgEarth.so.0:_ZNK8osgEarth9GeoCircleeqERKS0_
libosgEarth.so.0:_ZNK8osgEarth9GeoExtent10intersectsERKS0_b
libosgEarth.so.0:_ZNK8osgEarth9GeoExtent10normalizeXEd
libosgEarth.so.0:_ZNK8osgEarth9GeoExtent11getCentroidERNS_8GeoPointE
libosgEarth.so.0:_ZNK8osgEarth9GeoExtent11getCentroidERdS1_
libosgEarth.so.0:_ZNK8osgEarth9GeoExtent12isGeographicEv
libosgEarth.so.0:_ZNK8osgEarth9GeoExtent14createPolytopeERN3osg8PolytopeE
libosgEarth.so.0:_ZNK8osgEarth9GeoExtent15createScaleBiasERKS0_RN3osg7MatrixdE
libosgEarth.so.0:_ZNK8osgEarth9GeoExtent15createScaleBiasERKS0_RN3osg7MatrixfE
libosgEarth.so.0:_ZNK8osgEarth9GeoExtent19crossesAntimeridianEv
libosgEarth.so.0:_ZNK8osgEarth9GeoExtent19intersectionSameSRSERKS0_
libosgEarth.so.0:_ZNK8osgEarth9GeoExtent23splitAcrossAntimeridianERS0_S1_
libosgEarth.so.0:_ZNK8osgEarth9GeoExtent24computeBoundingGeoCircleEv
libosgEarth.so.0:_ZNK8osgEarth9GeoExtent25createWorldBoundingSphereEdd
libosgEarth.so.0:_ZNK8osgEarth9GeoExtent4areaEv
libosgEarth.so.0:_ZNK8osgEarth9GeoExtent6boundsEv
libosgEarth.so.0:_ZNK8osgEarth9GeoExtent7isValidEv
libosgEarth.so.0:_ZNK8osgEarth9GeoExtent8containsERKNS_6BoundsE
libosgEarth.so.0:_ZNK8osgEarth9GeoExtent8containsERKNS_8GeoPointE
libosgEarth.so.0:_ZNK8osgEarth9GeoExtent8containsERKS0_
libosgEarth.so.0:_ZNK8osgEarth9GeoExtent8containsEddPKNS_16SpatialReferenceE
libosgEarth.so.0:_ZNK8osgEarth9GeoExtent8toStringB5cxx11Ev
libosgEarth.so.0:_ZNK8osgEarth9GeoExtent9getBoundsERdS1_S1_S1_
libosgEarth.so.0:_ZNK8osgEarth9GeoExtent9transformEPKNS_16SpatialReferenceE
libosgEarth.so.0:_ZNK8osgEarth9GeoExtent9transformEPKNS_16SpatialReferenceERS0_
libosgEarth.so.0:_ZNK8osgEarth9GeoExtenteqERKS0_
libosgEarth.so.0:_ZNK8osgEarth9GeoExtentneERKS0_
libosgEarth.so.0:_ZNK8osgEarth9LabelNode9getConfigEv
libosgEarth.so.0:_ZNK8osgEarth9MaskLayer7Options9getConfigEv
libosgEarth.so.0:_ZNK8osgEarth9ModelNode9getConfigEv
libosgEarth.so.0:_ZNK8osgEarth9NormalMap12getCurvatureEjj
libosgEarth.so.0:_ZNK8osgEarth9NormalMap13getNormalByUVEdd
libosgEarth.so.0:_ZNK8osgEarth9NormalMap9getNormalEjj
libosgEarth.so.0:_ZNK8osgEarth9PlaceNode9getConfigEv
libosgEarth.so.0:_ZNK8osgEarth9Segment2d12unrotateTo3DERKN3osg4QuatE
libosgEarth.so.0:_ZNK8osgEarth9Segment2d13isPointOnLeftERKN3osg5Vec2dE
libosgEarth.so.0:_ZNK8osgEarth9Segment2d13isPointOnLeftERKN3osg5Vec3dE
libosgEarth.so.0:_ZNK8osgEarth9Segment2d14closestPointToERKN3osg5Vec3dE
libosgEarth.so.0:_ZNK8osgEarth9Segment2d17squaredDistanceToERKN3osg5Vec3dE
libosgEarth.so.0:_ZNK8osgEarth9Segment2d5angleERKS0_
libosgEarth.so.0:_ZNK8osgEarth9Segment2d9intersectERKNS_5Ray2dERN3osg5Vec2dE
libosgEarth.so.0:_ZNK8osgEarth9Segment2d9intersectERKNS_5Ray2dERN3osg5Vec3dE
libosgEarth.so.0:_ZNK8osgEarth9Segment2d9intersectERKNS_6Line2dERN3osg5Vec2dE
libosgEarth.so.0:_ZNK8osgEarth9Segment2d9intersectERKNS_6Line2dERN3osg5Vec3dE
libosgEarth.so.0:_ZNK8osgEarth9Segment2d9intersectERKS0_RN3osg5Vec2dE
libosgEarth.so.0:_ZNK8osgEarth9Segment2d9intersectERKS0_RN3osg5Vec3dE
libosgEarth.so.0:_ZNK8osgEarth9Threading10ThreadPool8getQueueEv
libosgEarth.so.0:_ZNK8osgEarth9TiXmlNode10FirstChildEPKc
libosgEarth.so.0:_ZNK8osgEarth9TiXmlNode11GetDocumentEv
libosgEarth.so.0:_ZNK8osgEarth9TiXmlNode11NextSiblingEPKc
libosgEarth.so.0:_ZNK8osgEarth9TiXmlNode15IterateChildrenEPKS0_
libosgEarth.so.0:_ZNK8osgEarth9TiXmlNode15IterateChildrenEPKcPKS0_
libosgEarth.so.0:_ZNK8osgEarth9TiXmlNode15PreviousSiblingEPKc
libosgEarth.so.0:_ZNK8osgEarth9TiXmlNode17FirstChildElementEPKc
libosgEarth.so.0:_ZNK8osgEarth9TiXmlNode17FirstChildElementEv
libosgEarth.so.0:_ZNK8osgEarth9TiXmlNode18NextSiblingElementEPKc
libosgEarth.so.0:_ZNK8osgEarth9TiXmlNode18NextSiblingElementEv
libosgEarth.so.0:_ZNK8osgEarth9TiXmlNode6CopyToEPS0_
libosgEarth.so.0:_ZNK8osgEarth9TiXmlNode9LastChildEPKc
libosgEarth.so.0:_ZNK8osgEarth9TiXmlText5BlankEv
libosgEarth.so.0:_ZNK8osgEarth9TiXmlText5CloneEv
libosgEarth.so.0:_ZNK8osgEarth9TiXmlText5PrintEP8_IO_FILEi
libosgEarth.so.0:_ZNK8osgEarth9TiXmlText6AcceptEPNS_12TiXmlVisitorE
libosgEarth.so.0:_ZNK8osgEarth9TiXmlText6CopyToEPS0_
libosgEarth.so.0:_ZNK8osgEarth9TileCache6Driver4readERKNS_3URIERKNS_7TileKeyERKNSt7__cxx1112basic_stringIcSt11char_traitsIcESaIcEEESF_PNS_16ProgressCallbackEPKN5osgDB7OptionsE
libosgEarth.so.0:_ZNK8osgEarth9TileCache7Options7writeToERNS_6ConfigE
libosgEarth.so.0:_ZNK8osgEarth9TileLayer10getProfileEv
libosgEarth.so.0:_ZNK8osgEarth9TileLayer11getMaxLevelEv
libosgEarth.so.0:_ZNK8osgEarth9TileLayer11getMinLevelEv
libosgEarth.so.0:_ZNK8osgEarth9TileLayer11getTileSizeEv
libosgEarth.so.0:_ZNK8osgEarth9TileLayer11mayHaveDataERKNS_7TileKeyE
libosgEarth.so.0:_ZNK8osgEarth9TileLayer14getDataExtentsEv
libosgEarth.so.0:_ZNK8osgEarth9TileLayer14getMetadataKeyB5cxx11EPKNS_7ProfileE
libosgEarth.so.0:_ZNK8osgEarth9TileLayer14getNoDataValueEv
libosgEarth.so.0:_ZNK8osgEarth9TileLayer15getMaxDataLevelEv
libosgEarth.so.0:_ZNK8osgEarth9TileLayer16CacheBinMetadata9getConfigEv
libosgEarth.so.0:_ZNK8osgEarth9TileLayer16getMaxResolutionEv
libosgEarth.so.0:_ZNK8osgEarth9TileLayer16getMaxValidValueEv
libosgEarth.so.0:_ZNK8osgEarth9TileLayer16getMinResolutionEv
libosgEarth.so.0:_ZNK8osgEarth9TileLayer16getMinValidValueEv
libosgEarth.so.0:_ZNK8osgEarth9TileLayer17isKeyInLegalRangeERKNS_7TileKeyE
libosgEarth.so.0:_ZNK8osgEarth9TileLayer18isKeyInVisualRangeERKNS_7TileKeyE
libosgEarth.so.0:_ZNK8osgEarth9TileLayer19getDataExtentsUnionEv
libosgEarth.so.0:_ZNK8osgEarth9TileLayer23getBestAvailableTileKeyERKNS_7TileKeyE
libosgEarth.so.0:_ZNK8osgEarth9TileLayer7Options9getConfigEv
libosgEarth.so.0:_ZNK8osgEarth9TileLayer8isCachedERKNS_7TileKeyE
libosgEarth.so.0:_ZNK8osgEarth9TileLayer9getExtentEv
libosgEarth.so.0:_ZNK8osgEarth9TileLayer9isDynamicEv
libosgEarth.so.0:_ZNK8osgEarth9TrackNode11getDrawableERKNSt7__cxx1112basic_stringIcSt11char_traitsIcESaIcEEE
libosgEarth.so.0:_ZNK8osgEarth9Viewpoint7getNodeEv
libosgEarth.so.0:_ZNK8osgEarth9Viewpoint7isValidEv
libosgEarth.so.0:_ZNK8osgEarth9Viewpoint8toStringB5cxx11Ev
libosgEarth.so.0:_ZNK8osgEarth9Viewpoint9getConfigEv
libosgEarth.so.0:_ZNK8osgEarth9WindLayer17getSharedStateSetEPN3osg11NodeVisitorE
libosgEarth.so.0:_ZNK8osgEarth9WindLayer7Options9getConfigEv
libosgEarth.so.0:_ZNK8osgEarth9WindLayer7getNodeEv
libosgEarth.so.0:_ZThn16_N8osgEarth7Contrib18MeasureToolHandler10setMapNodeEPNS_7MapNodeE
libosgEarth.so.0:_ZThn16_N8osgEarth7Contrib18MeasureToolHandlerD0Ev
libosgEarth.so.0:_ZThn16_N8osgEarth7Contrib18MeasureToolHandlerD1Ev
libosgEarth.so.0:_ZThn232_N8osgEarth11FeatureNode10setMapNodeEPNS_7MapNodeE
libosgEarth.so.0:_ZThn232_N8osgEarth12ImageOverlay10setMapNodeEPNS_7MapNodeE
libosgEarth.so.0:_ZThn232_N8osgEarth14AnnotationNode10setMapNodeEPNS_7MapNodeE
libosgEarth.so.0:_ZThn232_N8osgEarth14AnnotationNodeD0Ev
libosgEarth.so.0:_ZThn232_N8osgEarth14AnnotationNodeD1Ev
libosgEarth.so.0:_ZThn232_N8osgEarth15GeoPositionNode10setMapNodeEPNS_7MapNodeE
libosgEarth.so.0:_ZThn232_N8osgEarth16DepthOffsetGroup21setDepthOffsetOptionsERKNS_18DepthOffsetOptionsE
libosgEarth.so.0:_ZThn232_N8osgEarth17LocalGeometryNode10setMapNodeEPNS_7MapNodeE
libosgEarth.so.0:_ZThn232_N8osgEarth22FeatureSourceIndexNode11tagDrawableEPN3osg8DrawableEPNS_7FeatureE
libosgEarth.so.0:_ZThn232_N8osgEarth22FeatureSourceIndexNode15tagAllDrawablesEPN3osg4NodeEPNS_7FeatureE
libosgEarth.so.0:_ZThn232_N8osgEarth22FeatureSourceIndexNode7tagNodeEPN3osg4NodeEPNS_7FeatureE
libosgEarth.so.0:_ZThn232_N8osgEarth7Contrib21LinearLineOfSightNode10setMapNodeEPNS_7MapNodeE
libosgEarth.so.0:_ZThn232_N8osgEarth7Contrib21LinearLineOfSightNodeD0Ev
libosgEarth.so.0:_ZThn232_N8osgEarth7Contrib21LinearLineOfSightNodeD1Ev
libosgEarth.so.0:_ZThn232_N8osgEarth7Contrib21RadialLineOfSightNode10setMapNodeEPNS_7MapNodeE
libosgEarth.so.0:_ZThn232_N8osgEarth7Contrib21RadialLineOfSightNodeD0Ev
libosgEarth.so.0:_ZThn232_N8osgEarth7Contrib21RadialLineOfSightNodeD1Ev
libosgEarth.so.0:_ZThn232_N8osgEarth7DraggerD0Ev
libosgEarth.so.0:_ZThn232_N8osgEarth7DraggerD1Ev
libosgEarth.so.0:_ZThn232_NK8osgEarth16DepthOffsetGroup21getDepthOffsetOptionsEv
libosgEarth.so.0:_ZThn240_N8osgEarth4Util8Controls13ControlCanvasD0Ev
libosgEarth.so.0:_ZThn240_N8osgEarth4Util8Controls13ControlCanvasD1Ev
libosgEarth.so.0:_ZThn24_N8osgEarth11ObjectIndex11tagDrawableEPN3osg8DrawableEPNS1_10ReferencedE
libosgEarth.so.0:_ZThn24_N8osgEarth11ObjectIndex15tagAllDrawablesEPN3osg4NodeEPNS1_10ReferencedE
libosgEarth.so.0:_ZThn24_N8osgEarth11ObjectIndex7tagNodeEPN3osg4NodeEPNS1_10ReferencedE
libosgEarth.so.0:_ZThn24_NK8osgEarth16ProgressCallback10isCanceledEv
libosgEarth.so.0:_ZThn24_NK8osgEarth7Terrain9getHeightEPKNS_16SpatialReferenceEddPdS4_
libosgEarth.so.0:_ZThn24_NK8osgEarth7Terrain9getHeightEPN3osg4NodeEPKNS_16SpatialReferenceEddPdS7_
libosgEarth.so.0:_ZThn304_N8osgEarth17TerrainEngineNode15createTileModelEPKNS_3MapERKNS_7TileKeyERKNS_18CreateTileManifestEPNS_16ProgressCallbackE
libosgEarth.so.0:_ZThn312_N8osgEarth17TerrainEngineNodeD0Ev
libosgEarth.so.0:_ZThn312_N8osgEarth17TerrainEngineNodeD1Ev
libosgEarth.so.0:_ZThn4752_N8osgEarth13WMSImageLayer12playSequenceEv
libosgEarth.so.0:_ZThn4752_N8osgEarth13WMSImageLayer13pauseSequenceEv
libosgEarth.so.0:_ZThn4752_N8osgEarth13WMSImageLayer19seekToSequenceFrameEj
libosgEarth.so.0:_ZThn4752_NK8osgEarth13WMSImageLayer17isSequencePlayingEv
libosgEarth.so.0:_ZThn4752_NK8osgEarth13WMSImageLayer20getSequenceFrameInfoEv
libosgEarth.so.0:_ZThn4752_NK8osgEarth13WMSImageLayer23supportsSequenceControlEv
libosgEarth.so.0:_ZThn4752_NK8osgEarth13WMSImageLayer28getCurrentSequenceFrameIndexEPKN3osg10FrameStampE
libosgEarth.so.0:_ZThn4752_NK8osgEarth17FeatureImageLayer22renderFeaturesForStyleEPNS_4Util7SessionERKNS_5StyleERKNSt7__cxx114listIN3osg7ref_ptrINS_7FeatureEEESaISC_EEERKNS_9GeoExtentEPNS9_5ImageE
libosgEarth.so.0:_ZThn504_N8osgEarth12GeoTransform13objectDeletedEPv
libosgEarth.so.0:_ZThn504_N8osgEarth12GeoTransformD0Ev
libosgEarth.so.0:_ZThn504_N8osgEarth12GeoTransformD1Ev
libosgEarth.so.0:_ZThn72_N8osgEarth10MaskSourceD0Ev
libosgEarth.so.0:_ZThn72_N8osgEarth10MaskSourceD1Ev
libosgEarth.so.0:_ZThn72_N8osgEarth11ModelSourceD0Ev
libosgEarth.so.0:_ZThn72_N8osgEarth11ModelSourceD1Ev
libosgEarth.so.0:_ZThn8_N8osgEarth4Util16EarthManipulatorD0Ev
libosgEarth.so.0:_ZThn8_N8osgEarth4Util16EarthManipulatorD1Ev
libosgEarth.so.0:_ZThn8_N8osgEarth4Util9RTTPickerD0Ev
libosgEarth.so.0:_ZThn8_N8osgEarth4Util9RTTPickerD1Ev
libosgEarth.so.0:_ZThn8_N8osgEarth7Contrib18MeasureToolHandlerD0Ev
libosgEarth.so.0:_ZThn8_N8osgEarth7Contrib18MeasureToolHandlerD1Ev
libosgEarth.so.0:_ZTv0_n184_N8osgEarth16HorizonClipPlane21resizeGLObjectBuffersEj
libosgEarth.so.0:_ZTv0_n192_NK8osgEarth16HorizonClipPlane16releaseGLObjectsEPN3osg5StateE
libosgEarth.so.0:_ZTv0_n192_NK8osgEarth30LightSourceGL3UniformGenerator16releaseGLObjectsEPN3osg5StateE
libosgEarth.so.0:_ZTv0_n32_N8osgEarth4Util16EarthManipulatorD0Ev
libosgEarth.so.0:_ZTv0_n32_N8osgEarth4Util16EarthManipulatorD1Ev
libosgEarth.so.0:_ZTv0_n32_N8osgEarth4Util9RTTPickerD0Ev
libosgEarth.so.0:_ZTv0_n32_N8osgEarth4Util9RTTPickerD1Ev
libosgEarth.so.0:_ZTv0_n32_N8osgEarth7Contrib10TileSourceD0Ev
libosgEarth.so.0:_ZTv0_n32_N8osgEarth7Contrib10TileSourceD1Ev
libosgEarth.so.0:_ZTv0_n32_N8osgEarth7Contrib18MeasureToolHandlerD0Ev
libosgEarth.so.0:_ZTv0_n32_N8osgEarth7Contrib18MeasureToolHandlerD1Ev
libosgEarth.so.0:_ZTv0_n72_N8osgEarth30LightSourceGL3UniformGenerator3runEPN3osg6ObjectES3_
libosgEarth.so.0:_ZTv0_n80_N8osgEarth4Util16EarthManipulatorD0Ev
libosgEarth.so.0:_ZTv0_n80_N8osgEarth4Util16EarthManipulatorD1Ev
libosgEarth.so.0:_ZTv0_n80_N8osgEarth4Util9RTTPickerD0Ev
libosgEarth.so.0:_ZTv0_n80_N8osgEarth4Util9RTTPickerD1Ev
libosgEarth.so.0:_ZTv0_n80_N8osgEarth7Contrib18MeasureToolHandlerD0Ev
libosgEarth.so.0:_ZTv0_n80_N8osgEarth7Contrib18MeasureToolHandlerD1Ev
libosgEarth.so.0:_ZlsRNSt7__cxx1112basic_stringIcSt11char_traitsIcESaIcEEERKN8osgEarth9TiXmlNodeE
libosgEarth.so.0:_ZlsRSoRKN8osgEarth4Util4Json5ValueE
libosgEarth.so.0:_ZlsRSoRKN8osgEarth9TiXmlNodeE
libosgEarth.so.0:_ZrsRSiRN8osgEarth4Util4Json5ValueE
libosgEarth.so.0:_ZrsRSiRN8osgEarth9TiXmlNodeE
libosgEarth.so.0:jcv_diagram_free
libosgEarth.so.0:jcv_diagram_generate
libosgEarth.so.0:jcv_diagram_generate_useralloc
libosgEarth.so.0:jcv_diagram_get_edges
libosgEarth.so.0:jcv_diagram_get_next_edge
libosgEarth.so.0:jcv_diagram_get_sites
libosgEarth.so.0:osgEarthGetLibraryName
libosgEarth.so.0:osgEarthGetSOVersion
libosgEarth.so.0:osgEarthGetVersion
libosgEarth.so.0:osgEarth_declutter
libosgEarth.so.0:osgdb_3dtiles
libosgEarth.so.0:osgdb_FeatureModel
libosgEarth.so.0:osgdb_GDALDEM
libosgEarth.so.0:osgdb_PowerlineModel
libosgEarth.so.0:osgdb_SHADERGEN_PL_EXTENSION
libosgEarth.so.0:osgdb_TFSFeatures
libosgEarth.so.0:osgdb_TiledFeatureModel
libosgEarth.so.0:osgdb_annotations
libosgEarth.so.0:osgdb_arcgisserverimage
libosgEarth.so.0:osgdb_arcgistilepackageimage
libosgEarth.so.0:osgdb_bingelevation
libosgEarth.so.0:osgdb_bingimage
libosgEarth.so.0:osgdb_cesiumion3dtiles
libosgEarth.so.0:osgdb_cesiumionimage
libosgEarth.so.0:osgdb_compositeelevation
libosgEarth.so.0:osgdb_compositeimage
libosgEarth.so.0:osgdb_compositelandcover
libosgEarth.so.0:osgdb_contourmap
libosgEarth.so.0:osgdb_debugimage
libosgEarth.so.0:osgdb_decalelevation
libosgEarth.so.0:osgdb_decalimage
libosgEarth.so.0:osgdb_decallandcover
libosgEarth.so.0:osgdb_elevation
libosgEarth.so.0:osgdb_elevation_constraint
libosgEarth.so.0:osgdb_elevationconstraint
libosgEarth.so.0:osgdb_feature_elevation
libosgEarth.so.0:osgdb_feature_image
libosgEarth.so.0:osgdb_feature_mask
libosgEarth.so.0:osgdb_feature_model
libosgEarth.so.0:osgdb_featureelevation
libosgEarth.so.0:osgdb_featureimage
libosgEarth.so.0:osgdb_featuremask
libosgEarth.so.0:osgdb_flattened_elevation
libosgEarth.so.0:osgdb_flattenedelevation
libosgEarth.so.0:osgdb_fractal_elevation
libosgEarth.so.0:osgdb_fractalelevation
libosgEarth.so.0:osgdb_gars_graticule
libosgEarth.so.0:osgdb_garsgraticule
libosgEarth.so.0:osgdb_gdalelevation
libosgEarth.so.0:osgdb_gdalimage
libosgEarth.so.0:osgdb_geodetic_graticule
libosgEarth.so.0:osgdb_geodeticgraticule
libosgEarth.so.0:osgdb_image
libosgEarth.so.0:osgdb_image_to_feature
libosgEarth.so.0:osgdb_imagetofeature
libosgEarth.so.0:osgdb_json
libosgEarth.so.0:osgdb_land_cover_dictionary
libosgEarth.so.0:osgdb_landcover
libosgEarth.so.0:osgdb_landcoverdictionary
libosgEarth.so.0:osgdb_mbtileselevation
libosgEarth.so.0:osgdb_mbtilesimage
libosgEarth.so.0:osgdb_mgrs_graticule
libosgEarth.so.0:osgdb_mgrsgraticule
libosgEarth.so.0:osgdb_model
libosgEarth.so.0:osgdb_mvtfeatures
libosgEarth.so.0:osgdb_ocean
libosgEarth.so.0:osgdb_ogrfeatures
libosgEarth.so.0:osgdb_osgearth_cachebin
libosgEarth.so.0:osgdb_osgearth_decluttering
libosgEarth.so.0:osgdb_osgearth_pseudo_fmg
libosgEarth.so.0:osgdb_osgearth_pseudo_pagednode
libosgEarth.so.0:osgdb_osgearth_pseudo_simple
libosgEarth.so.0:osgdb_osgearth_screen_space_layout
libosgEarth.so.0:osgdb_osgearth_screenspacelayout
libosgEarth.so.0:osgdb_simple_ocean
libosgEarth.so.0:osgdb_skyview
libosgEarth.so.0:osgdb_styles
libosgEarth.so.0:osgdb_stylesheet
libosgEarth.so.0:osgdb_threedtiles
libosgEarth.so.0:osgdb_tilecacheelevation
libosgEarth.so.0:osgdb_tilecacheimage
libosgEarth.so.0:osgdb_tmselevation
libosgEarth.so.0:osgdb_tmsimage
libosgEarth.so.0:osgdb_utm_graticule
libosgEarth.so.0:osgdb_video
libosgEarth.so.0:osgdb_wfsfeatures
libosgEarth.so.0:osgdb_wind
libosgEarth.so.0:osgdb_wmsimage
libosgEarth.so.0:osgdb_xml
libosgEarth.so.0:osgdb_xyzelevation
libosgEarth.so.0:osgdb_xyzfeatures
libosgEarth.so.0:osgdb_xyzimage
libosgEarth.so.0:osgearth_annotation_circle
libosgEarth.so.0:osgearth_annotation_ellipse
libosgEarth.so.0:osgearth_annotation_feature
libosgEarth.so.0:osgearth_annotation_imageoverlay
libosgEarth.so.0:osgearth_annotation_label
libosgEarth.so.0:osgearth_annotation_local_geometry
libosgEarth.so.0:osgearth_annotation_model
libosgEarth.so.0:osgearth_annotation_place
libosgEarth.so.0:osgearth_annotation_rectangle
libosgEarth.so.0:osgearth_simple_featurefilter_buffer
libosgEarth.so.0:osgearth_simple_featurefilter_convert
libosgEarth.so.0:osgearth_simple_featurefilter_resample
libosgEarth.so.0:osgearth_simple_featurefilter_script
libosgEarth.so.0:osgearth_simple_symbol_altitude
libosgEarth.so.0:osgearth_simple_symbol_bbox
libosgEarth.so.0:osgearth_simple_symbol_billboard
libosgEarth.so.0:osgearth_simple_symbol_coverage
libosgEarth.so.0:osgearth_simple_symbol_extrusion
libosgEarth.so.0:osgearth_simple_symbol_icon
libosgEarth.so.0:osgearth_simple_symbol_line
libosgEarth.so.0:osgearth_simple_symbol_model
libosgEarth.so.0:osgearth_simple_symbol_point
libosgEarth.so.0:osgearth_simple_symbol_polygon
libosgEarth.so.0:osgearth_simple_symbol_render
libosgEarth.so.0:osgearth_simple_symbol_skin
libosgEarth.so.0:osgearth_simple_symbol_text
libosgEarth.so.0:wrapper_serializer_ClampableNode
libosgEarth.so.0:wrapper_serializer_DrapeableNode
libosgEarth.so.0:wrapper_serializer_DummyObject
libosgEarth.so.0:wrapper_serializer_FeatureSourceIndexNode
libosgEarth.so.0:wrapper_serializer_InstallCameraUniform
libosgEarth.so.0:wrapper_serializer_LightGL3
libosgEarth.so.0:wrapper_serializer_LineDrawable
libosgEarth.so.0:wrapper_serializer_LineGroup
libosgEarth.so.0:wrapper_serializer_MaterialGL3
libosgEarth.so.0:wrapper_serializer_PlaceNode
libosgEarth.so.0:wrapper_serializer_PointDrawable
libosgEarth.so.0:wrapper_serializer_PointGroup
libosgEarth.so.0:wrapper_serializer_StringObject
libosgEarth.so.0:wrapper_serializer_TextureBuffer
libosgEarth.so.0:wrapper_serializer_VirtualProgram
libosgEarth.so.0:wrapper_serializer_osgEarth_Text
libosgEarthSplat.so.0:_ZN8osgEarth5Splat10AssetUsage7Options10fromConfigERKNS_6ConfigE
libosgEarthSplat.so.0:_ZN8osgEarth5Splat10GrassLayer4initEv
libosgEarthSplat.so.0:_ZN8osgEarth5Splat10GrassLayer7Options10fromConfigERKNS_6ConfigE
libosgEarthSplat.so.0:_ZN8osgEarth5Splat10SplatClassC1ERKNS_6ConfigE
libosgEarthSplat.so.0:_ZN8osgEarth5Splat10SplatClassC1Ev
libosgEarthSplat.so.0:_ZN8osgEarth5Splat10SplatClassC2ERKNS_6ConfigE
libosgEarthSplat.so.0:_ZN8osgEarth5Splat10SplatClassC2Ev
libosgEarthSplat.so.0:_ZN8osgEarth5Splat10SplatLayer10addedToMapEPKNS_3MapE
libosgEarthSplat.so.0:_ZN8osgEarth5Splat10SplatLayer14buildStateSetsEv
libosgEarthSplat.so.0:_ZN8osgEarth5Splat10SplatLayer14removedFromMapEPKNS_3MapE
libosgEarthSplat.so.0:_ZN8osgEarth5Splat10SplatLayer17setLandCoverLayerEPNS_14LandCoverLayerE
libosgEarthSplat.so.0:_ZN8osgEarth5Splat10SplatLayer19setTerrainResourcesEPNS_16TerrainResourcesE
libosgEarthSplat.so.0:_ZN8osgEarth5Splat10SplatLayer21resizeGLObjectBuffersEj
libosgEarthSplat.so.0:_ZN8osgEarth5Splat10SplatLayer22setLandCoverDictionaryEPNS_19LandCoverDictionaryE
libosgEarthSplat.so.0:_ZN8osgEarth5Splat10SplatLayer4initEv
libosgEarthSplat.so.0:_ZN8osgEarth5Splat10SplatLayer7Options10fromConfigERKNS_6ConfigE
libosgEarthSplat.so.0:_ZN8osgEarth5Splat11ZoneOptions10fromConfigERKNS_6ConfigE
libosgEarthSplat.so.0:_ZN8osgEarth5Splat12SplatCatalog10fromConfigERKNS_6ConfigE
libosgEarthSplat.so.0:_ZN8osgEarth5Splat12SplatCatalog21createSplatTextureDefEPKN5osgDB7OptionsERNS0_15SplatTextureDefE
libosgEarthSplat.so.0:_ZN8osgEarth5Splat12SplatCatalog4readERKNS_3URIEPKN5osgDB7OptionsE
libosgEarthSplat.so.0:_ZN8osgEarth5Splat12SplatCatalogC1Ev
libosgEarthSplat.so.0:_ZN8osgEarth5Splat12SplatCatalogC2Ev
libosgEarthSplat.so.0:_ZN8osgEarth5Splat14LandCoverGroup4initEv
libosgEarthSplat.so.0:_ZN8osgEarth5Splat14LandCoverGroup7Options10fromConfigERKNS_6ConfigE
libosgEarthSplat.so.0:_ZN8osgEarth5Splat14SplatRangeDataC1ERKNS_6ConfigE
libosgEarthSplat.so.0:_ZN8osgEarth5Splat14SplatRangeDataC1Ev
libosgEarthSplat.so.0:_ZN8osgEarth5Splat14SplatRangeDataC2ERKNS_6ConfigE
libosgEarthSplat.so.0:_ZN8osgEarth5Splat14SplatRangeDataC2Ev
libosgEarthSplat.so.0:_ZN8osgEarth5Splat15SplatDetailDataC1ERKNS_6ConfigE
libosgEarthSplat.so.0:_ZN8osgEarth5Splat15SplatDetailDataC1Ev
libosgEarthSplat.so.0:_ZN8osgEarth5Splat15SplatDetailDataC2ERKNS_6ConfigE
libosgEarthSplat.so.0:_ZN8osgEarth5Splat15SplatDetailDataC2Ev
libosgEarthSplat.so.0:_ZN8osgEarth5Splat15SplatTextureDef21resizeGLObjectBuffersEj
libosgEarthSplat.so.0:_ZN8osgEarth5Splat16GroundCoverLayer10addedToMapEPKNS_3MapE
libosgEarthSplat.so.0:_ZN8osgEarth5Splat16GroundCoverLayer10loadAssetsEv
libosgEarthSplat.so.0:_ZN8osgEarth5Splat16GroundCoverLayer11setMaxAlphaEf
libosgEarthSplat.so.0:_ZN8osgEarth5Splat16GroundCoverLayer12setMaskLayerEPNS_10ImageLayerE
libosgEarthSplat.so.0:_ZN8osgEarth5Splat16GroundCoverLayer13setColorLayerEPNS_10ImageLayerE
libosgEarthSplat.so.0:_ZN8osgEarth5Splat16GroundCoverLayer14buildStateSetsEv
libosgEarthSplat.so.0:_ZN8osgEarth5Splat16GroundCoverLayer14removedFromMapEPKNS_3MapE
libosgEarthSplat.so.0:_ZN8osgEarth5Splat16GroundCoverLayer14setCastShadowsEb
libosgEarthSplat.so.0:_ZN8osgEarth5Splat16GroundCoverLayer17setLandCoverLayerEPNS_14LandCoverLayerE
libosgEarthSplat.so.0:_ZN8osgEarth5Splat16GroundCoverLayer18openImplementationEv
libosgEarthSplat.so.0:_ZN8osgEarth5Splat16GroundCoverLayer19closeImplementationEv
libosgEarthSplat.so.0:_ZN8osgEarth5Splat16GroundCoverLayer19setTerrainResourcesEPNS_16TerrainResourcesE
libosgEarthSplat.so.0:_ZN8osgEarth5Splat16GroundCoverLayer21resizeGLObjectBuffersEj
libosgEarthSplat.so.0:_ZN8osgEarth5Splat16GroundCoverLayer21setUseAlphaToCoverageEb
libosgEarthSplat.so.0:_ZN8osgEarth5Splat16GroundCoverLayer22setLandCoverDictionaryEPNS_19LandCoverDictionaryE
libosgEarthSplat.so.0:_ZN8osgEarth5Splat16GroundCoverLayer24createNodeImplementationERKNS_10PatchLayer11DrawContextE
libosgEarthSplat.so.0:_ZN8osgEarth5Splat16GroundCoverLayer4initEv
libosgEarthSplat.so.0:_ZN8osgEarth5Splat16GroundCoverLayer6setLODEj
libosgEarthSplat.so.0:_ZN8osgEarth5Splat16GroundCoverLayer7Options10fromConfigERKNS_6ConfigE
libosgEarthSplat.so.0:_ZN8osgEarth5Splat16GroundCoverLayer8Renderer12UniformStateC1Ev
libosgEarthSplat.so.0:_ZN8osgEarth5Splat16GroundCoverLayer8Renderer12UniformStateC2Ev
libosgEarthSplat.so.0:_ZN8osgEarth5Splat16GroundCoverLayer8Renderer15applyLocalStateERN3osg10RenderInfoERNS2_9DrawStateE
libosgEarthSplat.so.0:_ZN8osgEarth5Splat16GroundCoverLayer8Renderer21resizeGLObjectBuffersEj
libosgEarthSplat.so.0:_ZN8osgEarth5Splat16GroundCoverLayer8Renderer4drawERN3osg10RenderInfoEPKNS_10PatchLayer9TileBatchE
libosgEarthSplat.so.0:_ZN8osgEarth5Splat16GroundCoverLayer8Renderer8drawTileERN3osg10RenderInfoERKNS_10PatchLayer11DrawContextE
libosgEarthSplat.so.0:_ZN8osgEarth5Splat16GroundCoverLayer8RendererC1EPS1_
libosgEarthSplat.so.0:_ZN8osgEarth5Splat16GroundCoverLayer8RendererC2EPS1_
libosgEarthSplat.so.0:_ZN8osgEarth5Splat16GroundCoverLayerD0Ev
libosgEarthSplat.so.0:_ZN8osgEarth5Splat16GroundCoverLayerD1Ev
libosgEarthSplat.so.0:_ZN8osgEarth5Splat16GroundCoverLayerD2Ev
libosgEarthSplat.so.0:_ZN8osgEarth5Splat16RoadSurfaceLayer10addedToMapEPKNS_3MapE
libosgEarthSplat.so.0:_ZN8osgEarth5Splat16RoadSurfaceLayer13setStyleSheetEPNS_10StyleSheetE
libosgEarthSplat.so.0:_ZN8osgEarth5Splat16RoadSurfaceLayer14removedFromMapEPKNS_3MapE
libosgEarthSplat.so.0:_ZN8osgEarth5Splat16RoadSurfaceLayer16setFeatureSourceEPNS_13FeatureSourceE
libosgEarthSplat.so.0:_ZN8osgEarth5Splat16RoadSurfaceLayer18openImplementationEv
libosgEarthSplat.so.0:_ZN8osgEarth5Splat16RoadSurfaceLayer21setFeatureBufferWidthERKNS_8DistanceE
libosgEarthSplat.so.0:_ZN8osgEarth5Splat16RoadSurfaceLayer4initEv
libosgEarthSplat.so.0:_ZN8osgEarth5Splat16RoadSurfaceLayer7Options10fromConfigERKNS_6ConfigE
libosgEarthSplat.so.0:_ZN8osgEarth5Splat16SplattingShadersC1Ev
libosgEarthSplat.so.0:_ZN8osgEarth5Splat16SplattingShadersC2Ev
libosgEarthSplat.so.0:_ZN8osgEarth5Splat18GroundCoverShadersC1Ev
libosgEarthSplat.so.0:_ZN8osgEarth5Splat18GroundCoverShadersC2Ev
libosgEarthSplat.so.0:_ZN8osgEarth5Splat24GroundCoverFeatureSource10addedToMapEPKNS_3MapE
libosgEarthSplat.so.0:_ZN8osgEarth5Splat24GroundCoverFeatureSource14removedFromMapEPKNS_3MapE
libosgEarthSplat.so.0:_ZN8osgEarth5Splat24GroundCoverFeatureSource18openImplementationEv
libosgEarthSplat.so.0:_ZN8osgEarth5Splat24GroundCoverFeatureSource19closeImplementationEv
libosgEarthSplat.so.0:_ZN8osgEarth5Splat24GroundCoverFeatureSource19setGroundCoverLayerEPNS0_16GroundCoverLayerE
libosgEarthSplat.so.0:_ZN8osgEarth5Splat24GroundCoverFeatureSource33createFeatureCursorImplementationERKNS_5QueryEPNS_16ProgressCallbackE
libosgEarthSplat.so.0:_ZN8osgEarth5Splat24GroundCoverFeatureSource4initEv
libosgEarthSplat.so.0:_ZN8osgEarth5Splat24GroundCoverFeatureSource7Options10fromConfigERKNS_6ConfigE
libosgEarthSplat.so.0:_ZN8osgEarth5Splat27GroundCoverFeatureGenerator10initializeEv
libosgEarthSplat.so.0:_ZN8osgEarth5Splat27GroundCoverFeatureGenerator10setFactoryEPNS_23TerrainTileModelFactoryE
libosgEarthSplat.so.0:_ZN8osgEarth5Splat27GroundCoverFeatureGenerator24addBillboardPropertyNameERKNSt7__cxx1112basic_stringIcSt11char_traitsIcESaIcEEE
libosgEarthSplat.so.0:_ZN8osgEarth5Splat27GroundCoverFeatureGenerator6setMapEPKNS_3MapE
libosgEarthSplat.so.0:_ZN8osgEarth5Splat27GroundCoverFeatureGenerator8setLayerEPNS0_16GroundCoverLayerE
libosgEarthSplat.so.0:_ZN8osgEarth5Splat27GroundCoverFeatureGeneratorC1Ev
libosgEarthSplat.so.0:_ZN8osgEarth5Splat27GroundCoverFeatureGeneratorC2Ev
libosgEarthSplat.so.0:_ZN8osgEarth5Splat4Zone21resizeGLObjectBuffersEj
libosgEarthSplat.so.0:_ZN8osgEarth5Splat4Zone9configureEPKNS_3MapEPKN5osgDB7OptionsE
libosgEarthSplat.so.0:_ZN8osgEarth5Splat4ZoneC1ERKNS0_11ZoneOptionsE
libosgEarthSplat.so.0:_ZN8osgEarth5Splat4ZoneC1Ev
libosgEarthSplat.so.0:_ZN8osgEarth5Splat4ZoneC2ERKNS0_11ZoneOptionsE
libosgEarthSplat.so.0:_ZN8osgEarth5Splat4ZoneC2Ev
libosgEarthSplat.so.0:_ZN8osgEarth5Splat7Surface12loadTexturesEPKNS_19LandCoverDictionaryEPKN5osgDB7OptionsE
libosgEarthSplat.so.0:_ZN8osgEarth5Splat7Surface19getOrCreateStateSetEv
libosgEarthSplat.so.0:_ZN8osgEarth5Splat7Surface21resizeGLObjectBuffersEj
libosgEarthSplat.so.0:_ZN8osgEarth5Splat7Surface9configureERKNS_13ConfigOptionsEPKNS_3MapEPKN5osgDB7OptionsE
libosgEarthSplat.so.0:_ZN8osgEarth5Splat7SurfaceC1Ev
libosgEarthSplat.so.0:_ZN8osgEarth5Splat7SurfaceC2Ev
libosgEarthSplat.so.0:_ZN8osgEarth5Splat9BiomeZone4initEv
libosgEarthSplat.so.0:_ZN8osgEarth5Splat9BiomeZone7Options10fromConfigERKNS_6ConfigE
libosgEarthSplat.so.0:_ZNK8osgEarth5Splat10AssetUsage7Options9getConfigEv
libosgEarthSplat.so.0:_ZNK8osgEarth5Splat10GrassLayer11loadShadersEPNS_14VirtualProgramEPKN5osgDB7OptionsE
libosgEarthSplat.so.0:_ZNK8osgEarth5Splat10GrassLayer14createGeometryEv
libosgEarthSplat.so.0:_ZNK8osgEarth5Splat10GrassLayer7Options9getConfigEv
libosgEarthSplat.so.0:_ZNK8osgEarth5Splat10SplatClass9getConfigEv
libosgEarthSplat.so.0:_ZNK8osgEarth5Splat10SplatLayer12ZoneSelectorclEPN3osg4NodeEPNS3_11NodeVisitorE
libosgEarthSplat.so.0:_ZNK8osgEarth5Splat10SplatLayer16releaseGLObjectsEPN3osg5StateE
libosgEarthSplat.so.0:_ZNK8osgEarth5Splat10SplatLayer7Options9getConfigEv
libosgEarthSplat.so.0:_ZNK8osgEarth5Splat10SplatLayer9getConfigEv
libosgEarthSplat.so.0:_ZNK8osgEarth5Splat11ZoneOptions9getConfigEv
libosgEarthSplat.so.0:_ZNK8osgEarth5Splat12SplatCatalog9getConfigEv
libosgEarthSplat.so.0:_ZNK8osgEarth5Splat14LandCoverGroup7Options9getConfigEv
libosgEarthSplat.so.0:_ZNK8osgEarth5Splat14SplatRangeData9getConfigEv
libosgEarthSplat.so.0:_ZNK8osgEarth5Splat15SplatDetailData9getConfigEv
libosgEarthSplat.so.0:_ZNK8osgEarth5Splat15SplatTextureDef16releaseGLObjectsEPN3osg5StateE
libosgEarthSplat.so.0:_ZNK8osgEarth5Splat16GroundCoverLayer11getMaxAlphaEv
libosgEarthSplat.so.0:_ZNK8osgEarth5Splat16GroundCoverLayer11loadShadersEPNS_14VirtualProgramEPKN5osgDB7OptionsE
libosgEarthSplat.so.0:_ZNK8osgEarth5Splat16GroundCoverLayer12ZoneSelectorclEPN3osg4NodeEPNS3_11NodeVisitorE
libosgEarthSplat.so.0:_ZNK8osgEarth5Splat16GroundCoverLayer12getMaskLayerEv
libosgEarthSplat.so.0:_ZNK8osgEarth5Splat16GroundCoverLayer13LayerAcceptor11acceptLayerERN3osg11NodeVisitorEPKNS3_6CameraE
libosgEarthSplat.so.0:_ZNK8osgEarth5Splat16GroundCoverLayer13LayerAcceptor9acceptKeyERKNS_7TileKeyE
libosgEarthSplat.so.0:_ZNK8osgEarth5Splat16GroundCoverLayer13getColorLayerEv
libosgEarthSplat.so.0:_ZNK8osgEarth5Splat16GroundCoverLayer14createGeometryEv
libosgEarthSplat.so.0:_ZNK8osgEarth5Splat16GroundCoverLayer14getCastShadowsEv
libosgEarthSplat.so.0:_ZNK8osgEarth5Splat16GroundCoverLayer15createLUTShaderEv
libosgEarthSplat.so.0:_ZNK8osgEarth5Splat16GroundCoverLayer15getZoneStateSetEj
libosgEarthSplat.so.0:_ZNK8osgEarth5Splat16GroundCoverLayer16releaseGLObjectsEPN3osg5StateE
libosgEarthSplat.so.0:_ZNK8osgEarth5Splat16GroundCoverLayer17getLandCoverLayerEv
libosgEarthSplat.so.0:_ZNK8osgEarth5Splat16GroundCoverLayer18createTextureAtlasEv
libosgEarthSplat.so.0:_ZNK8osgEarth5Splat16GroundCoverLayer21getUseAlphaToCoverageEv
libosgEarthSplat.so.0:_ZNK8osgEarth5Splat16GroundCoverLayer22getLandCoverDictionaryEv
libosgEarthSplat.so.0:_ZNK8osgEarth5Splat16GroundCoverLayer29shouldEnableTopDownBillboardsEv
libosgEarthSplat.so.0:_ZNK8osgEarth5Splat16GroundCoverLayer6getLODEv
libosgEarthSplat.so.0:_ZNK8osgEarth5Splat16GroundCoverLayer7Options9getConfigEv
libosgEarthSplat.so.0:_ZNK8osgEarth5Splat16GroundCoverLayer8Renderer16releaseGLObjectsEPN3osg5StateE
libosgEarthSplat.so.0:_ZNK8osgEarth5Splat16RoadSurfaceLayer13getStyleSheetEv
libosgEarthSplat.so.0:_ZNK8osgEarth5Splat16RoadSurfaceLayer16getFeatureSourceEv
libosgEarthSplat.so.0:_ZNK8osgEarth5Splat16RoadSurfaceLayer21getFeatureBufferWidthEv
libosgEarthSplat.so.0:_ZNK8osgEarth5Splat16RoadSurfaceLayer25createImageImplementationERKNS_7TileKeyEPNS_16ProgressCallbackE
libosgEarthSplat.so.0:_ZNK8osgEarth5Splat16RoadSurfaceLayer7Options9getConfigEv
libosgEarthSplat.so.0:_ZNK8osgEarth5Splat16RoadSurfaceLayer7getNodeEv
libosgEarthSplat.so.0:_ZNK8osgEarth5Splat16RoadSurfaceLayer9getConfigEv
libosgEarthSplat.so.0:_ZNK8osgEarth5Splat19NoiseTextureFactory6createEjj
libosgEarthSplat.so.0:_ZNK8osgEarth5Splat24GroundCoverFeatureSource19getGroundCoverLayerEv
libosgEarthSplat.so.0:_ZNK8osgEarth5Splat24GroundCoverFeatureSource7Options9getConfigEv
libosgEarthSplat.so.0:_ZNK8osgEarth5Splat27GroundCoverFeatureGenerator11getFeaturesERKNS_7TileKeyERNSt7__cxx114listIN3osg7ref_ptrINS_7FeatureEEESaISA_EEE
libosgEarthSplat.so.0:_ZNK8osgEarth5Splat27GroundCoverFeatureGenerator11getFeaturesERKNS_9GeoExtentERNSt7__cxx114listIN3osg7ref_ptrINS_7FeatureEEESaISA_EEE
libosgEarthSplat.so.0:_ZNK8osgEarth5Splat27GroundCoverFeatureGenerator9getStatusEv
libosgEarthSplat.so.0:_ZNK8osgEarth5Splat4Zone16releaseGLObjectsEPN3osg5StateE
libosgEarthSplat.so.0:_ZNK8osgEarth5Splat4Zone8containsERKN3osg5Vec3fE
libosgEarthSplat.so.0:_ZNK8osgEarth5Splat7Surface15createLUTBufferEPKNS_19LandCoverDictionaryE
libosgEarthSplat.so.0:_ZNK8osgEarth5Splat7Surface16releaseGLObjectsEPN3osg5StateE
libosgEarthSplat.so.0:_ZNK8osgEarth5Splat9BiomeZone17getLandCoverGroupEPKNS_14LandCoverClassE
libosgEarthSplat.so.0:_ZNK8osgEarth5Splat9BiomeZone7Options9getConfigEv
libosgEarthSplat.so.0:_ZNK8osgEarth5Splat9BiomeZone8containsERKN3osg5Vec3fE
libosgEarthSplat.so.0:_ZNK8osgEarth5Splat9BiomeZone8containsERKNS_8GeoPointE
libosgEarthSplat.so.0:osgdb_grass
libosgEarthSplat.so.0:osgdb_groundcover
libosgEarthSplat.so.0:osgdb_groundcoverfeatures
libosgEarthSplat.so.0:osgdb_road_surface
libosgEarthSplat.so.0:osgdb_roadsurface
libosgEarthSplat.so.0:osgdb_splat
libosgEarthSplat.so.0:osgdb_splat_groundcover
libosgEarthSplat.so.0:osgdb_splat_imagery
libosgEarthSplat.so.0:osgdb_splatimage
