libosgEarth.so.0:_Z10TiXmlFOpenPKcS0_
libosgEarth.so.0:_Z30wrapper_propfunc_osgEarth_TextPN5osgDB13ObjectWrapperE
libosgEarth.so.0:_ZN12TiXmlPrinter10VisitEnterERKN8osgEarth12TiXmlElementEPKNS0_14TiXmlAttributeE
libosgEarth.so.0:_ZN12TiXmlPrinter10VisitEnterERKN8osgEarth13TiXmlDocumentE
libosgEarth.so.0:_ZN12TiXmlPrinter5VisitERKN8osgEarth12TiXmlCommentE
libosgEarth.so.0:_ZN12TiXmlPrinter5VisitERKN8osgEarth12TiXmlUnknownE
libosgEarth.so.0:_ZN12TiXmlPrinter5VisitERKN8osgEarth16TiXmlDeclarationE
libosgEarth.so.0:_ZN12TiXmlPrinter5VisitERKN8osgEarth9TiXmlTextE
libosgEarth.so.0:_ZN12TiXmlPrinter9VisitExitERKN8osgEarth12TiXmlElementE
libosgEarth.so.0:_ZN12TiXmlPrinter9VisitExitERKN8osgEarth13TiXmlDocumentE
libosgEarth.so.0:_ZN16TiXmlParsingData5StampEPKc13TiXmlEncoding
libosgEarth.so.0:_ZN3osg28wrapper_propfunc_DummyObjectEPN5osgDB13ObjectWrapperE
libosgEarth.so.0:_ZN8osgEarth10DataExtentC1ERKNS_9GeoExtentE
libosgEarth.so.0:_ZN8osgEarth10DataExtentC1ERKNS_9GeoExtentERKNSt7__cxx1112basic_stringIcSt11char_traitsIcESaIcEEE
libosgEarth.so.0:_ZN8osgEarth10DataExtentC1ERKNS_9GeoExtentEj
libosgEarth.so.0:_ZN8osgEarth10DataExtentC1ERKNS_9GeoExtentEjRKNSt7__cxx1112basic_stringIcSt11char_traitsIcESaIcEEE
libosgEarth.so.0:_ZN8osgEarth10DataExtentC1ERKNS_9GeoExtentEjj
libosgEarth.so.0:_ZN8osgEarth10DataExtentC1ERKNS_9GeoExtentEjjRKNSt7__cxx1112basic_stringIcSt11char_traitsIcESaIcEEE
libosgEarth.so.0:_ZN8osgEarth10DataExtentC2ERKNS_9GeoExtentE
libosgEarth.so.0:_ZN8osgEarth10DataExtentC2ERKNS_9GeoExtentERKNSt7__cxx1112basic_stringIcSt11char_traitsIcESaIcEEE
libosgEarth.so.0:_ZN8osgEarth10DataExtentC2ERKNS_9GeoExtentEj
libosgEarth.so.0:_ZN8osgEarth10DataExtentC2ERKNS_9GeoExtentEjRKNSt7__cxx1112basic_stringIcSt11char_traitsIcESaIcEEE
libosgEarth.so.0:_ZN8osgEarth10DataExtentC2ERKNS_9GeoExtentEjj
libosgEarth.so.0:_ZN8osgEarth10DataExtentC2ERKNS_9GeoExtentEjjRKNSt7__cxx1112basic_stringIcSt11char_traitsIcESaIcEEE
libosgEarth.so.0:_ZN8osgEarth10FadeEffect11setMaxRangeEf
libosgEarth.so.0:_ZN8osgEarth10FadeEffect15setFadeDurationEf
libosgEarth.so.0:_ZN8osgEarth10FadeEffect22createStartTimeUniformEv
libosgEarth.so.0:_ZN8osgEarth10FadeEffect22setAttenuationDistanceEf
libosgEarth.so.0:_ZN8osgEarth10FadeEffectC1Ev
libosgEarth.so.0:_ZN8osgEarth10FadeEffectC2Ev
libosgEarth.so.0:_ZN8osgEarth10GeoLocator12createForKeyERKNS_7TileKeyERKNS_7MapInfoE
libosgEarth.so.0:_ZN8osgEarth10GeoLocator13setDataExtentERKNS_9GeoExtentE
libosgEarth.so.0:_ZN8osgEarth10GeoLocator15createForExtentERKNS_9GeoExtentERKNS_7MapInfoE
libosgEarth.so.0:_ZN8osgEarth10GeoLocator20createSameTypeForKeyERKNS_7TileKeyERKNS_7MapInfoE
libosgEarth.so.0:_ZN8osgEarth10GeoLocator23createSameTypeForExtentERKNS_9GeoExtentERKNS_7MapInfoE
libosgEarth.so.0:_ZN8osgEarth10GeoLocatorC1ERKN10osgTerrain7LocatorERKNS_9GeoExtentE
libosgEarth.so.0:_ZN8osgEarth10GeoLocatorC1ERKN10osgTerrain7LocatorERKNS_9GeoExtentES7_
libosgEarth.so.0:_ZN8osgEarth10GeoLocatorC1ERKNS_9GeoExtentE
libosgEarth.so.0:_ZN8osgEarth10GeoLocatorC1Ev
libosgEarth.so.0:_ZN8osgEarth10GeoLocatorC2ERKN10osgTerrain7LocatorERKNS_9GeoExtentE
libosgEarth.so.0:_ZN8osgEarth10GeoLocatorC2ERKN10osgTerrain7LocatorERKNS_9GeoExtentES7_
libosgEarth.so.0:_ZN8osgEarth10GeoLocatorC2ERKNS_9GeoExtentE
libosgEarth.so.0:_ZN8osgEarth10GeoLocatorC2Ev
libosgEarth.so.0:_ZN8osgEarth10HTTPClient10doDownloadERKNSt7__cxx1112basic_stringIcSt11char_traitsIcESaIcEEES8_
libosgEarth.so.0:_ZN8osgEarth10HTTPClient10doReadNodeERKNS_11HTTPRequestEPKN5osgDB7OptionsEPNS_16ProgressCallbackE
libosgEarth.so.0:_ZN8osgEarth10HTTPClient10getTimeoutEv
libosgEarth.so.0:_ZN8osgEarth10HTTPClient10globalInitEv
libosgEarth.so.0:_ZN8osgEarth10HTTPClient10readObjectERKNS_11HTTPRequestEPKN5osgDB7OptionsEPNS_16ProgressCallbackE
libosgEarth.so.0:_ZN8osgEarth10HTTPClient10readStringERKNS_11HTTPRequestEPKN5osgDB7OptionsEPNS_16ProgressCallbackE
libosgEarth.so.0:_ZN8osgEarth10HTTPClient10setTimeoutEl
libosgEarth.so.0:_ZN8osgEarth10HTTPClient11doReadImageERKNS_11HTTPRequestEPKN5osgDB7OptionsEPNS_16ProgressCallbackE
libosgEarth.so.0:_ZN8osgEarth10HTTPClient12doReadObjectERKNS_11HTTPRequestEPKN5osgDB7OptionsEPNS_16ProgressCallbackE
libosgEarth.so.0:_ZN8osgEarth10HTTPClient12doReadStringERKNS_11HTTPRequestEPKN5osgDB7OptionsEPNS_16ProgressCallbackE
libosgEarth.so.0:_ZN8osgEarth10HTTPClient12getUserAgentB5cxx11Ev
libosgEarth.so.0:_ZN8osgEarth10HTTPClient12setUserAgentERKNSt7__cxx1112basic_stringIcSt11char_traitsIcESaIcEEE
libosgEarth.so.0:_ZN8osgEarth10HTTPClient14getURLRewriterEv
libosgEarth.so.0:_ZN8osgEarth10HTTPClient14initializeImplEv
libosgEarth.so.0:_ZN8osgEarth10HTTPClient14setURLRewriterEPNS_11URLRewriterE
libosgEarth.so.0:_ZN8osgEarth10HTTPClient16getProxySettingsEv
libosgEarth.so.0:_ZN8osgEarth10HTTPClient16setProxySettingsERKNS_8optionalINS_13ProxySettingsEEE
libosgEarth.so.0:_ZN8osgEarth10HTTPClient17getConnectTimeoutEv
libosgEarth.so.0:_ZN8osgEarth10HTTPClient17setConnectTimeoutEl
libosgEarth.so.0:_ZN8osgEarth10HTTPClient20getCurlConfigHandlerEv
libosgEarth.so.0:_ZN8osgEarth10HTTPClient20setCurlConfighandlerEPNS_17CurlConfigHandlerE
libosgEarth.so.0:_ZN8osgEarth10HTTPClient3getERKNS_11HTTPRequestEPKN5osgDB7OptionsEPNS_16ProgressCallbackE
libosgEarth.so.0:_ZN8osgEarth10HTTPClient3getERKNSt7__cxx1112basic_stringIcSt11char_traitsIcESaIcEEEPKN5osgDB7OptionsEPNS_16ProgressCallbackE
libosgEarth.so.0:_ZN8osgEarth10HTTPClient8downloadERKNSt7__cxx1112basic_stringIcSt11char_traitsIcESaIcEEES8_
libosgEarth.so.0:_ZN8osgEarth10HTTPClient8readNodeERKNS_11HTTPRequestEPKN5osgDB7OptionsEPNS_16ProgressCallbackE
libosgEarth.so.0:_ZN8osgEarth10HTTPClient9getClientEv
libosgEarth.so.0:_ZN8osgEarth10HTTPClient9readImageERKNS_11HTTPRequestEPKN5osgDB7OptionsEPNS_16ProgressCallbackE
libosgEarth.so.0:_ZN8osgEarth10HTTPClientC1Ev
libosgEarth.so.0:_ZN8osgEarth10HTTPClientC2Ev
libosgEarth.so.0:_ZN8osgEarth10HTTPClientD0Ev
libosgEarth.so.0:_ZN8osgEarth10HTTPClientD1Ev
libosgEarth.so.0:_ZN8osgEarth10HTTPClientD2Ev
libosgEarth.so.0:_ZN8osgEarth10ImageLayer11createImageERKNS_7TileKeyEPNS_16ProgressCallbackE
libosgEarth.so.0:_ZN8osgEarth10ImageLayer11setAltitudeERKNS_8DistanceE
libosgEarth.so.0:_ZN8osgEarth10ImageLayer12fireCallbackEMNS_18ImageLayerCallbackEFvPS0_E
libosgEarth.so.0:_ZN8osgEarth10ImageLayer13assembleImageERKNS_7TileKeyEPNS_16ProgressCallbackE
libosgEarth.so.0:_ZN8osgEarth10ImageLayer14addColorFilterEPNS_11ColorFilterE
libosgEarth.so.0:_ZN8osgEarth10ImageLayer17removeColorFilterEPNS_11ColorFilterE
libosgEarth.so.0:_ZN8osgEarth10ImageLayer19setUseCreateTextureEv
libosgEarth.so.0:_ZN8osgEarth10ImageLayer20setTargetProfileHintEPKNS_7ProfileE
libosgEarth.so.0:_ZN8osgEarth10ImageLayer21getOrCreatePreCacheOpEv
libosgEarth.so.0:_ZN8osgEarth10ImageLayer23createImageInKeyProfileERKNS_7TileKeyEPNS_16ProgressCallbackE
libosgEarth.so.0:_ZN8osgEarth10ImageLayer25createImageFromTileSourceERKNS_7TileKeyEPNS_16ProgressCallbackE
libosgEarth.so.0:_ZN8osgEarth10ImageLayer25createImageImplementationERKNS_7TileKeyEPNS_16ProgressCallbackE
libosgEarth.so.0:_ZN8osgEarth10ImageLayer26createImageInNativeProfileERKNS_7TileKeyEPNS_16ProgressCallbackE
libosgEarth.so.0:_ZN8osgEarth10ImageLayer4initEv
libosgEarth.so.0:_ZN8osgEarth10ImageLayer4openEv
libosgEarth.so.0:_ZN8osgEarth10ImageLayerC1EPNS_17ImageLayerOptionsE
libosgEarth.so.0:_ZN8osgEarth10ImageLayerC1ERKNS_17ImageLayerOptionsE
libosgEarth.so.0:_ZN8osgEarth10ImageLayerC1ERKNS_17ImageLayerOptionsEPNS_10TileSourceE
libosgEarth.so.0:_ZN8osgEarth10ImageLayerC1ERKNSt7__cxx1112basic_stringIcSt11char_traitsIcESaIcEEERKNS_17TileSourceOptionsE
libosgEarth.so.0:_ZN8osgEarth10ImageLayerC1Ev
libosgEarth.so.0:_ZN8osgEarth10ImageLayerC2EPNS_17ImageLayerOptionsE
libosgEarth.so.0:_ZN8osgEarth10ImageLayerC2ERKNS_17ImageLayerOptionsE
libosgEarth.so.0:_ZN8osgEarth10ImageLayerC2ERKNS_17ImageLayerOptionsEPNS_10TileSourceE
libosgEarth.so.0:_ZN8osgEarth10ImageLayerC2ERKNSt7__cxx1112basic_stringIcSt11char_traitsIcESaIcEEERKNS_17TileSourceOptionsE
libosgEarth.so.0:_ZN8osgEarth10ImageLayerC2Ev
libosgEarth.so.0:_ZN8osgEarth10ImageUtils10canConvertEPKN3osg5ImageEjj
libosgEarth.so.0:_ZN8osgEarth10ImageUtils10cloneImageEPKN3osg5ImageE
libosgEarth.so.0:_ZN8osgEarth10ImageUtils10readStreamERSiPKN5osgDB7OptionsE
libosgEarth.so.0:_ZN8osgEarth10ImageUtils10sameFormatEPKN3osg5ImageES4_
libosgEarth.so.0:_ZN8osgEarth10ImageUtils10upSampleNNEPKN3osg5ImageEi
libosgEarth.so.0:_ZN8osgEarth10ImageUtils11PixelReader8setImageEPKN3osg5ImageE
libosgEarth.so.0:_ZN8osgEarth10ImageUtils11PixelReader8supportsEjj
libosgEarth.so.0:_ZN8osgEarth10ImageUtils11PixelReaderC1EPKN3osg5ImageE
libosgEarth.so.0:_ZN8osgEarth10ImageUtils11PixelReaderC2EPKN3osg5ImageE
libosgEarth.so.0:_ZN8osgEarth10ImageUtils11PixelWriter8supportsEjj
libosgEarth.so.0:_ZN8osgEarth10ImageUtils11PixelWriterC1EPN3osg5ImageE
libosgEarth.so.0:_ZN8osgEarth10ImageUtils11PixelWriterC2EPN3osg5ImageE
libosgEarth.so.0:_ZN8osgEarth10ImageUtils11resizeImageEPKN3osg5ImageEjjRNS1_7ref_ptrIS2_EEjb
libosgEarth.so.0:_ZN8osgEarth10ImageUtils12flattenImageEPN3osg5ImageERSt6vectorINS1_7ref_ptrIS2_EESaIS6_EE
libosgEarth.so.0:_ZN8osgEarth10ImageUtils12isCompressedEPKN3osg5ImageE
libosgEarth.so.0:_ZN8osgEarth10ImageUtils12isEmptyImageEPKN3osg5ImageEf
libosgEarth.so.0:_ZN8osgEarth10ImageUtils12isPowerOfTwoEPKN3osg5ImageE
libosgEarth.so.0:_ZN8osgEarth10ImageUtils13areEquivalentEPKN3osg5ImageES4_
libosgEarth.so.0:_ZN8osgEarth10ImageUtils13convertToRGB8EPKN3osg5ImageE
libosgEarth.so.0:_ZN8osgEarth10ImageUtils13createBumpMapEPKN3osg5ImageE
libosgEarth.so.0:_ZN8osgEarth10ImageUtils14convertToRGBA8EPKN3osg5ImageE
libosgEarth.so.0:_ZN8osgEarth10ImageUtils14copyAsSubImageEPKN3osg5ImageEPS2_ii
libosgEarth.so.0:_ZN8osgEarth10ImageUtils14isUnNormalizedEPKN3osg5ImageE
libosgEarth.so.0:_ZN8osgEarth10ImageUtils15activateMipMapsEPN3osg7TextureE
libosgEarth.so.0:_ZN8osgEarth10ImageUtils15bicubicUpsampleEPKN3osg5ImageEPS2_jj
libosgEarth.so.0:_ZN8osgEarth10ImageUtils15hasAlphaChannelEPKN3osg5ImageE
libosgEarth.so.0:_ZN8osgEarth10ImageUtils15hasTransparencyEPKN3osg5ImageEf
libosgEarth.so.0:_ZN8osgEarth10ImageUtils16createEmptyImageEjj
libosgEarth.so.0:_ZN8osgEarth10ImageUtils16createEmptyImageEv
libosgEarth.so.0:_ZN8osgEarth10ImageUtils17fixInternalFormatEPN3osg5ImageE
libosgEarth.so.0:_ZN8osgEarth10ImageUtils18isSingleColorImageEPKN3osg5ImageEf
libosgEarth.so.0:_ZN8osgEarth10ImageUtils18markAsUnNormalizedEPN3osg5ImageEb
libosgEarth.so.0:_ZN8osgEarth10ImageUtils19createOnePixelImageERKN3osg5Vec4fE
libosgEarth.so.0:_ZN8osgEarth10ImageUtils19featherAlphaRegionsEPN3osg5ImageEf
libosgEarth.so.0:_ZN8osgEarth10ImageUtils19replaceNoDataValuesEPN3osg5ImageERKNS_6BoundsEPKS2_S6_
libosgEarth.so.0:_ZN8osgEarth10ImageUtils20createSharpenedImageEPKN3osg5ImageE
libosgEarth.so.0:_ZN8osgEarth10ImageUtils22textureArrayCompatibleEPKN3osg5ImageES4_
libosgEarth.so.0:_ZN8osgEarth10ImageUtils24createMipmapBlendedImageEPKN3osg5ImageES4_
libosgEarth.so.0:_ZN8osgEarth10ImageUtils24getReaderWriterForStreamERSi
libosgEarth.so.0:_ZN8osgEarth10ImageUtils27buildNearestNeighborMipmapsEPKN3osg5ImageE
libosgEarth.so.0:_ZN8osgEarth10ImageUtils27convertToPremultipliedAlphaEPN3osg5ImageE
libosgEarth.so.0:_ZN8osgEarth10ImageUtils29computeTextureCompressionModeEPKN3osg5ImageERNS1_7Texture18InternalFormatModeE
libosgEarth.so.0:_ZN8osgEarth10ImageUtils29isFloatingPointInternalFormatEi
libosgEarth.so.0:_ZN8osgEarth10ImageUtils3mixEPN3osg5ImageEPKS2_f
libosgEarth.so.0:_ZN8osgEarth10ImageUtils7convertEPKN3osg5ImageEjj
libosgEarth.so.0:_ZN8osgEarth10ImageUtils9cropImageEPKN3osg5ImageEddddRdS5_S5_S5_
libosgEarth.so.0:_ZN8osgEarth10MapOptions10fromConfigERKNS_6ConfigE
libosgEarth.so.0:_ZN8osgEarth10MaskSource4openEPKN5osgDB7OptionsE
libosgEarth.so.0:_ZN8osgEarth10MaskSourceC1ERKNS_17MaskSourceOptionsE
libosgEarth.so.0:_ZN8osgEarth10MaskSourceC2ERKNS_17MaskSourceOptionsE
libosgEarth.so.0:_ZN8osgEarth10MaskSourceD0Ev
libosgEarth.so.0:_ZN8osgEarth10MaskSourceD1Ev
libosgEarth.so.0:_ZN8osgEarth10MaskSourceD2Ev
libosgEarth.so.0:_ZN8osgEarth10ModelLayer10addedToMapEPKNS_3MapE
libosgEarth.so.0:_ZN8osgEarth10ModelLayer12fireCallbackEMNS_18ModelLayerCallbackEFvPS0_E
libosgEarth.so.0:_ZN8osgEarth10ModelLayer14removedFromMapEPKNS_3MapE
libosgEarth.so.0:_ZN8osgEarth10ModelLayer18setLightingEnabledEb
libosgEarth.so.0:_ZN8osgEarth10ModelLayer23getOrCreateMaskBoundaryEfPKNS_16SpatialReferenceEPNS_16ProgressCallbackE
libosgEarth.so.0:_ZN8osgEarth10ModelLayer24setLightingEnabledNoLockEb
libosgEarth.so.0:_ZN8osgEarth10ModelLayer4initEv
libosgEarth.so.0:_ZN8osgEarth10ModelLayer4openEv
libosgEarth.so.0:_ZN8osgEarth10ModelLayerC1ERKNS_17ModelLayerOptionsE
libosgEarth.so.0:_ZN8osgEarth10ModelLayerC1ERKNS_17ModelLayerOptionsEPNS_11ModelSourceE
libosgEarth.so.0:_ZN8osgEarth10ModelLayerC1ERKNSt7__cxx1112basic_stringIcSt11char_traitsIcESaIcEEEPN3osg4NodeE
libosgEarth.so.0:_ZN8osgEarth10ModelLayerC1ERKNSt7__cxx1112basic_stringIcSt11char_traitsIcESaIcEEERKNS_18ModelSourceOptionsE
libosgEarth.so.0:_ZN8osgEarth10ModelLayerC1Ev
libosgEarth.so.0:_ZN8osgEarth10ModelLayerC2ERKNS_17ModelLayerOptionsE
libosgEarth.so.0:_ZN8osgEarth10ModelLayerC2ERKNS_17ModelLayerOptionsEPNS_11ModelSourceE
libosgEarth.so.0:_ZN8osgEarth10ModelLayerC2ERKNSt7__cxx1112basic_stringIcSt11char_traitsIcESaIcEEEPN3osg4NodeE
libosgEarth.so.0:_ZN8osgEarth10ModelLayerC2ERKNSt7__cxx1112basic_stringIcSt11char_traitsIcESaIcEEERKNS_18ModelSourceOptionsE
libosgEarth.so.0:_ZN8osgEarth10ModelLayerC2Ev
libosgEarth.so.0:_ZN8osgEarth10ModelLayerD0Ev
libosgEarth.so.0:_ZN8osgEarth10ModelLayerD1Ev
libosgEarth.so.0:_ZN8osgEarth10ModelLayerD2Ev
libosgEarth.so.0:_ZN8osgEarth10PatchLayer4initEv
libosgEarth.so.0:_ZN8osgEarth10PatchLayerC1EPNS_17PatchLayerOptionsE
libosgEarth.so.0:_ZN8osgEarth10PatchLayerC1Ev
libosgEarth.so.0:_ZN8osgEarth10PatchLayerC2EPNS_17PatchLayerOptionsE
libosgEarth.so.0:_ZN8osgEarth10PatchLayerC2Ev
libosgEarth.so.0:_ZN8osgEarth10PointGroup16getPointDrawableEj
libosgEarth.so.0:_ZN8osgEarth10PointGroup6importEPN3osg4NodeEb
libosgEarth.so.0:_ZN8osgEarth10PointGroup8optimizeEv
libosgEarth.so.0:_ZN8osgEarth10PointGroupC1ERKS0_RKN3osg6CopyOpE
libosgEarth.so.0:_ZN8osgEarth10PointGroupC1Ev
libosgEarth.so.0:_ZN8osgEarth10PointGroupC2ERKS0_RKN3osg6CopyOpE
libosgEarth.so.0:_ZN8osgEarth10PointGroupC2Ev
libosgEarth.so.0:_ZN8osgEarth10PointGroupD0Ev
libosgEarth.so.0:_ZN8osgEarth10PointGroupD1Ev
libosgEarth.so.0:_ZN8osgEarth10PointGroupD2Ev
libosgEarth.so.0:_ZN8osgEarth10PolyShader11setLocationENS_10ShaderComp16FunctionLocationE
libosgEarth.so.0:_ZN8osgEarth10PolyShader12lookUpShaderERKNSt7__cxx1112basic_stringIcSt11char_traitsIcESaIcEEES8_NS_10ShaderComp16FunctionLocationE
libosgEarth.so.0:_ZN8osgEarth10PolyShader15setShaderSourceERKNSt7__cxx1112basic_stringIcSt11char_traitsIcESaIcEEE
libosgEarth.so.0:_ZN8osgEarth10PolyShader21resizeGLObjectBuffersEj
libosgEarth.so.0:_ZN8osgEarth10PolyShader7prepareEv
libosgEarth.so.0:_ZN8osgEarth10PolyShaderC1EPN3osg6ShaderE
libosgEarth.so.0:_ZN8osgEarth10PolyShaderC1Ev
libosgEarth.so.0:_ZN8osgEarth10PolyShaderC2EPN3osg6ShaderE
libosgEarth.so.0:_ZN8osgEarth10PolyShaderC2Ev
libosgEarth.so.0:_ZN8osgEarth10TaskThread3runEv
libosgEarth.so.0:_ZN8osgEarth10TaskThread6cancelEv
libosgEarth.so.0:_ZN8osgEarth10TaskThreadC1EPNS_16TaskRequestQueueE
libosgEarth.so.0:_ZN8osgEarth10TaskThreadC2EPNS_16TaskRequestQueueE
libosgEarth.so.0:_ZN8osgEarth10TileSource10setProfileEPKNS_7ProfileE
libosgEarth.so.0:_ZN8osgEarth10TileSource11createImageERKNS_7TileKeyEPNS0_14ImageOperationEPNS_16ProgressCallbackE
libosgEarth.so.0:_ZN8osgEarth10TileSource11createImageERKNS_7TileKeyEPNS_16ProgressCallbackE
libosgEarth.so.0:_ZN8osgEarth10TileSource12getBlacklistEv
libosgEarth.so.0:_ZN8osgEarth10TileSource16setPixelsPerTileEj
libosgEarth.so.0:_ZN8osgEarth10TileSource16storeHeightFieldERKNS_7TileKeyEPKN3osg11HeightFieldEPNS_16ProgressCallbackE
libosgEarth.so.0:_ZN8osgEarth10TileSource17createHeightFieldERKNS_7TileKeyEPNS0_20HeightFieldOperationEPNS_16ProgressCallbackE
libosgEarth.so.0:_ZN8osgEarth10TileSource17createHeightFieldERKNS_7TileKeyEPNS_16ProgressCallbackE
libosgEarth.so.0:_ZN8osgEarth10TileSource21setDefaultL2CacheSizeEi
libosgEarth.so.0:_ZN8osgEarth10TileSource4openERKjPKN5osgDB7OptionsE
libosgEarth.so.0:_ZN8osgEarth10TileSourceC1ERKNS_17TileSourceOptionsE
libosgEarth.so.0:_ZN8osgEarth10TileSourceC2ERKNS_17TileSourceOptionsE
libosgEarth.so.0:_ZN8osgEarth10TileSourceD0Ev
libosgEarth.so.0:_ZN8osgEarth10TileSourceD1Ev
libosgEarth.so.0:_ZN8osgEarth10TileSourceD2Ev
libosgEarth.so.0:_ZN8osgEarth10URIContext10getHeadersB5cxx11Ev
libosgEarth.so.0:_ZN8osgEarth10URIContext5storeEPN5osgDB7OptionsE
libosgEarth.so.0:_ZN8osgEarth10URIContext9addHeaderERKNSt7__cxx1112basic_stringIcSt11char_traitsIcESaIcEEES8_
libosgEarth.so.0:_ZN8osgEarth10URIContextC1EPKN5osgDB7OptionsE
libosgEarth.so.0:_ZN8osgEarth10URIContextC1ERKNSt7__cxx1112basic_stringIcSt11char_traitsIcESaIcEEE
libosgEarth.so.0:_ZN8osgEarth10URIContextC1ERKS0_
libosgEarth.so.0:_ZN8osgEarth10URIContextC1Ev
libosgEarth.so.0:_ZN8osgEarth10URIContextC2EPKN5osgDB7OptionsE
libosgEarth.so.0:_ZN8osgEarth10URIContextC2ERKNSt7__cxx1112basic_stringIcSt11char_traitsIcESaIcEEE
libosgEarth.so.0:_ZN8osgEarth10URIContextC2ERKS0_
libosgEarth.so.0:_ZN8osgEarth10URIContextC2Ev
libosgEarth.so.0:_ZN8osgEarth10VideoLayer13createTextureERKNS_7TileKeyEPNS_16ProgressCallbackERN3osg7MatrixfE
libosgEarth.so.0:_ZN8osgEarth10VideoLayer4initEv
libosgEarth.so.0:_ZN8osgEarth10VideoLayer4openEv
libosgEarth.so.0:_ZN8osgEarth10VideoLayerC1ERKNS_17VideoLayerOptionsE
libosgEarth.so.0:_ZN8osgEarth10VideoLayerC1Ev
libosgEarth.so.0:_ZN8osgEarth10VideoLayerC2ERKNS_17VideoLayerOptionsE
libosgEarth.so.0:_ZN8osgEarth10VideoLayerC2Ev
libosgEarth.so.0:_ZN8osgEarth10XmlElement11getChildrenEv
libosgEarth.so.0:_ZN8osgEarth10XmlElement13addSubElementERKNSt7__cxx1112basic_stringIcSt11char_traitsIcESaIcEEES8_
libosgEarth.so.0:_ZN8osgEarth10XmlElement7setNameERKNSt7__cxx1112basic_stringIcSt11char_traitsIcESaIcEEE
libosgEarth.so.0:_ZN8osgEarth10XmlElement8getAttrsB5cxx11Ev
libosgEarth.so.0:_ZN8osgEarth10XmlElementC1ERKNS_6ConfigE
libosgEarth.so.0:_ZN8osgEarth10XmlElementC1ERKNSt7__cxx1112basic_stringIcSt11char_traitsIcESaIcEEE
libosgEarth.so.0:_ZN8osgEarth10XmlElementC1ERKNSt7__cxx1112basic_stringIcSt11char_traitsIcESaIcEEERKSt3mapIS6_S6_St4lessIS6_ESaISt4pairIS7_S6_EEE
libosgEarth.so.0:_ZN8osgEarth10XmlElementC2ERKNS_6ConfigE
libosgEarth.so.0:_ZN8osgEarth10XmlElementC2ERKNSt7__cxx1112basic_stringIcSt11char_traitsIcESaIcEEE
libosgEarth.so.0:_ZN8osgEarth10XmlElementC2ERKNSt7__cxx1112basic_stringIcSt11char_traitsIcESaIcEEERKSt3mapIS6_S6_St4lessIS6_ESaISt4pairIS7_S6_EEE
libosgEarth.so.0:_ZN8osgEarth10hashStringERKNSt7__cxx1112basic_stringIcSt11char_traitsIcESaIcEEE
libosgEarth.so.0:_ZN8osgEarth10startsWithERKNSt7__cxx1112basic_stringIcSt11char_traitsIcESaIcEEES7_bRKSt6locale
libosgEarth.so.0:_ZN8osgEarth11AsyncResultC1EPN3osg4NodeE
libosgEarth.so.0:_ZN8osgEarth11AsyncResultC2EPN3osg4NodeE
libosgEarth.so.0:_ZN8osgEarth11CacheDriverD0Ev
libosgEarth.so.0:_ZN8osgEarth11CacheDriverD1Ev
libosgEarth.so.0:_ZN8osgEarth11CacheDriverD2Ev
libosgEarth.so.0:_ZN8osgEarth11CachePolicy10fromConfigERKNS_6ConfigE
libosgEarth.so.0:_ZN8osgEarth11CachePolicy16mergeAndOverrideERKNS_8optionalIS0_EE
libosgEarth.so.0:_ZN8osgEarth11CachePolicy16mergeAndOverrideERKS0_
libosgEarth.so.0:_ZN8osgEarth11CachePolicyC1ERKNS0_5UsageE
libosgEarth.so.0:_ZN8osgEarth11CachePolicyC1ERKNS_6ConfigE
libosgEarth.so.0:_ZN8osgEarth11CachePolicyC1ERKS0_
libosgEarth.so.0:_ZN8osgEarth11CachePolicyC1Ev
libosgEarth.so.0:_ZN8osgEarth11CachePolicyC2ERKNS0_5UsageE
libosgEarth.so.0:_ZN8osgEarth11CachePolicyC2ERKNS_6ConfigE
libosgEarth.so.0:_ZN8osgEarth11CachePolicyC2ERKS0_
libosgEarth.so.0:_ZN8osgEarth11CachePolicyC2Ev
libosgEarth.so.0:_ZN8osgEarth11CachePolicyaSERKS0_
libosgEarth.so.0:_ZN8osgEarth11FadeOptionsC1ERKNS_6ConfigE
libosgEarth.so.0:_ZN8osgEarth11FadeOptionsC2ERKNS_6ConfigE
libosgEarth.so.0:_ZN8osgEarth11HTTPRequest10getHeadersB5cxx11Ev
libosgEarth.so.0:_ZN8osgEarth11HTTPRequest12addParameterERKNSt7__cxx1112basic_stringIcSt11char_traitsIcESaIcEEES8_
libosgEarth.so.0:_ZN8osgEarth11HTTPRequest12addParameterERKNSt7__cxx1112basic_stringIcSt11char_traitsIcESaIcEEEd
libosgEarth.so.0:_ZN8osgEarth11HTTPRequest12addParameterERKNSt7__cxx1112basic_stringIcSt11char_traitsIcESaIcEEEi
libosgEarth.so.0:_ZN8osgEarth11HTTPRequest15setLastModifiedERKNS_8DateTimeE
libosgEarth.so.0:_ZN8osgEarth11HTTPRequest9addHeaderERKNSt7__cxx1112basic_stringIcSt11char_traitsIcESaIcEEES8_
libosgEarth.so.0:_ZN8osgEarth11HTTPRequestC1ERKNSt7__cxx1112basic_stringIcSt11char_traitsIcESaIcEEE
libosgEarth.so.0:_ZN8osgEarth11HTTPRequestC1ERKS0_
libosgEarth.so.0:_ZN8osgEarth11HTTPRequestC2ERKNSt7__cxx1112basic_stringIcSt11char_traitsIcESaIcEEE
libosgEarth.so.0:_ZN8osgEarth11HTTPRequestC2ERKS0_
libosgEarth.so.0:_ZN8osgEarth11HorizonNode8traverseERN3osg11NodeVisitorE
libosgEarth.so.0:_ZN8osgEarth11HorizonNodeC1Ev
libosgEarth.so.0:_ZN8osgEarth11HorizonNodeC2Ev
libosgEarth.so.0:_ZN8osgEarth11ImageMosaic10getExtentsERdS1_S1_S1_
libosgEarth.so.0:_ZN8osgEarth11ImageMosaic11createImageEv
libosgEarth.so.0:_ZN8osgEarth11ImageMosaicC1Ev
libosgEarth.so.0:_ZN8osgEarth11ImageMosaicC2Ev
libosgEarth.so.0:_ZN8osgEarth11ImageMosaicD0Ev
libosgEarth.so.0:_ZN8osgEarth11ImageMosaicD1Ev
libosgEarth.so.0:_ZN8osgEarth11ImageMosaicD2Ev
libosgEarth.so.0:_ZN8osgEarth11LayerShader7installEPNS_5LayerEPNS_16TerrainResourcesE
libosgEarth.so.0:_ZN8osgEarth11LayerShaderC1ERKNS_13ShaderOptionsE
libosgEarth.so.0:_ZN8osgEarth11LayerShaderC2ERKNS_13ShaderOptionsE
libosgEarth.so.0:_ZN8osgEarth11LayerShaderD0Ev
libosgEarth.so.0:_ZN8osgEarth11LayerShaderD1Ev
libosgEarth.so.0:_ZN8osgEarth11LayerShaderD2Ev
libosgEarth.so.0:_ZN8osgEarth11MapCallback17onMapModelChangedERKNS_14MapModelChangeE
libosgEarth.so.0:_ZN8osgEarth11MapCallback18invokeOnLayerAddedEPKNS_3MapE
libosgEarth.so.0:_ZN8osgEarth11MapCallback20invokeOnLayerRemovedEPKNS_3MapE
libosgEarth.so.0:_ZN8osgEarth11ModelSource10createNodeEPKNS_3MapEPNS_16ProgressCallbackE
libosgEarth.so.0:_ZN8osgEarth11ModelSource4openEPKN5osgDB7OptionsE
libosgEarth.so.0:_ZN8osgEarth11ModelSourceC1ERKNS_18ModelSourceOptionsE
libosgEarth.so.0:_ZN8osgEarth11ModelSourceC2ERKNS_18ModelSourceOptionsE
libosgEarth.so.0:_ZN8osgEarth11ModelSourceD0Ev
libosgEarth.so.0:_ZN8osgEarth11ModelSourceD1Ev
libosgEarth.so.0:_ZN8osgEarth11ModelSourceD2Ev
libosgEarth.so.0:_ZN8osgEarth11ObjectIndex10insertImplEPN3osg10ReferencedE
libosgEarth.so.0:_ZN8osgEarth11ObjectIndex10removeImplEj
libosgEarth.so.0:_ZN8osgEarth11ObjectIndex11tagDrawableEPN3osg8DrawableEPNS1_10ReferencedE
libosgEarth.so.0:_ZN8osgEarth11ObjectIndex14updateObjectIDEPN3osg4NodeERSt3mapIjjSt4lessIjESaISt4pairIKjjEEEPNS1_10ReferencedE
libosgEarth.so.0:_ZN8osgEarth11ObjectIndex15tagAllDrawablesEPN3osg4NodeEPNS1_10ReferencedE
libosgEarth.so.0:_ZN8osgEarth11ObjectIndex15updateObjectIDsEPN3osg8DrawableERSt3mapIjjSt4lessIjESaISt4pairIKjjEEEPNS1_10ReferencedE
libosgEarth.so.0:_ZN8osgEarth11ObjectIndex25setObjectIDAtrribLocationEi
libosgEarth.so.0:_ZN8osgEarth11ObjectIndex6insertEPN3osg10ReferencedE
libosgEarth.so.0:_ZN8osgEarth11ObjectIndex6removeEj
libosgEarth.so.0:_ZN8osgEarth11ObjectIndex7tagNodeEPN3osg4NodeEPNS1_10ReferencedE
libosgEarth.so.0:_ZN8osgEarth11ObjectIndexC1Ev
libosgEarth.so.0:_ZN8osgEarth11ObjectIndexC2Ev
libosgEarth.so.0:_ZN8osgEarth11ProgramRepo21resizeGLObjectBuffersEj
libosgEarth.so.0:_ZN8osgEarth11ProgramRepo3addERKSt6vectorIPNS_10PolyShaderESaIS3_EERN3osg7ref_ptrINS8_7ProgramEEEji
libosgEarth.so.0:_ZN8osgEarth11ProgramRepo3useERKSt6vectorIPNS_10PolyShaderESaIS3_EEji
libosgEarth.so.0:_ZN8osgEarth11ProgramRepo4lockEv
libosgEarth.so.0:_ZN8osgEarth11ProgramRepo5pruneEjPN3osg5StateE
libosgEarth.so.0:_ZN8osgEarth11ProgramRepo6unlockEv
libosgEarth.so.0:_ZN8osgEarth11ProgramRepo7releaseEiPN3osg5StateE
libosgEarth.so.0:_ZN8osgEarth11ProgramRepoD0Ev
libosgEarth.so.0:_ZN8osgEarth11ProgramRepoD1Ev
libosgEarth.so.0:_ZN8osgEarth11ProgramRepoD2Ev
libosgEarth.so.0:_ZN8osgEarth11Serializers10PointGroup27wrapper_propfunc_PointGroupEPN5osgDB13ObjectWrapperE
libosgEarth.so.0:_ZN8osgEarth11Serializers11MaterialGL328wrapper_propfunc_MaterialGL3EPN5osgDB13ObjectWrapperE
libosgEarth.so.0:_ZN8osgEarth11Serializers12LineDrawable29wrapper_propfunc_LineDrawableEPN5osgDB13ObjectWrapperE
libosgEarth.so.0:_ZN8osgEarth11Serializers12StringObject29wrapper_propfunc_StringObjectEPN5osgDB13ObjectWrapperE
libosgEarth.so.0:_ZN8osgEarth11Serializers13ClampableNode30wrapper_propfunc_ClampableNodeEPN5osgDB13ObjectWrapperE
libosgEarth.so.0:_ZN8osgEarth11Serializers13DrapeableNode30wrapper_propfunc_DrapeableNodeEPN5osgDB13ObjectWrapperE
libosgEarth.so.0:_ZN8osgEarth11Serializers13PointDrawable30wrapper_propfunc_PointDrawableEPN5osgDB13ObjectWrapperE
libosgEarth.so.0:_ZN8osgEarth11Serializers13TextureBuffer30wrapper_propfunc_TextureBufferEPN5osgDB13ObjectWrapperE
libosgEarth.so.0:_ZN8osgEarth11Serializers26InstallViewportSizeUniform43wrapper_propfunc_InstallViewportSizeUniformEPN5osgDB13ObjectWrapperE
libosgEarth.so.0:_ZN8osgEarth11Serializers8LightGL325wrapper_propfunc_LightGL3EPN5osgDB13ObjectWrapperE
libosgEarth.so.0:_ZN8osgEarth11Serializers9LineGroup26wrapper_propfunc_LineGroupEPN5osgDB13ObjectWrapperE
libosgEarth.so.0:_ZN8osgEarth11TaskRequest3runEv
libosgEarth.so.0:_ZN8osgEarth11TaskRequest6cancelEv
libosgEarth.so.0:_ZN8osgEarth11TaskRequestC1Ef
libosgEarth.so.0:_ZN8osgEarth11TaskRequestC2Ef
libosgEarth.so.0:_ZN8osgEarth11TaskService13setNumThreadsEi
libosgEarth.so.0:_ZN8osgEarth11TaskService17adjustThreadCountEv
libosgEarth.so.0:_ZN8osgEarth11TaskService17areThreadsRunningEv
libosgEarth.so.0:_ZN8osgEarth11TaskService21removeFinishedThreadsEv
libosgEarth.so.0:_ZN8osgEarth11TaskService24waitforThreadsToCompleteEv
libosgEarth.so.0:_ZN8osgEarth11TaskService3addEPNS_11TaskRequestE
libosgEarth.so.0:_ZN8osgEarth11TaskService8setStampEi
libosgEarth.so.0:_ZN8osgEarth11TaskService9cancelAllEv
libosgEarth.so.0:_ZN8osgEarth11TaskServiceC1ERKNSt7__cxx1112basic_stringIcSt11char_traitsIcESaIcEEEij
libosgEarth.so.0:_ZN8osgEarth11TaskServiceC2ERKNSt7__cxx1112basic_stringIcSt11char_traitsIcESaIcEEEij
libosgEarth.so.0:_ZN8osgEarth11TaskServiceD0Ev
libosgEarth.so.0:_ZN8osgEarth11TaskServiceD1Ev
libosgEarth.so.0:_ZN8osgEarth11TaskServiceD2Ev
libosgEarth.so.0:_ZN8osgEarth11Tessellator18tessellateGeometryERN3osg8GeometryE
libosgEarth.so.0:_ZN8osgEarth11Tessellator19tessellatePrimitiveEPN3osg12PrimitiveSetEPNS1_13TemplateArrayINS1_5Vec3fELNS1_5Array4TypeE28ELi3ELi5126EEE
libosgEarth.so.0:_ZN8osgEarth11Tessellator19tessellatePrimitiveEjjPN3osg13TemplateArrayINS1_5Vec3fELNS1_5Array4TypeE28ELi3ELi5126EEE
libosgEarth.so.0:_ZN8osgEarth11Tessellator5isEarERKN3osg13TemplateArrayINS1_5Vec3fELNS1_5Array4TypeE28ELi3ELi5126EEERKSt6vectorIjSaIjEEjRb
libosgEarth.so.0:_ZN8osgEarth11Tessellator8isConvexERKN3osg13TemplateArrayINS1_5Vec3fELNS1_5Array4TypeE28ELi3ELi5126EEERKSt6vectorIjSaIjEEj
libosgEarth.so.0:_ZN8osgEarth11TileHandler10handleTileERKNS_7TileKeyERKNS_11TileVisitorE
libosgEarth.so.0:_ZN8osgEarth11TileVisitor10handleTileERKNS_7TileKeyE
libosgEarth.so.0:_ZN8osgEarth11TileVisitor10intersectsERKNS_9GeoExtentE
libosgEarth.so.0:_ZN8osgEarth11TileVisitor10processKeyERKNS_7TileKeyE
libosgEarth.so.0:_ZN8osgEarth11TileVisitor13resetProgressEv
libosgEarth.so.0:_ZN8osgEarth11TileVisitor14setTileHandlerEPNS_11TileHandlerE
libosgEarth.so.0:_ZN8osgEarth11TileVisitor17incrementProgressEj
libosgEarth.so.0:_ZN8osgEarth11TileVisitor19setProgressCallbackEPNS_16ProgressCallbackE
libosgEarth.so.0:_ZN8osgEarth11TileVisitor3runEPKNS_7ProfileE
libosgEarth.so.0:_ZN8osgEarth11TileVisitor8estimateEv
libosgEarth.so.0:_ZN8osgEarth11TileVisitor9addExtentERKNS_9GeoExtentE
libosgEarth.so.0:_ZN8osgEarth11TileVisitorC1EPNS_11TileHandlerE
libosgEarth.so.0:_ZN8osgEarth11TileVisitorC1Ev
libosgEarth.so.0:_ZN8osgEarth11TileVisitorC2EPNS_11TileHandlerE
libosgEarth.so.0:_ZN8osgEarth11TileVisitorC2Ev
libosgEarth.so.0:_ZN8osgEarth11URIAliasMap6insertERKNSt7__cxx1112basic_stringIcSt11char_traitsIcESaIcEEES8_
libosgEarth.so.0:_ZN8osgEarth11VisitorData5isSetERN3osg11NodeVisitorERKNSt7__cxx1112basic_stringIcSt11char_traitsIcESaIcEEE
libosgEarth.so.0:_ZN8osgEarth11VisitorData5storeERN3osg11NodeVisitorERKNSt7__cxx1112basic_stringIcSt11char_traitsIcESaIcEEEPNS1_10ReferencedE
libosgEarth.so.0:_ZN8osgEarth11VisitorData6_fetchERN3osg11NodeVisitorERKNSt7__cxx1112basic_stringIcSt11char_traitsIcESaIcEEE
libosgEarth.so.0:_ZN8osgEarth11VisitorData6removeERN3osg11NodeVisitorERKNSt7__cxx1112basic_stringIcSt11char_traitsIcESaIcEEE
libosgEarth.so.0:_ZN8osgEarth11XmlDocument4loadERKNS_3URIEPKN5osgDB7OptionsE
libosgEarth.so.0:_ZN8osgEarth11XmlDocument4loadERKNSt7__cxx1112basic_stringIcSt11char_traitsIcESaIcEEEPKN5osgDB7OptionsE
libosgEarth.so.0:_ZN8osgEarth11XmlDocument4loadERSiRKNS_10URIContextE
libosgEarth.so.0:_ZN8osgEarth11XmlDocumentC1ERKNS_6ConfigE
libosgEarth.so.0:_ZN8osgEarth11XmlDocumentC1Ev
libosgEarth.so.0:_ZN8osgEarth11XmlDocumentC2ERKNS_6ConfigE
libosgEarth.so.0:_ZN8osgEarth11XmlDocumentC2Ev
libosgEarth.so.0:_ZN8osgEarth11XmlDocumentD0Ev
libosgEarth.so.0:_ZN8osgEarth11XmlDocumentD1Ev
libosgEarth.so.0:_ZN8osgEarth11XmlDocumentD2Ev
libosgEarth.so.0:_ZN8osgEarth11ciReplaceInERNSt7__cxx1112basic_stringIcSt11char_traitsIcESaIcEEERKS5_S8_
libosgEarth.so.0:_ZN8osgEarth11getFullPathERKNSt7__cxx1112basic_stringIcSt11char_traitsIcESaIcEEES7_
libosgEarth.so.0:_ZN8osgEarth11getTempNameERKNSt7__cxx1112basic_stringIcSt11char_traitsIcESaIcEEES7_
libosgEarth.so.0:_ZN8osgEarth11getTempPathB5cxx11Ev
libosgEarth.so.0:_ZN8osgEarth11joinStringsERKSt6vectorINSt7__cxx1112basic_stringIcSt11char_traitsIcESaIcEEESaIS6_EEc
libosgEarth.so.0:_ZN8osgEarth12ArrayUniform10setElementEjRKN3osg5Vec3fE
libosgEarth.so.0:_ZN8osgEarth12ArrayUniform10setElementEjRKN3osg7MatrixdE
libosgEarth.so.0:_ZN8osgEarth12ArrayUniform10setElementEjb
libosgEarth.so.0:_ZN8osgEarth12ArrayUniform10setElementEjf
libosgEarth.so.0:_ZN8osgEarth12ArrayUniform10setElementEji
libosgEarth.so.0:_ZN8osgEarth12ArrayUniform10setElementEjj
libosgEarth.so.0:_ZN8osgEarth12ArrayUniform14ensureCapacityEj
libosgEarth.so.0:_ZN8osgEarth12ArrayUniform6attachERKNSt7__cxx1112basic_stringIcSt11char_traitsIcESaIcEEEN3osg7Uniform4TypeEPNS9_8StateSetEj
libosgEarth.so.0:_ZN8osgEarth12ArrayUniform6detachEv
libosgEarth.so.0:_ZN8osgEarth12ArrayUniformC1ERKNSt7__cxx1112basic_stringIcSt11char_traitsIcESaIcEEEN3osg7Uniform4TypeEPNS9_8StateSetEj
libosgEarth.so.0:_ZN8osgEarth12ArrayUniformC2ERKNSt7__cxx1112basic_stringIcSt11char_traitsIcESaIcEEEN3osg7Uniform4TypeEPNS9_8StateSetEj
libosgEarth.so.0:_ZN8osgEarth12CacheFactory6createERKNS_12CacheOptionsE
libosgEarth.so.0:_ZN8osgEarth12CacheOptionsD0Ev
libosgEarth.so.0:_ZN8osgEarth12CacheOptionsD1Ev
libosgEarth.so.0:_ZN8osgEarth12CacheOptionsD2Ev
libosgEarth.so.0:_ZN8osgEarth12CapabilitiesC1Ev
libosgEarth.so.0:_ZN8osgEarth12CapabilitiesC2Ev
libosgEarth.so.0:_ZN8osgEarth12ElevationLOD11setMaxRangeEf
libosgEarth.so.0:_ZN8osgEarth12ElevationLOD11setMinRangeEf
libosgEarth.so.0:_ZN8osgEarth12ElevationLOD13setElevationsEdd
libosgEarth.so.0:_ZN8osgEarth12ElevationLOD15setMaxElevationEd
libosgEarth.so.0:_ZN8osgEarth12ElevationLOD15setMinElevationEd
libosgEarth.so.0:_ZN8osgEarth12ElevationLOD8traverseERN3osg11NodeVisitorE
libosgEarth.so.0:_ZN8osgEarth12ElevationLODC1EPKNS_16SpatialReferenceE
libosgEarth.so.0:_ZN8osgEarth12ElevationLODC1EPKNS_16SpatialReferenceEdd
libosgEarth.so.0:_ZN8osgEarth12ElevationLODC1ERKS0_RKN3osg6CopyOpE
libosgEarth.so.0:_ZN8osgEarth12ElevationLODC1Ev
libosgEarth.so.0:_ZN8osgEarth12ElevationLODC2EPKNS_16SpatialReferenceE
libosgEarth.so.0:_ZN8osgEarth12ElevationLODC2EPKNS_16SpatialReferenceEdd
libosgEarth.so.0:_ZN8osgEarth12ElevationLODC2ERKS0_RKN3osg6CopyOpE
libosgEarth.so.0:_ZN8osgEarth12ElevationLODC2Ev
libosgEarth.so.0:_ZN8osgEarth12ElevationLODD0Ev
libosgEarth.so.0:_ZN8osgEarth12ElevationLODD1Ev
libosgEarth.so.0:_ZN8osgEarth12ElevationLODD2Ev
libosgEarth.so.0:_ZN8osgEarth12GeoTransform10setTerrainEPNS_7TerrainE
libosgEarth.so.0:_ZN8osgEarth12GeoTransform11onTileAddedERKNS_7TileKeyEPN3osg4NodeERNS_22TerrainCallbackContextE
libosgEarth.so.0:_ZN8osgEarth12GeoTransform11setPositionERKNS_8GeoPointE
libosgEarth.so.0:_ZN8osgEarth12GeoTransform23setAutoRecomputeHeightsEb
libosgEarth.so.0:_ZN8osgEarth12GeoTransform24setComputeMatrixCallbackEPNS0_21ComputeMatrixCallbackE
libosgEarth.so.0:_ZN8osgEarth12GeoTransform8traverseERN3osg11NodeVisitorE
libosgEarth.so.0:_ZN8osgEarth12GeoTransformC1ERKS0_RKN3osg6CopyOpE
libosgEarth.so.0:_ZN8osgEarth12GeoTransformC1Ev
libosgEarth.so.0:_ZN8osgEarth12GeoTransformC2ERKS0_RKN3osg6CopyOpE
libosgEarth.so.0:_ZN8osgEarth12GeoTransformC2Ev
libosgEarth.so.0:_ZN8osgEarth12HTTPResponseC1ERKS0_
libosgEarth.so.0:_ZN8osgEarth12HTTPResponseC1El
libosgEarth.so.0:_ZN8osgEarth12HTTPResponseC2ERKS0_
libosgEarth.so.0:_ZN8osgEarth12HTTPResponseC2El
libosgEarth.so.0:_ZN8osgEarth12LayerOptions10fromConfigERKNS_6ConfigE
libosgEarth.so.0:_ZN8osgEarth12LayerOptions11mergeConfigERKNS_6ConfigE
libosgEarth.so.0:_ZN8osgEarth12LayerOptions11setDefaultsEv
libosgEarth.so.0:_ZN8osgEarth12LayerOptionsC1ERKNS_13ConfigOptionsE
libosgEarth.so.0:_ZN8osgEarth12LayerOptionsC1Ev
libosgEarth.so.0:_ZN8osgEarth12LayerOptionsC2ERKNS_13ConfigOptionsE
libosgEarth.so.0:_ZN8osgEarth12LayerOptionsC2Ev
libosgEarth.so.0:_ZN8osgEarth12LineDrawable10initializeEv
libosgEarth.so.0:_ZN8osgEarth12LineDrawable10pushVertexERKN3osg5Vec3fE
libosgEarth.so.0:_ZN8osgEarth12LineDrawable12setLineWidthEPN3osg8StateSetEfi
libosgEarth.so.0:_ZN8osgEarth12LineDrawable12setLineWidthEf
libosgEarth.so.0:_ZN8osgEarth12LineDrawable12setupShadersEv
libosgEarth.so.0:_ZN8osgEarth12LineDrawable13setLineSmoothEb
libosgEarth.so.0:_ZN8osgEarth12LineDrawable16setStippleFactorEi
libosgEarth.so.0:_ZN8osgEarth12LineDrawable16updateFirstCountEv
libosgEarth.so.0:_ZN8osgEarth12LineDrawable17importVertexArrayEPKN3osg13TemplateArrayINS1_5Vec3fELNS1_5Array4TypeE28ELi3ELi5126EEE
libosgEarth.so.0:_ZN8osgEarth12LineDrawable17setStipplePatternEt
libosgEarth.so.0:_ZN8osgEarth12LineDrawable21resizeGLObjectBuffersEj
libosgEarth.so.0:_ZN8osgEarth12LineDrawable5clearEv
libosgEarth.so.0:_ZN8osgEarth12LineDrawable5dirtyEv
libosgEarth.so.0:_ZN8osgEarth12LineDrawable6acceptERN3osg11NodeVisitorE
libosgEarth.so.0:_ZN8osgEarth12LineDrawable7reserveEj
libosgEarth.so.0:_ZN8osgEarth12LineDrawable7setModeEj
libosgEarth.so.0:_ZN8osgEarth12LineDrawable8allocateEj
libosgEarth.so.0:_ZN8osgEarth12LineDrawable8setColorERKN3osg5Vec4fE
libosgEarth.so.0:_ZN8osgEarth12LineDrawable8setColorEjRKN3osg5Vec4fE
libosgEarth.so.0:_ZN8osgEarth12LineDrawable8setCountEj
libosgEarth.so.0:_ZN8osgEarth12LineDrawable8setFirstEj
libosgEarth.so.0:_ZN8osgEarth12LineDrawable9setVertexEjRKN3osg5Vec3fE
libosgEarth.so.0:_ZN8osgEarth12LineDrawableC1ERKS0_RKN3osg6CopyOpE
libosgEarth.so.0:_ZN8osgEarth12LineDrawableC1Ej
libosgEarth.so.0:_ZN8osgEarth12LineDrawableC1Ev
libosgEarth.so.0:_ZN8osgEarth12LineDrawableC2ERKS0_RKN3osg6CopyOpE
libosgEarth.so.0:_ZN8osgEarth12LineDrawableC2Ej
libosgEarth.so.0:_ZN8osgEarth12LineDrawableC2Ev
libosgEarth.so.0:_ZN8osgEarth12LineDrawableD0Ev
libosgEarth.so.0:_ZN8osgEarth12LineDrawableD1Ev
libosgEarth.so.0:_ZN8osgEarth12LineDrawableD2Ev
libosgEarth.so.0:_ZN8osgEarth12ScopedMetricC1ERKNSt7__cxx1112basic_stringIcSt11char_traitsIcESaIcEEE
libosgEarth.so.0:_ZN8osgEarth12ScopedMetricC1ERKNSt7__cxx1112basic_stringIcSt11char_traitsIcESaIcEEERKNS_6ConfigE
libosgEarth.so.0:_ZN8osgEarth12ScopedMetricC1ERKNSt7__cxx1112basic_stringIcSt11char_traitsIcESaIcEEEiz
libosgEarth.so.0:_ZN8osgEarth12ScopedMetricC2ERKNSt7__cxx1112basic_stringIcSt11char_traitsIcESaIcEEE
libosgEarth.so.0:_ZN8osgEarth12ScopedMetricC2ERKNSt7__cxx1112basic_stringIcSt11char_traitsIcESaIcEEERKNS_6ConfigE
libosgEarth.so.0:_ZN8osgEarth12ScopedMetricC2ERKNSt7__cxx1112basic_stringIcSt11char_traitsIcESaIcEEEiz
libosgEarth.so.0:_ZN8osgEarth12ScopedMetricD1Ev
libosgEarth.so.0:_ZN8osgEarth12ScopedMetricD2Ev
libosgEarth.so.0:_ZN8osgEarth12ShaderLoader14getPragmaValueERKNSt7__cxx1112basic_stringIcSt11char_traitsIcESaIcEEES8_
libosgEarth.so.0:_ZN8osgEarth12ShaderLoader18getAllPragmaValuesERKNSt7__cxx1112basic_stringIcSt11char_traitsIcESaIcEEES8_RSt3setIS6_St4lessIS6_ESaIS6_EE
libosgEarth.so.0:_ZN8osgEarth12ShaderLoader4loadEPNS_14VirtualProgramERKNSt7__cxx1112basic_stringIcSt11char_traitsIcESaIcEEERKNS_13ShaderPackageEPKN5osgDB7OptionsE
libosgEarth.so.0:_ZN8osgEarth12ShaderLoader4loadERKNSt7__cxx1112basic_stringIcSt11char_traitsIcESaIcEEERKNS_13ShaderPackageEPKN5osgDB7OptionsE
libosgEarth.so.0:_ZN8osgEarth12ShaderLoader4loadERKNSt7__cxx1112basic_stringIcSt11char_traitsIcESaIcEEES8_PKN5osgDB7OptionsE
libosgEarth.so.0:_ZN8osgEarth12ShaderLoader5splitERKNSt7__cxx1112basic_stringIcSt11char_traitsIcESaIcEEERSt6vectorIS6_SaIS6_EE
libosgEarth.so.0:_ZN8osgEarth12ShaderLoader6unloadEPNS_14VirtualProgramERKNSt7__cxx1112basic_stringIcSt11char_traitsIcESaIcEEERKNS_13ShaderPackageEPKN5osgDB7OptionsE
libosgEarth.so.0:_ZN8osgEarth12ShaderMerger3addEPKN3osg6ShaderE
libosgEarth.so.0:_ZN8osgEarth12ShaderMerger5mergeEPN3osg6ShaderE
libosgEarth.so.0:_ZN8osgEarth12ShaderMerger5mergeEPN3osg7ProgramE
libosgEarth.so.0:_ZN8osgEarth12SimplexNoise3DotERKNS0_4GradEdd
libosgEarth.so.0:_ZN8osgEarth12SimplexNoise3DotERKNS0_4GradEddd
libosgEarth.so.0:_ZN8osgEarth12SimplexNoise3DotERKNS0_4GradEdddd
libosgEarth.so.0:_ZN8osgEarth12SimplexNoise4GradC1Eddd
libosgEarth.so.0:_ZN8osgEarth12SimplexNoise4GradC1Edddd
libosgEarth.so.0:_ZN8osgEarth12SimplexNoise4GradC2Eddd
libosgEarth.so.0:_ZN8osgEarth12SimplexNoise4GradC2Edddd
libosgEarth.so.0:_ZN8osgEarth12SimplexNoiseC1ERKS0_
libosgEarth.so.0:_ZN8osgEarth12SimplexNoiseC1Ev
libosgEarth.so.0:_ZN8osgEarth12SimplexNoiseC2ERKS0_
libosgEarth.so.0:_ZN8osgEarth12SimplexNoiseC2Ev
libosgEarth.so.0:_ZN8osgEarth12StringObject9setStringERKNSt7__cxx1112basic_stringIcSt11char_traitsIcESaIcEEE
libosgEarth.so.0:_ZN8osgEarth12StringObjectC1Ev
libosgEarth.so.0:_ZN8osgEarth12StringObjectC2Ev
libosgEarth.so.0:_ZN8osgEarth12StringObjectD0Ev
libosgEarth.so.0:_ZN8osgEarth12StringObjectD1Ev
libosgEarth.so.0:_ZN8osgEarth12StringObjectD2Ev
libosgEarth.so.0:_ZN8osgEarth12TerrainLayer10setProfileEPKNS_7ProfileE
libosgEarth.so.0:_ZN8osgEarth12TerrainLayer11dataExtentsEv
libosgEarth.so.0:_ZN8osgEarth12TerrainLayer11getCacheBinEPKNS_7ProfileE
libosgEarth.so.0:_ZN8osgEarth12TerrainLayer14setReadOptionsEPKN5osgDB7OptionsE
libosgEarth.so.0:_ZN8osgEarth12TerrainLayer16CacheBinMetadataC1ERKNS_6ConfigE
libosgEarth.so.0:_ZN8osgEarth12TerrainLayer16CacheBinMetadataC1ERKS1_
libosgEarth.so.0:_ZN8osgEarth12TerrainLayer16CacheBinMetadataC1Ev
libosgEarth.so.0:_ZN8osgEarth12TerrainLayer16CacheBinMetadataC2ERKNS_6ConfigE
libosgEarth.so.0:_ZN8osgEarth12TerrainLayer16CacheBinMetadataC2ERKS1_
libosgEarth.so.0:_ZN8osgEarth12TerrainLayer16CacheBinMetadataC2Ev
libosgEarth.so.0:_ZN8osgEarth12TerrainLayer16createTileSourceEv
libosgEarth.so.0:_ZN8osgEarth12TerrainLayer16dirtyDataExtentsEv
libosgEarth.so.0:_ZN8osgEarth12TerrainLayer18getSequenceControlEv
libosgEarth.so.0:_ZN8osgEarth12TerrainLayer18storeProxySettingsEPN5osgDB7OptionsE
libosgEarth.so.0:_ZN8osgEarth12TerrainLayer19getCacheBinMetadataEPKNS_7ProfileE
libosgEarth.so.0:_ZN8osgEarth12TerrainLayer20setTargetProfileHintEPKNS_7ProfileE
libosgEarth.so.0:_ZN8osgEarth12TerrainLayer21applyProfileOverridesEv
libosgEarth.so.0:_ZN8osgEarth12TerrainLayer22establishCacheSettingsEv
libosgEarth.so.0:_ZN8osgEarth12TerrainLayer23createAndOpenTileSourceEv
libosgEarth.so.0:_ZN8osgEarth12TerrainLayer32refreshTileSourceCachePolicyHintEPNS_10TileSourceE
libosgEarth.so.0:_ZN8osgEarth12TerrainLayer4initEv
libosgEarth.so.0:_ZN8osgEarth12TerrainLayer4openEv
libosgEarth.so.0:_ZN8osgEarth12TerrainLayer5closeEv
libosgEarth.so.0:_ZN8osgEarth12TerrainLayer7disableERKNSt7__cxx1112basic_stringIcSt11char_traitsIcESaIcEEE
libosgEarth.so.0:_ZN8osgEarth12TerrainLayerC1EPNS_19TerrainLayerOptionsE
libosgEarth.so.0:_ZN8osgEarth12TerrainLayerC1EPNS_19TerrainLayerOptionsEPNS_10TileSourceE
libosgEarth.so.0:_ZN8osgEarth12TerrainLayerC2EPNS_19TerrainLayerOptionsE
libosgEarth.so.0:_ZN8osgEarth12TerrainLayerC2EPNS_19TerrainLayerOptionsEPNS_10TileSourceE
libosgEarth.so.0:_ZN8osgEarth12TerrainLayerD0Ev
libosgEarth.so.0:_ZN8osgEarth12TerrainLayerD1Ev
libosgEarth.so.0:_ZN8osgEarth12TerrainLayerD2Ev
libosgEarth.so.0:_ZN8osgEarth12TiXmlComment5ParseEPKcP16TiXmlParsingData13TiXmlEncoding
libosgEarth.so.0:_ZN8osgEarth12TiXmlComment8StreamInEPSiPNSt7__cxx1112basic_stringIcSt11char_traitsIcESaIcEEE
libosgEarth.so.0:_ZN8osgEarth12TiXmlCommentC1ERKS0_
libosgEarth.so.0:_ZN8osgEarth12TiXmlCommentC2ERKS0_
libosgEarth.so.0:_ZN8osgEarth12TiXmlCommentaSERKS0_
libosgEarth.so.0:_ZN8osgEarth12TiXmlElement12SetAttributeEPKcS2_
libosgEarth.so.0:_ZN8osgEarth12TiXmlElement12SetAttributeEPKci
libosgEarth.so.0:_ZN8osgEarth12TiXmlElement12SetAttributeERKNSt7__cxx1112basic_stringIcSt11char_traitsIcESaIcEEES8_
libosgEarth.so.0:_ZN8osgEarth12TiXmlElement12SetAttributeERKNSt7__cxx1112basic_stringIcSt11char_traitsIcESaIcEEEi
libosgEarth.so.0:_ZN8osgEarth12TiXmlElement15RemoveAttributeEPKc
libosgEarth.so.0:_ZN8osgEarth12TiXmlElement18SetDoubleAttributeEPKcd
libosgEarth.so.0:_ZN8osgEarth12TiXmlElement18SetDoubleAttributeERKNSt7__cxx1112basic_stringIcSt11char_traitsIcESaIcEEEd
libosgEarth.so.0:_ZN8osgEarth12TiXmlElement5ParseEPKcP16TiXmlParsingData13TiXmlEncoding
libosgEarth.so.0:_ZN8osgEarth12TiXmlElement8StreamInEPSiPNSt7__cxx1112basic_stringIcSt11char_traitsIcESaIcEEE
libosgEarth.so.0:_ZN8osgEarth12TiXmlElement9ClearThisEv
libosgEarth.so.0:_ZN8osgEarth12TiXmlElement9ReadValueEPKcP16TiXmlParsingData13TiXmlEncoding
libosgEarth.so.0:_ZN8osgEarth12TiXmlElementC1EPKc
libosgEarth.so.0:_ZN8osgEarth12TiXmlElementC1ERKNSt7__cxx1112basic_stringIcSt11char_traitsIcESaIcEEE
libosgEarth.so.0:_ZN8osgEarth12TiXmlElementC1ERKS0_
libosgEarth.so.0:_ZN8osgEarth12TiXmlElementC2EPKc
libosgEarth.so.0:_ZN8osgEarth12TiXmlElementC2ERKNSt7__cxx1112basic_stringIcSt11char_traitsIcESaIcEEE
libosgEarth.so.0:_ZN8osgEarth12TiXmlElementC2ERKS0_
libosgEarth.so.0:_ZN8osgEarth12TiXmlElementD0Ev
libosgEarth.so.0:_ZN8osgEarth12TiXmlElementD1Ev
libosgEarth.so.0:_ZN8osgEarth12TiXmlElementD2Ev
libosgEarth.so.0:_ZN8osgEarth12TiXmlElementaSERKS0_
libosgEarth.so.0:_ZN8osgEarth12TiXmlUnknown5ParseEPKcP16TiXmlParsingData13TiXmlEncoding
libosgEarth.so.0:_ZN8osgEarth12TiXmlUnknown8StreamInEPSiPNSt7__cxx1112basic_stringIcSt11char_traitsIcESaIcEEE
libosgEarth.so.0:_ZN8osgEarth12VisibleLayer10setOpacityEf
libosgEarth.so.0:_ZN8osgEarth12VisibleLayer10setVisibleEb
libosgEarth.so.0:_ZN8osgEarth12VisibleLayer12fireCallbackEMNS_20VisibleLayerCallbackEFvPS0_E
libosgEarth.so.0:_ZN8osgEarth12VisibleLayer18initializeBlendingEv
libosgEarth.so.0:_ZN8osgEarth12VisibleLayer18setMaxVisibleRangeEf
libosgEarth.so.0:_ZN8osgEarth12VisibleLayer18setMinVisibleRangeEf
libosgEarth.so.0:_ZN8osgEarth12VisibleLayer19setAttenuationRangeEf
libosgEarth.so.0:_ZN8osgEarth12VisibleLayer27installDefaultOpacityShaderEv
libosgEarth.so.0:_ZN8osgEarth12VisibleLayer28initializeMinMaxRangeOpacityEv
libosgEarth.so.0:_ZN8osgEarth12VisibleLayer4initEv
libosgEarth.so.0:_ZN8osgEarth12VisibleLayer4openEv
libosgEarth.so.0:_ZN8osgEarth12VisibleLayerC1EPNS_19VisibleLayerOptionsE
libosgEarth.so.0:_ZN8osgEarth12VisibleLayerC2EPNS_19VisibleLayerOptionsE
libosgEarth.so.0:_ZN8osgEarth12VisibleLayerD0Ev
libosgEarth.so.0:_ZN8osgEarth12VisibleLayerD1Ev
libosgEarth.so.0:_ZN8osgEarth12VisibleLayerD2Ev
libosgEarth.so.0:_ZN8osgEarth12getGDALMutexEv
libosgEarth.so.0:_ZN8osgEarth12hashToStringERKNSt7__cxx1112basic_stringIcSt11char_traitsIcESaIcEEE
libosgEarth.so.0:_ZN8osgEarth13CacheSettings20integrateCachePolicyERKNS_8optionalINS_11CachePolicyEEE
libosgEarth.so.0:_ZN8osgEarth13CacheSettings3getEPKN5osgDB7OptionsE
libosgEarth.so.0:_ZN8osgEarth13CacheSettings5storeEPN5osgDB7OptionsE
libosgEarth.so.0:_ZN8osgEarth13CacheSettingsC1ERKS0_RKN3osg6CopyOpE
libosgEarth.so.0:_ZN8osgEarth13CacheSettingsC1Ev
libosgEarth.so.0:_ZN8osgEarth13CacheSettingsC2ERKS0_RKN3osg6CopyOpE
libosgEarth.so.0:_ZN8osgEarth13CacheSettingsC2Ev
libosgEarth.so.0:_ZN8osgEarth13ClampableNode13isDepthCameraEPKN3osg6CameraE
libosgEarth.so.0:_ZN8osgEarth13ClampableNode8traverseERN3osg11NodeVisitorE
libosgEarth.so.0:_ZN8osgEarth13ClampableNodeC1Ev
libosgEarth.so.0:_ZN8osgEarth13ClampableNodeC2Ev
libosgEarth.so.0:_ZN8osgEarth13ConfigOptionsD0Ev
libosgEarth.so.0:_ZN8osgEarth13ConfigOptionsD1Ev
libosgEarth.so.0:_ZN8osgEarth13ConfigOptionsD2Ev
libosgEarth.so.0:_ZN8osgEarth13DateTimeRange8expandByERKNS_8DateTimeE
libosgEarth.so.0:_ZN8osgEarth13DateTimeRange8expandByERKS0_
libosgEarth.so.0:_ZN8osgEarth13DirtyNotifier12removeParentEPS0_
libosgEarth.so.0:_ZN8osgEarth13DirtyNotifier8setDirtyEv
libosgEarth.so.0:_ZN8osgEarth13DirtyNotifier9addParentEPS0_
libosgEarth.so.0:_ZN8osgEarth13DirtyNotifierC1Ev
libosgEarth.so.0:_ZN8osgEarth13DirtyNotifierC2Ev
libosgEarth.so.0:_ZN8osgEarth13DrapeableNode17setDrapingEnabledEb
libosgEarth.so.0:_ZN8osgEarth13DrapeableNode8traverseERN3osg11NodeVisitorE
libosgEarth.so.0:_ZN8osgEarth13DrapeableNodeC1ERKS0_RKN3osg6CopyOpE
libosgEarth.so.0:_ZN8osgEarth13DrapeableNodeC1Ev
libosgEarth.so.0:_ZN8osgEarth13DrapeableNodeC2ERKS0_RKN3osg6CopyOpE
libosgEarth.so.0:_ZN8osgEarth13DrapeableNodeC2Ev
libosgEarth.so.0:_ZN8osgEarth13DrawInstanced15getMatrixVectorEPN3osg4NodeE
libosgEarth.so.0:_ZN8osgEarth13DrawInstanced22ConvertToDrawInstanced5applyERN3osg3LODE
libosgEarth.so.0:_ZN8osgEarth13DrawInstanced22ConvertToDrawInstanced5applyERN3osg4NodeE
libosgEarth.so.0:_ZN8osgEarth13DrawInstanced22ConvertToDrawInstanced5applyERN3osg8DrawableE
libosgEarth.so.0:_ZN8osgEarth13DrawInstanced22ConvertToDrawInstancedC1EjRKN3osg15BoundingBoxImplINS2_5Vec3fEEEbPNS2_13TextureBufferEi
libosgEarth.so.0:_ZN8osgEarth13DrawInstanced22ConvertToDrawInstancedC2EjRKN3osg15BoundingBoxImplINS2_5Vec3fEEEbPNS2_13TextureBufferEi
libosgEarth.so.0:_ZN8osgEarth13DrawInstanced30convertGraphToUseDrawInstancedEPN3osg5GroupE
libosgEarth.so.0:_ZN8osgEarth13DrawInstanced6removeEPN3osg8StateSetE
libosgEarth.so.0:_ZN8osgEarth13DrawInstanced7installEPN3osg8StateSetE
libosgEarth.so.0:_ZN8osgEarth13ElevationPool11setTileSizeEj
libosgEarth.so.0:_ZN8osgEarth13ElevationPool12getElevationERKNS_8GeoPointEj
libosgEarth.so.0:_ZN8osgEarth13ElevationPool13stopThreadingEv
libosgEarth.so.0:_ZN8osgEarth13ElevationPool14GetElevationOpC1EPS0_RKNS_8GeoPointEj
libosgEarth.so.0:_ZN8osgEarth13ElevationPool14GetElevationOpC2EPS0_RKNS_8GeoPointEj
libosgEarth.so.0:_ZN8osgEarth13ElevationPool14GetElevationOpclEPN3osg6ObjectE
libosgEarth.so.0:_ZN8osgEarth13ElevationPool14createEnvelopeEPKNS_16SpatialReferenceEj
libosgEarth.so.0:_ZN8osgEarth13ElevationPool16fetchTileFromMapERKNS_7TileKeyERKNS_20ElevationLayerVectorEPNS0_4TileE
libosgEarth.so.0:_ZN8osgEarth13ElevationPool18setElevationLayersERKNS_20ElevationLayerVectorE
libosgEarth.so.0:_ZN8osgEarth13ElevationPool5clearEv
libosgEarth.so.0:_ZN8osgEarth13ElevationPool6popMRUEv
libosgEarth.so.0:_ZN8osgEarth13ElevationPool6setMapEPKNS_3MapE
libosgEarth.so.0:_ZN8osgEarth13ElevationPool7getTileERKNS_7TileKeyERKNS_20ElevationLayerVectorERN3osg7ref_ptrINS0_4TileEEE
libosgEarth.so.0:_ZN8osgEarth13ElevationPool7tryTileERKNS_7TileKeyERKNS_20ElevationLayerVectorERN3osg7ref_ptrINS0_4TileEEE
libosgEarth.so.0:_ZN8osgEarth13ElevationPool9clearImplEv
libosgEarth.so.0:_ZN8osgEarth13ElevationPoolC1Ev
libosgEarth.so.0:_ZN8osgEarth13ElevationPoolC2Ev
libosgEarth.so.0:_ZN8osgEarth13ElevationPoolD0Ev
libosgEarth.so.0:_ZN8osgEarth13ElevationPoolD1Ev
libosgEarth.so.0:_ZN8osgEarth13ElevationPoolD2Ev
libosgEarth.so.0:_ZN8osgEarth13LODScaleGroup8traverseERN3osg11NodeVisitorE
libosgEarth.so.0:_ZN8osgEarth13LODScaleGroupC1Ev
libosgEarth.so.0:_ZN8osgEarth13LODScaleGroupC2Ev
libosgEarth.so.0:_ZN8osgEarth13ObserverGroup8traverseERN3osg11NodeVisitorE
libosgEarth.so.0:_ZN8osgEarth13ObserverGroupC1Ev
libosgEarth.so.0:_ZN8osgEarth13ObserverGroupC2Ev
libosgEarth.so.0:_ZN8osgEarth13PointDrawable10initializeEv
libosgEarth.so.0:_ZN8osgEarth13PointDrawable10pushVertexERKN3osg5Vec3fE
libosgEarth.so.0:_ZN8osgEarth13PointDrawable10setupStateEv
libosgEarth.so.0:_ZN8osgEarth13PointDrawable12setPointSizeEf
libosgEarth.so.0:_ZN8osgEarth13PointDrawable14setPointSmoothEb
libosgEarth.so.0:_ZN8osgEarth13PointDrawable16updateFirstCountEv
libosgEarth.so.0:_ZN8osgEarth13PointDrawable17importVertexArrayEPKN3osg13TemplateArrayINS1_5Vec3fELNS1_5Array4TypeE28ELi3ELi5126EEE
libosgEarth.so.0:_ZN8osgEarth13PointDrawable21resizeGLObjectBuffersEj
libosgEarth.so.0:_ZN8osgEarth13PointDrawable5clearEv
libosgEarth.so.0:_ZN8osgEarth13PointDrawable5dirtyEv
libosgEarth.so.0:_ZN8osgEarth13PointDrawable6acceptERN3osg11NodeVisitorE
libosgEarth.so.0:_ZN8osgEarth13PointDrawable7reserveEj
libosgEarth.so.0:_ZN8osgEarth13PointDrawable8allocateEj
libosgEarth.so.0:_ZN8osgEarth13PointDrawable8setColorERKN3osg5Vec4fE
libosgEarth.so.0:_ZN8osgEarth13PointDrawable8setColorEjRKN3osg5Vec4fE
libosgEarth.so.0:_ZN8osgEarth13PointDrawable8setCountEj
libosgEarth.so.0:_ZN8osgEarth13PointDrawable8setFirstEj
libosgEarth.so.0:_ZN8osgEarth13PointDrawable9setVertexEjRKN3osg5Vec3fE
libosgEarth.so.0:_ZN8osgEarth13PointDrawableC1ERKS0_RKN3osg6CopyOpE
libosgEarth.so.0:_ZN8osgEarth13PointDrawableC1Ev
libosgEarth.so.0:_ZN8osgEarth13PointDrawableC2ERKS0_RKN3osg6CopyOpE
libosgEarth.so.0:_ZN8osgEarth13PointDrawableC2Ev
libosgEarth.so.0:_ZN8osgEarth13PointDrawableD0Ev
libosgEarth.so.0:_ZN8osgEarth13PointDrawableD1Ev
libosgEarth.so.0:_ZN8osgEarth13PointDrawableD2Ev
libosgEarth.so.0:_ZN8osgEarth13ProxySettings11fromOptionsEPKN5osgDB7OptionsERNS_8optionalIS0_EE
libosgEarth.so.0:_ZN8osgEarth13ProxySettings11mergeConfigERKNS_6ConfigE
libosgEarth.so.0:_ZN8osgEarth13ProxySettingsC1ERKNS_6ConfigE
libosgEarth.so.0:_ZN8osgEarth13ProxySettingsC1ERKNSt7__cxx1112basic_stringIcSt11char_traitsIcESaIcEEEi
libosgEarth.so.0:_ZN8osgEarth13ProxySettingsC2ERKNS_6ConfigE
libosgEarth.so.0:_ZN8osgEarth13ProxySettingsC2ERKNSt7__cxx1112basic_stringIcSt11char_traitsIcESaIcEEEi
libosgEarth.so.0:_ZN8osgEarth13ShaderFactoryC1Ev
libosgEarth.so.0:_ZN8osgEarth13ShaderFactoryC2Ev
libosgEarth.so.0:_ZN8osgEarth13ShaderOptions10fromConfigERKNS_6ConfigE
libosgEarth.so.0:_ZN8osgEarth13ShaderPackage6defineERKNSt7__cxx1112basic_stringIcSt11char_traitsIcESaIcEEEb
libosgEarth.so.0:_ZN8osgEarth13ShaderPackage7replaceERKNSt7__cxx1112basic_stringIcSt11char_traitsIcESaIcEEES8_
libosgEarth.so.0:_ZN8osgEarth13StateSetCache10setMaxSizeEj
libosgEarth.so.0:_ZN8osgEarth13StateSetCache16pruneIfNecessaryEv
libosgEarth.so.0:_ZN8osgEarth13StateSetCache20consolidateStateSetsEPN3osg4NodeE
libosgEarth.so.0:_ZN8osgEarth13StateSetCache26consolidateStateAttributesEPN3osg4NodeE
libosgEarth.so.0:_ZN8osgEarth13StateSetCache5clearEv
libosgEarth.so.0:_ZN8osgEarth13StateSetCache5pruneEv
libosgEarth.so.0:_ZN8osgEarth13StateSetCache5shareERN3osg7ref_ptrINS1_14StateAttributeEEES5_b
libosgEarth.so.0:_ZN8osgEarth13StateSetCache5shareERN3osg7ref_ptrINS1_8StateSetEEES5_b
libosgEarth.so.0:_ZN8osgEarth13StateSetCache8optimizeEPN3osg4NodeE
libosgEarth.so.0:_ZN8osgEarth13StateSetCache9dumpStatsEv
libosgEarth.so.0:_ZN8osgEarth13StateSetCacheC1Ev
libosgEarth.so.0:_ZN8osgEarth13StateSetCacheC2Ev
libosgEarth.so.0:_ZN8osgEarth13StateSetCacheD0Ev
libosgEarth.so.0:_ZN8osgEarth13StateSetCacheD1Ev
libosgEarth.so.0:_ZN8osgEarth13StateSetCacheD2Ev
libosgEarth.so.0:_ZN8osgEarth13TiXmlDocument5ParseEPKcP16TiXmlParsingData13TiXmlEncoding
libosgEarth.so.0:_ZN8osgEarth13TiXmlDocument8LoadFileE13TiXmlEncoding
libosgEarth.so.0:_ZN8osgEarth13TiXmlDocument8LoadFileEP8_IO_FILE13TiXmlEncoding
libosgEarth.so.0:_ZN8osgEarth13TiXmlDocument8LoadFileEPKc13TiXmlEncoding
libosgEarth.so.0:_ZN8osgEarth13TiXmlDocument8SetErrorEiPKcP16TiXmlParsingData13TiXmlEncoding
libosgEarth.so.0:_ZN8osgEarth13TiXmlDocument8StreamInEPSiPNSt7__cxx1112basic_stringIcSt11char_traitsIcESaIcEEE
libosgEarth.so.0:_ZN8osgEarth13TiXmlDocumentC1EPKc
libosgEarth.so.0:_ZN8osgEarth13TiXmlDocumentC1ERKNSt7__cxx1112basic_stringIcSt11char_traitsIcESaIcEEE
libosgEarth.so.0:_ZN8osgEarth13TiXmlDocumentC1ERKS0_
libosgEarth.so.0:_ZN8osgEarth13TiXmlDocumentC1Ev
libosgEarth.so.0:_ZN8osgEarth13TiXmlDocumentC2EPKc
libosgEarth.so.0:_ZN8osgEarth13TiXmlDocumentC2ERKNSt7__cxx1112basic_stringIcSt11char_traitsIcESaIcEEE
libosgEarth.so.0:_ZN8osgEarth13TiXmlDocumentC2ERKS0_
libosgEarth.so.0:_ZN8osgEarth13TiXmlDocumentC2Ev
libosgEarth.so.0:_ZN8osgEarth13TiXmlDocumentaSERKS0_
libosgEarth.so.0:_ZN8osgEarth13TileBlacklist3addERKNS_7TileKeyE
libosgEarth.so.0:_ZN8osgEarth13TileBlacklist4readERKNSt7__cxx1112basic_stringIcSt11char_traitsIcESaIcEEE
libosgEarth.so.0:_ZN8osgEarth13TileBlacklist4readERSi
libosgEarth.so.0:_ZN8osgEarth13TileBlacklist5clearEv
libosgEarth.so.0:_ZN8osgEarth13TileBlacklist6removeERKNS_7TileKeyE
libosgEarth.so.0:_ZN8osgEarth13TileBlacklistC1Ev
libosgEarth.so.0:_ZN8osgEarth13TileBlacklistC2Ev
libosgEarth.so.0:_ZN8osgEarth13VerticalDatum3getERKNSt7__cxx1112basic_stringIcSt11char_traitsIcESaIcEEE
libosgEarth.so.0:_ZN8osgEarth13VerticalDatum9transformEPKS0_S2_RKNS_9GeoExtentEPN3osg11HeightFieldE
libosgEarth.so.0:_ZN8osgEarth13VerticalDatum9transformEPKS0_S2_ddRd
libosgEarth.so.0:_ZN8osgEarth13VerticalDatum9transformEPKS0_S2_ddRf
libosgEarth.so.0:_ZN8osgEarth13VerticalDatumC1ERKNS_5UnitsE
libosgEarth.so.0:_ZN8osgEarth13VerticalDatumC1ERKNSt7__cxx1112basic_stringIcSt11char_traitsIcESaIcEEES8_PNS_5GeoidE
libosgEarth.so.0:_ZN8osgEarth13VerticalDatumC2ERKNS_5UnitsE
libosgEarth.so.0:_ZN8osgEarth13VerticalDatumC2ERKNSt7__cxx1112basic_stringIcSt11char_traitsIcESaIcEEES8_PNS_5GeoidE
libosgEarth.so.0:_ZN8osgEarth13colorToStringB5cxx11ERKN3osg6Vec4ubE
libosgEarth.so.0:_ZN8osgEarth13makeDirectoryERKNSt7__cxx1112basic_stringIcSt11char_traitsIcESaIcEEE
libosgEarth.so.0:_ZN8osgEarth13stringToColorERKNSt7__cxx1112basic_stringIcSt11char_traitsIcESaIcEEEN3osg6Vec4ubE
libosgEarth.so.0:_ZN8osgEarth13stringToVec3fERKNSt7__cxx1112basic_stringIcSt11char_traitsIcESaIcEEERKN3osg5Vec3fE
libosgEarth.so.0:_ZN8osgEarth13vec3fToStringB5cxx11ERKN3osg5Vec3fE
libosgEarth.so.0:_ZN8osgEarth14CacheEstimator9addExtentERKNS_9GeoExtentE
libosgEarth.so.0:_ZN8osgEarth14CacheEstimatorC1Ev
libosgEarth.so.0:_ZN8osgEarth14CacheEstimatorC2Ev
libosgEarth.so.0:_ZN8osgEarth14DrapingCullSet4pushEPNS_13DrapeableNodeERKSt6vectorIPN3osg4NodeESaIS6_EEPKNS4_10FrameStampE
libosgEarth.so.0:_ZN8osgEarth14DrapingCullSet6acceptERN3osg11NodeVisitorE
libosgEarth.so.0:_ZN8osgEarth14DrapingCullSetC1Ev
libosgEarth.so.0:_ZN8osgEarth14DrapingCullSetC2Ev
libosgEarth.so.0:_ZN8osgEarth14DrapingManager3getEPKN3osg6CameraE
libosgEarth.so.0:_ZN8osgEarth14ElevationLayer17createHeightFieldERKNS_7TileKeyE
libosgEarth.so.0:_ZN8osgEarth14ElevationLayer17createHeightFieldERKNS_7TileKeyEPNS_16ProgressCallbackE
libosgEarth.so.0:_ZN8osgEarth14ElevationLayer19assembleHeightFieldERKNS_7TileKeyERN3osg7ref_ptrINS4_11HeightFieldEEERNS5_INS_9NormalMapEEEPNS_16ProgressCallbackE
libosgEarth.so.0:_ZN8osgEarth14ElevationLayer20createImplementationERKNS_7TileKeyERN3osg7ref_ptrINS4_11HeightFieldEEERNS5_INS_9NormalMapEEEPNS_16ProgressCallbackE
libosgEarth.so.0:_ZN8osgEarth14ElevationLayer21getOrCreatePreCacheOpEv
libosgEarth.so.0:_ZN8osgEarth14ElevationLayer31createHeightFieldFromTileSourceERKNS_7TileKeyEPNS_16ProgressCallbackE
libosgEarth.so.0:_ZN8osgEarth14ElevationLayer4initEv
libosgEarth.so.0:_ZN8osgEarth14ElevationLayerC1EPNS_21ElevationLayerOptionsE
libosgEarth.so.0:_ZN8osgEarth14ElevationLayerC1ERKNS_21ElevationLayerOptionsE
libosgEarth.so.0:_ZN8osgEarth14ElevationLayerC1ERKNS_21ElevationLayerOptionsEPNS_10TileSourceE
libosgEarth.so.0:_ZN8osgEarth14ElevationLayerC1ERKNSt7__cxx1112basic_stringIcSt11char_traitsIcESaIcEEERKNS_17TileSourceOptionsE
libosgEarth.so.0:_ZN8osgEarth14ElevationLayerC1Ev
libosgEarth.so.0:_ZN8osgEarth14ElevationLayerC2EPNS_21ElevationLayerOptionsE
libosgEarth.so.0:_ZN8osgEarth14ElevationLayerC2ERKNS_21ElevationLayerOptionsE
libosgEarth.so.0:_ZN8osgEarth14ElevationLayerC2ERKNS_21ElevationLayerOptionsEPNS_10TileSourceE
libosgEarth.so.0:_ZN8osgEarth14ElevationLayerC2ERKNSt7__cxx1112basic_stringIcSt11char_traitsIcESaIcEEERKNS_17TileSourceOptionsE
libosgEarth.so.0:_ZN8osgEarth14ElevationLayerC2Ev
libosgEarth.so.0:_ZN8osgEarth14ElevationQuery12getElevationERKNS_8GeoPointEdPd
libosgEarth.so.0:_ZN8osgEarth14ElevationQuery13getElevationsERKSt6vectorIN3osg5Vec3dESaIS3_EEPKNS_16SpatialReferenceERS1_IfSaIfEEd
libosgEarth.so.0:_ZN8osgEarth14ElevationQuery13getElevationsERSt6vectorIN3osg5Vec3dESaIS3_EEPKNS_16SpatialReferenceEbd
libosgEarth.so.0:_ZN8osgEarth14ElevationQuery16getElevationImplERKNS_8GeoPointERfdPd
libosgEarth.so.0:_ZN8osgEarth14ElevationQuery24gatherTerrainModelLayersEPKNS_3MapE
libosgEarth.so.0:_ZN8osgEarth14ElevationQuery4syncEv
libosgEarth.so.0:_ZN8osgEarth14ElevationQuery5resetEv
libosgEarth.so.0:_ZN8osgEarth14ElevationQuery6setMapEPKNS_3MapE
libosgEarth.so.0:_ZN8osgEarth14ElevationQueryC1EPKNS_3MapE
libosgEarth.so.0:_ZN8osgEarth14ElevationQueryC1Ev
libosgEarth.so.0:_ZN8osgEarth14ElevationQueryC2EPKNS_3MapE
libosgEarth.so.0:_ZN8osgEarth14ElevationQueryC2Ev
libosgEarth.so.0:_ZN8osgEarth14GeoHeightField4initEv
libosgEarth.so.0:_ZN8osgEarth14GeoHeightFieldC1EPN3osg11HeightFieldEPNS_9NormalMapERKNS_9GeoExtentE
libosgEarth.so.0:_ZN8osgEarth14GeoHeightFieldC1EPN3osg11HeightFieldERKNS_9GeoExtentE
libosgEarth.so.0:_ZN8osgEarth14GeoHeightFieldC1Ev
libosgEarth.so.0:_ZN8osgEarth14GeoHeightFieldC2EPN3osg11HeightFieldEPNS_9NormalMapERKNS_9GeoExtentE
libosgEarth.so.0:_ZN8osgEarth14GeoHeightFieldC2EPN3osg11HeightFieldERKNS_9GeoExtentE
libosgEarth.so.0:_ZN8osgEarth14GeoHeightFieldC2Ev
libosgEarth.so.0:_ZN8osgEarth14LandCoverClass10fromConfigERKNS_6ConfigE
libosgEarth.so.0:_ZN8osgEarth14LandCoverClassC1ERKNS_6ConfigE
libosgEarth.so.0:_ZN8osgEarth14LandCoverClassC1ERKNSt7__cxx1112basic_stringIcSt11char_traitsIcESaIcEEEi
libosgEarth.so.0:_ZN8osgEarth14LandCoverClassC1ERKS0_RKN3osg6CopyOpE
libosgEarth.so.0:_ZN8osgEarth14LandCoverClassC1Ev
libosgEarth.so.0:_ZN8osgEarth14LandCoverClassC2ERKNS_6ConfigE
libosgEarth.so.0:_ZN8osgEarth14LandCoverClassC2ERKNSt7__cxx1112basic_stringIcSt11char_traitsIcESaIcEEEi
libosgEarth.so.0:_ZN8osgEarth14LandCoverClassC2ERKS0_RKN3osg6CopyOpE
libosgEarth.so.0:_ZN8osgEarth14LandCoverClassC2Ev
libosgEarth.so.0:_ZN8osgEarth14LandCoverLayer10addedToMapEPKNS_3MapE
libosgEarth.so.0:_ZN8osgEarth14LandCoverLayer13readMetaImageERSt3mapINS_7TileKeyENS0_18MetaImageComponentESt4lessIS2_ESaISt4pairIKS2_S3_EEERS7_ddRN3osg5Vec4fEPNS_16ProgressCallbackE
libosgEarth.so.0:_ZN8osgEarth14LandCoverLayer16createTileSourceEv
libosgEarth.so.0:_ZN8osgEarth14LandCoverLayer25createImageImplementationERKNS_7TileKeyEPNS_16ProgressCallbackE
libosgEarth.so.0:_ZN8osgEarth14LandCoverLayer4initEv
libosgEarth.so.0:_ZN8osgEarth14LandCoverLayerC1ERKNS_21LandCoverLayerOptionsE
libosgEarth.so.0:_ZN8osgEarth14LandCoverLayerC1Ev
libosgEarth.so.0:_ZN8osgEarth14LandCoverLayerC2ERKNS_21LandCoverLayerOptionsE
libosgEarth.so.0:_ZN8osgEarth14LandCoverLayerC2Ev
libosgEarth.so.0:_ZN8osgEarth14MapNodeOptions11mergeConfigERKNS_6ConfigE
libosgEarth.so.0:_ZN8osgEarth14MapNodeOptions17setTerrainOptionsERKNS_14TerrainOptionsE
libosgEarth.so.0:_ZN8osgEarth14MapNodeOptionsC1ERKNS_14TerrainOptionsE
libosgEarth.so.0:_ZN8osgEarth14MapNodeOptionsC1ERKNS_6ConfigE
libosgEarth.so.0:_ZN8osgEarth14MapNodeOptionsC1ERKS0_
libosgEarth.so.0:_ZN8osgEarth14MapNodeOptionsC2ERKNS_14TerrainOptionsE
libosgEarth.so.0:_ZN8osgEarth14MapNodeOptionsC2ERKNS_6ConfigE
libosgEarth.so.0:_ZN8osgEarth14MapNodeOptionsC2ERKS0_
libosgEarth.so.0:_ZN8osgEarth14MapNodeOptionsD0Ev
libosgEarth.so.0:_ZN8osgEarth14MapNodeOptionsD1Ev
libosgEarth.so.0:_ZN8osgEarth14MapNodeOptionsD2Ev
libosgEarth.so.0:_ZN8osgEarth14ProfileOptions10fromConfigERKNS_6ConfigE
libosgEarth.so.0:_ZN8osgEarth14ProfileOptions11mergeConfigERKNS_6ConfigE
libosgEarth.so.0:_ZN8osgEarth14ProfileOptionsC1ERKNS_13ConfigOptionsE
libosgEarth.so.0:_ZN8osgEarth14ProfileOptionsC1ERKNSt7__cxx1112basic_stringIcSt11char_traitsIcESaIcEEE
libosgEarth.so.0:_ZN8osgEarth14ProfileOptionsC2ERKNS_13ConfigOptionsE
libosgEarth.so.0:_ZN8osgEarth14ProfileOptionsC2ERKNSt7__cxx1112basic_stringIcSt11char_traitsIcESaIcEEE
libosgEarth.so.0:_ZN8osgEarth14RenderBinUtils23getTotalNumRenderLeavesEPN7osgUtil9RenderBinE
libosgEarth.so.0:_ZN8osgEarth14TerrainOptions10fromConfigERKNS_6ConfigE
libosgEarth.so.0:_ZN8osgEarth14TerrainOptionsC1ERKNS_13ConfigOptionsE
libosgEarth.so.0:_ZN8osgEarth14TerrainOptionsC2ERKNS_13ConfigOptionsE
libosgEarth.so.0:_ZN8osgEarth14TiXmlAttribute11SetIntValueEi
libosgEarth.so.0:_ZN8osgEarth14TiXmlAttribute14SetDoubleValueEd
libosgEarth.so.0:_ZN8osgEarth14TiXmlAttribute5ParseEPKcP16TiXmlParsingData13TiXmlEncoding
libosgEarth.so.0:_ZN8osgEarth14TileRasterizer13ReadbackImage10readPixelsEiiiijji
libosgEarth.so.0:_ZN8osgEarth14TileRasterizer4pushEPN3osg4NodeEPNS1_7TextureERKNS_9GeoExtentE
libosgEarth.so.0:_ZN8osgEarth14TileRasterizer4pushEPN3osg4NodeEjRKNS_9GeoExtentE
libosgEarth.so.0:_ZN8osgEarth14TileRasterizer6acceptERN3osg11NodeVisitorE
libosgEarth.so.0:_ZN8osgEarth14TileRasterizer8traverseERN3osg11NodeVisitorE
libosgEarth.so.0:_ZN8osgEarth14TileRasterizerC1Ev
libosgEarth.so.0:_ZN8osgEarth14TileRasterizerC2Ev
libosgEarth.so.0:_ZN8osgEarth14TileRasterizerD0Ev
libosgEarth.so.0:_ZN8osgEarth14TileRasterizerD1Ev
libosgEarth.so.0:_ZN8osgEarth14TileRasterizerD2Ev
libosgEarth.so.0:_ZN8osgEarth14VirtualProgram10getShadersERKN3osg5StateERSt6vectorINS1_7ref_ptrINS1_6ShaderEEESaIS8_EE
libosgEarth.so.0:_ZN8osgEarth14VirtualProgram11ShaderEntryC1Ev
libosgEarth.so.0:_ZN8osgEarth14VirtualProgram11ShaderEntryC2Ev
libosgEarth.so.0:_ZN8osgEarth14VirtualProgram11getOrCreateEPN3osg8StateSetE
libosgEarth.so.0:_ZN8osgEarth14VirtualProgram11setFunctionERKNSt7__cxx1112basic_stringIcSt11char_traitsIcESaIcEEES8_NS_10ShaderComp16FunctionLocationEPNS9_14AcceptCallbackEf
libosgEarth.so.0:_ZN8osgEarth14VirtualProgram11setFunctionERKNSt7__cxx1112basic_stringIcSt11char_traitsIcESaIcEEES8_NS_10ShaderComp16FunctionLocationEf
libosgEarth.so.0:_ZN8osgEarth14VirtualProgram12checkSharingEv
libosgEarth.so.0:_ZN8osgEarth14VirtualProgram12removeShaderERKNSt7__cxx1112basic_stringIcSt11char_traitsIcESaIcEEE
libosgEarth.so.0:_ZN8osgEarth14VirtualProgram13cloneOrCreateEPKN3osg8StateSetEPS2_
libosgEarth.so.0:_ZN8osgEarth14VirtualProgram13cloneOrCreateEPN3osg8StateSetE
libosgEarth.so.0:_ZN8osgEarth14VirtualProgram14getPolyShadersERKN3osg5StateERSt6vectorINS1_7ref_ptrINS_10PolyShaderEEESaIS8_EE
libosgEarth.so.0:_ZN8osgEarth14VirtualProgram15AttrStackMemory6recallERKN3osg5StateERKSt6vectorISt4pairIPKNS2_14StateAttributeEjESaISB_EE
libosgEarth.so.0:_ZN8osgEarth14VirtualProgram15AttrStackMemory8rememberERKN3osg5StateERKSt6vectorISt4pairIPKNS2_14StateAttributeEjESaISB_EEPNS2_7ProgramE
libosgEarth.so.0:_ZN8osgEarth14VirtualProgram16addGLSLExtensionERKNSt7__cxx1112basic_stringIcSt11char_traitsIcESaIcEEE
libosgEarth.so.0:_ZN8osgEarth14VirtualProgram16setShaderLoggingEb
libosgEarth.so.0:_ZN8osgEarth14VirtualProgram16setShaderLoggingEbRKNSt7__cxx1112basic_stringIcSt11char_traitsIcESaIcEEE
libosgEarth.so.0:_ZN8osgEarth14VirtualProgram17accumulateShadersERKN3osg5StateEjRNS_10vector_mapIjNS0_11ShaderEntryEEERSt3mapINSt7__cxx1112basic_stringIcSt11char_traitsIcESaIcEEEjSt4lessISF_ESaISt4pairIKSF_jEEERS9_ISF_SF_SH_SaISI_ISJ_SF_EEERb
libosgEarth.so.0:_ZN8osgEarth14VirtualProgram17setInheritShadersEb
libosgEarth.so.0:_ZN8osgEarth14VirtualProgram19removeGLSLExtensionERKNSt7__cxx1112basic_stringIcSt11char_traitsIcESaIcEEE
libosgEarth.so.0:_ZN8osgEarth14VirtualProgram19setFunctionMaxRangeERKNSt7__cxx1112basic_stringIcSt11char_traitsIcESaIcEEEf
libosgEarth.so.0:_ZN8osgEarth14VirtualProgram19setFunctionMinRangeERKNSt7__cxx1112basic_stringIcSt11char_traitsIcESaIcEEEf
libosgEarth.so.0:_ZN8osgEarth14VirtualProgram21addBindAttribLocationERKNSt7__cxx1112basic_stringIcSt11char_traitsIcESaIcEEEj
libosgEarth.so.0:_ZN8osgEarth14VirtualProgram21resizeGLObjectBuffersEj
libosgEarth.so.0:_ZN8osgEarth14VirtualProgram24removeBindAttribLocationERKNSt7__cxx1112basic_stringIcSt11char_traitsIcESaIcEEE
libosgEarth.so.0:_ZN8osgEarth14VirtualProgram30setAcceptCallbacksVaryPerFrameEb
libosgEarth.so.0:_ZN8osgEarth14VirtualProgram3getEPKN3osg8StateSetE
libosgEarth.so.0:_ZN8osgEarth14VirtualProgram3getEPN3osg8StateSetE
libosgEarth.so.0:_ZN8osgEarth14VirtualProgram9setShaderEPN3osg6ShaderEj
libosgEarth.so.0:_ZN8osgEarth14VirtualProgram9setShaderERKNSt7__cxx1112basic_stringIcSt11char_traitsIcESaIcEEEPN3osg6ShaderEj
libosgEarth.so.0:_ZN8osgEarth14VirtualProgramC1ERKS0_RKN3osg6CopyOpE
libosgEarth.so.0:_ZN8osgEarth14VirtualProgramC1Ej
libosgEarth.so.0:_ZN8osgEarth14VirtualProgramC2ERKS0_RKN3osg6CopyOpE
libosgEarth.so.0:_ZN8osgEarth14VirtualProgramC2Ej
libosgEarth.so.0:_ZN8osgEarth14VirtualProgramD0Ev
libosgEarth.so.0:_ZN8osgEarth14VirtualProgramD1Ev
libosgEarth.so.0:_ZN8osgEarth14VirtualProgramD2Ev
libosgEarth.so.0:_ZN8osgEarth14getNotifyLevelEv
libosgEarth.so.0:_ZN8osgEarth14isRelativePathERKNSt7__cxx1112basic_stringIcSt11char_traitsIcESaIcEEE
libosgEarth.so.0:_ZN8osgEarth14setNotifyLevelEN3osg14NotifySeverityE
libosgEarth.so.0:_ZN8osgEarth15ClampingCullSet4pushEPNS_13ClampableNodeERKSt6vectorIPN3osg4NodeESaIS6_EEPKNS4_10FrameStampE
libosgEarth.so.0:_ZN8osgEarth15ClampingCullSet6acceptERN3osg11NodeVisitorE
libosgEarth.so.0:_ZN8osgEarth15ClampingCullSetC1Ev
libosgEarth.so.0:_ZN8osgEarth15ClampingCullSetC2Ev
libosgEarth.so.0:_ZN8osgEarth15ClampingManager3getEPKN3osg6CameraE
libosgEarth.so.0:_ZN8osgEarth15CubeFaceLocatorC1Ej
libosgEarth.so.0:_ZN8osgEarth15CubeFaceLocatorC2Ej
libosgEarth.so.0:_ZN8osgEarth15CubeFaceLocatorD0Ev
libosgEarth.so.0:_ZN8osgEarth15CubeFaceLocatorD1Ev
libosgEarth.so.0:_ZN8osgEarth15CubeFaceLocatorD2Ev
libosgEarth.so.0:_ZN8osgEarth15GeometryClamper5applyERN3osg8DrawableE
libosgEarth.so.0:_ZN8osgEarth15GeometryClamper5applyERN3osg9TransformE
libosgEarth.so.0:_ZN8osgEarth15GeometryClamperC1ERSt3mapIPN3osg5ArrayENS0_12GeometryDataESt4lessIS4_ESaISt4pairIKS4_S5_EEE
libosgEarth.so.0:_ZN8osgEarth15GeometryClamperC2ERSt3mapIPN3osg5ArrayENS0_12GeometryDataESt4lessIS4_ESaISt4pairIKS4_S5_EEE
libosgEarth.so.0:_ZN8osgEarth15MercatorLocator23createSameTypeForExtentERKNS_9GeoExtentERKNS_7MapInfoE
libosgEarth.so.0:_ZN8osgEarth15MercatorLocator8postInitEv
libosgEarth.so.0:_ZN8osgEarth15MercatorLocatorC1ERKN10osgTerrain7LocatorERKNS_9GeoExtentE
libosgEarth.so.0:_ZN8osgEarth15MercatorLocatorC1ERKNS_9GeoExtentE
libosgEarth.so.0:_ZN8osgEarth15MercatorLocatorC2ERKN10osgTerrain7LocatorERKNS_9GeoExtentE
libosgEarth.so.0:_ZN8osgEarth15MercatorLocatorC2ERKNS_9GeoExtentE
libosgEarth.so.0:_ZN8osgEarth15ShaderGenerator10GenBuffers14requireVersionEjj
libosgEarth.so.0:_ZN8osgEarth15ShaderGenerator10GenBuffersC1Ev
libosgEarth.so.0:_ZN8osgEarth15ShaderGenerator10GenBuffersC2Ev
libosgEarth.so.0:_ZN8osgEarth15ShaderGenerator11processTextEPKN3osg8StateSetERNS1_7ref_ptrIS2_EE
libosgEarth.so.0:_ZN8osgEarth15ShaderGenerator13setIgnoreHintEPN3osg6ObjectEb
libosgEarth.so.0:_ZN8osgEarth15ShaderGenerator15processGeometryEPKN3osg8StateSetERNS1_7ref_ptrIS2_EE
libosgEarth.so.0:_ZN8osgEarth15ShaderGenerator17addAcceptCallbackEPNS0_14AcceptCallbackE
libosgEarth.so.0:_ZN8osgEarth15ShaderGenerator19duplicateSharedNodeERN3osg4NodeE
libosgEarth.so.0:_ZN8osgEarth15ShaderGenerator20optimizeStateSharingEPN3osg4NodeEPNS_13StateSetCacheE
libosgEarth.so.0:_ZN8osgEarth15ShaderGenerator27applyNonCoreNodeIfNecessaryERN3osg4NodeE
libosgEarth.so.0:_ZN8osgEarth15ShaderGenerator27setDuplicateSharedSubgraphsEb
libosgEarth.so.0:_ZN8osgEarth15ShaderGenerator28disableUnsupportedAttributesEPN3osg8StateSetE
libosgEarth.so.0:_ZN8osgEarth15ShaderGenerator3runEPN3osg4NodeERKNSt7__cxx1112basic_stringIcSt11char_traitsIcESaIcEEEPNS_13StateSetCacheE
libosgEarth.so.0:_ZN8osgEarth15ShaderGenerator5applyEPN3osg11PointSpriteEiRNS0_10GenBuffersE
libosgEarth.so.0:_ZN8osgEarth15ShaderGenerator5applyEPN3osg14StateAttributeERNS0_10GenBuffersE
libosgEarth.so.0:_ZN8osgEarth15ShaderGenerator5applyEPN3osg14Texture2DArrayEiRNS0_10GenBuffersE
libosgEarth.so.0:_ZN8osgEarth15ShaderGenerator5applyEPN3osg14TextureCubeMapEiRNS0_10GenBuffersE
libosgEarth.so.0:_ZN8osgEarth15ShaderGenerator5applyEPN3osg16TextureRectangleEiRNS0_10GenBuffersE
libosgEarth.so.0:_ZN8osgEarth15ShaderGenerator5applyEPN3osg6TexEnvEiRNS0_10GenBuffersE
libosgEarth.so.0:_ZN8osgEarth15ShaderGenerator5applyEPN3osg6TexGenEiRNS0_10GenBuffersE
libosgEarth.so.0:_ZN8osgEarth15ShaderGenerator5applyEPN3osg6TexMatEiRNS0_10GenBuffersE
libosgEarth.so.0:_ZN8osgEarth15ShaderGenerator5applyEPN3osg7TextureEPNS1_6TexGenEPNS1_6TexEnvEPNS1_6TexMatEPNS1_11PointSpriteEiRNS0_10GenBuffersE
libosgEarth.so.0:_ZN8osgEarth15ShaderGenerator5applyEPN3osg8DrawableE
libosgEarth.so.0:_ZN8osgEarth15ShaderGenerator5applyEPN3osg9Texture1DEiRNS0_10GenBuffersE
libosgEarth.so.0:_ZN8osgEarth15ShaderGenerator5applyEPN3osg9Texture2DEiRNS0_10GenBuffersE
libosgEarth.so.0:_ZN8osgEarth15ShaderGenerator5applyEPN3osg9Texture3DEiRNS0_10GenBuffersE
libosgEarth.so.0:_ZN8osgEarth15ShaderGenerator5applyERN3osg4NodeE
libosgEarth.so.0:_ZN8osgEarth15ShaderGenerator5applyERN3osg5GeodeE
libosgEarth.so.0:_ZN8osgEarth15ShaderGenerator5applyERN3osg5GroupE
libosgEarth.so.0:_ZN8osgEarth15ShaderGenerator5applyERN3osg8ClipNodeE
libosgEarth.so.0:_ZN8osgEarth15ShaderGenerator5applyERN3osg8DrawableE
libosgEarth.so.0:_ZN8osgEarth15ShaderGenerator5applyERN3osg8PagedLODE
libosgEarth.so.0:_ZN8osgEarth15ShaderGenerator5applyERN3osg9ProxyNodeE
libosgEarth.so.0:_ZN8osgEarth15ShaderGenerator5applyERN6osgSim14LightPointNodeE
libosgEarth.so.0:_ZN8osgEarth15ShaderGenerator5applyERSt3mapISt4pairIN3osg14StateAttribute4TypeEjES2_INS3_7ref_ptrIS4_EEjESt4lessIS6_ESaIS2_IKS6_S9_EEERNS0_10GenBuffersE
libosgEarth.so.0:_ZN8osgEarth15ShaderGenerator6ignoreEPKN3osg6ObjectE
libosgEarth.so.0:_ZN8osgEarth15ShaderGeneratorC1ERKS0_RKN3osg6CopyOpE
libosgEarth.so.0:_ZN8osgEarth15ShaderGeneratorC1Ev
libosgEarth.so.0:_ZN8osgEarth15ShaderGeneratorC2ERKS0_RKN3osg6CopyOpE
libosgEarth.so.0:_ZN8osgEarth15ShaderGeneratorC2Ev
libosgEarth.so.0:_ZN8osgEarth15StringTokenizer8addDelimEcb
libosgEarth.so.0:_ZN8osgEarth15StringTokenizer8addQuoteEcb
libosgEarth.so.0:_ZN8osgEarth15StringTokenizer9addDelimsERKNSt7__cxx1112basic_stringIcSt11char_traitsIcESaIcEEEb
libosgEarth.so.0:_ZN8osgEarth15StringTokenizer9addQuotesERKNSt7__cxx1112basic_stringIcSt11char_traitsIcESaIcEEEb
libosgEarth.so.0:_ZN8osgEarth15StringTokenizerC1ERKNSt7__cxx1112basic_stringIcSt11char_traitsIcESaIcEEERSt6vectorIS6_SaIS6_EES8_S8_bb
libosgEarth.so.0:_ZN8osgEarth15StringTokenizerC1ERKNSt7__cxx1112basic_stringIcSt11char_traitsIcESaIcEEES8_
libosgEarth.so.0:_ZN8osgEarth15StringTokenizerC2ERKNSt7__cxx1112basic_stringIcSt11char_traitsIcESaIcEEERSt6vectorIS6_SaIS6_EES8_S8_bb
libosgEarth.so.0:_ZN8osgEarth15StringTokenizerC2ERKNSt7__cxx1112basic_stringIcSt11char_traitsIcESaIcEEES8_
libosgEarth.so.0:_ZN8osgEarth15URIReadCallbackC1Ev
libosgEarth.so.0:_ZN8osgEarth15URIReadCallbackC2Ev
libosgEarth.so.0:_ZN8osgEarth15URIReadCallbackD0Ev
libosgEarth.so.0:_ZN8osgEarth15URIReadCallbackD1Ev
libosgEarth.so.0:_ZN8osgEarth15URIReadCallbackD2Ev
libosgEarth.so.0:_ZN8osgEarth15getAbsolutePathERKNSt7__cxx1112basic_stringIcSt11char_traitsIcESaIcEEE
libosgEarth.so.0:_ZN8osgEarth15getCurlFileTimeEPv
libosgEarth.so.0:_ZN8osgEarth15initNotifyLevelEv
libosgEarth.so.0:_ZN8osgEarth15isNotifyEnabledEN3osg14NotifySeverityE
libosgEarth.so.0:_ZN8osgEarth15prettyPrintSizeB5cxx11Ed
libosgEarth.so.0:_ZN8osgEarth15prettyPrintTimeB5cxx11Ed
libosgEarth.so.0:_ZN8osgEarth15toLegalFileNameERKNSt7__cxx1112basic_stringIcSt11char_traitsIcESaIcEEEb
libosgEarth.so.0:_ZN8osgEarth15trimAndCompressERKNSt7__cxx1112basic_stringIcSt11char_traitsIcESaIcEEE
libosgEarth.so.0:_ZN8osgEarth16CacheTileHandler10handleTileERKNS_7TileKeyERKNS_11TileVisitorE
libosgEarth.so.0:_ZN8osgEarth16CacheTileHandlerC1EPNS_12TerrainLayerEPKNS_3MapE
libosgEarth.so.0:_ZN8osgEarth16CacheTileHandlerC2EPNS_12TerrainLayerEPKNS_3MapE
libosgEarth.so.0:_ZN8osgEarth16DepthOffsetGroup14scheduleUpdateEv
libosgEarth.so.0:_ZN8osgEarth16DepthOffsetGroup21setDepthOffsetOptionsERKNS_18DepthOffsetOptionsE
libosgEarth.so.0:_ZN8osgEarth16DepthOffsetGroup8traverseERN3osg11NodeVisitorE
libosgEarth.so.0:_ZN8osgEarth16DepthOffsetGroupC1Ev
libosgEarth.so.0:_ZN8osgEarth16DepthOffsetGroupC2Ev
libosgEarth.so.0:_ZN8osgEarth16DirectoryVisitor10handleFileERKNSt7__cxx1112basic_stringIcSt11char_traitsIcESaIcEEE
libosgEarth.so.0:_ZN8osgEarth16DirectoryVisitor8traverseERKNSt7__cxx1112basic_stringIcSt11char_traitsIcESaIcEEE
libosgEarth.so.0:_ZN8osgEarth16DirectoryVisitor9handleDirERKNSt7__cxx1112basic_stringIcSt11char_traitsIcESaIcEEE
libosgEarth.so.0:_ZN8osgEarth16DirectoryVisitorC1Ev
libosgEarth.so.0:_ZN8osgEarth16DirectoryVisitorC2Ev
libosgEarth.so.0:_ZN8osgEarth16DrapingTechnique11onUninstallEPNS_17TerrainEngineNodeE
libosgEarth.so.0:_ZN8osgEarth16DrapingTechnique11setUpCameraERNS_16OverlayDecorator13TechRTTParamsE
libosgEarth.so.0:_ZN8osgEarth16DrapingTechnique13setMipMappingEb
libosgEarth.so.0:_ZN8osgEarth16DrapingTechnique14preCullTerrainERNS_16OverlayDecorator13TechRTTParamsEPN7osgUtil11CullVisitorE
libosgEarth.so.0:_ZN8osgEarth16DrapingTechnique14setTextureSizeEi
libosgEarth.so.0:_ZN8osgEarth16DrapingTechnique14setTextureUnitEi
libosgEarth.so.0:_ZN8osgEarth16DrapingTechnique16cullOverlayGroupERNS_16OverlayDecorator13TechRTTParamsEPN7osgUtil11CullVisitorE
libosgEarth.so.0:_ZN8osgEarth16DrapingTechnique16setAttachStencilEb
libosgEarth.so.0:_ZN8osgEarth16DrapingTechnique18setOverlayBlendingEb
libosgEarth.so.0:_ZN8osgEarth16DrapingTechnique18setResolutionRatioEf
libosgEarth.so.0:_ZN8osgEarth16DrapingTechnique9onInstallEPNS_17TerrainEngineNodeE
libosgEarth.so.0:_ZN8osgEarth16DrapingTechniqueC1Ev
libosgEarth.so.0:_ZN8osgEarth16DrapingTechniqueC2Ev
libosgEarth.so.0:_ZN8osgEarth16HeightFieldUtils15createNormalMapEPKN3osg5ImageEPNS_9NormalMapERKNS_9GeoExtentE
libosgEarth.so.0:_ZN8osgEarth16HeightFieldUtils15createSubSampleEPKN3osg11HeightFieldERKNS_9GeoExtentES7_NS_22ElevationInterpolationE
libosgEarth.so.0:_ZN8osgEarth16HeightFieldUtils15validateSamplesERfS1_S1_S1_
libosgEarth.so.0:_ZN8osgEarth16HeightFieldUtils16getHeightAtPixelEPKN3osg11HeightFieldEddNS_22ElevationInterpolationE
libosgEarth.so.0:_ZN8osgEarth16HeightFieldUtils18convertToNormalMapERKNS_23HeightFieldNeighborhoodEPKNS_16SpatialReferenceE
libosgEarth.so.0:_ZN8osgEarth16HeightFieldUtils19getHeightAtLocationEPKN3osg11HeightFieldEddddddNS_22ElevationInterpolationE
libosgEarth.so.0:_ZN8osgEarth16HeightFieldUtils19getNormalAtLocationERKNS_23HeightFieldNeighborhoodEddddddNS_22ElevationInterpolationE
libosgEarth.so.0:_ZN8osgEarth16HeightFieldUtils19resampleHeightFieldEPN3osg11HeightFieldERKNS_9GeoExtentEiiNS_22ElevationInterpolationE
libosgEarth.so.0:_ZN8osgEarth16HeightFieldUtils21getInterpolatedHeightEPKN3osg11HeightFieldEjjRfNS_22ElevationInterpolationE
libosgEarth.so.0:_ZN8osgEarth16HeightFieldUtils21resolveInvalidHeightsEPN3osg11HeightFieldERKNS_9GeoExtentEfPKNS_5GeoidE
libosgEarth.so.0:_ZN8osgEarth16HeightFieldUtils25scaleHeightFieldToDegreesEPN3osg11HeightFieldE
libosgEarth.so.0:_ZN8osgEarth16HeightFieldUtils26createReferenceHeightFieldERKNS_9GeoExtentEjjjb
libosgEarth.so.0:_ZN8osgEarth16HeightFieldUtils28createClusterCullingCallbackEPKN3osg11HeightFieldEPKNS1_14EllipsoidModelEf
libosgEarth.so.0:_ZN8osgEarth16HeightFieldUtils29getHeightAtNormalizedLocationEPKN3osg11HeightFieldEddNS_22ElevationInterpolationE
libosgEarth.so.0:_ZN8osgEarth16HeightFieldUtils29getHeightAtNormalizedLocationERKNS_23HeightFieldNeighborhoodEddRfNS_22ElevationInterpolationE
libosgEarth.so.0:_ZN8osgEarth16HorizonClipPlane13ResizeFunctorclERNS0_13PerCameraDataE
libosgEarth.so.0:_ZN8osgEarth16HorizonClipPlane18setClipPlaneNumberEj
libosgEarth.so.0:_ZN8osgEarth16HorizonClipPlane21resizeGLObjectBuffersEj
libosgEarth.so.0:_ZN8osgEarth16HorizonClipPlaneC1EPKN3osg14EllipsoidModelE
libosgEarth.so.0:_ZN8osgEarth16HorizonClipPlaneC1Ev
libosgEarth.so.0:_ZN8osgEarth16HorizonClipPlaneC2EPKN3osg14EllipsoidModelE
libosgEarth.so.0:_ZN8osgEarth16HorizonClipPlaneC2Ev
libosgEarth.so.0:_ZN8osgEarth16HorizonClipPlaneclEPN3osg4NodeEPNS1_11NodeVisitorE
libosgEarth.so.0:_ZN8osgEarth16MaskLayerOptions10fromConfigERKNS_6ConfigE
libosgEarth.so.0:_ZN8osgEarth16MaskLayerOptions11mergeConfigERKNS_6ConfigE
libosgEarth.so.0:_ZN8osgEarth16MaskLayerOptions11setDefaultsEv
libosgEarth.so.0:_ZN8osgEarth16MaskLayerOptionsC1ERKNS_13ConfigOptionsE
libosgEarth.so.0:_ZN8osgEarth16MaskLayerOptionsC2ERKNS_13ConfigOptionsE
libosgEarth.so.0:_ZN8osgEarth16MaskSourceDriverD0Ev
libosgEarth.so.0:_ZN8osgEarth16MaskSourceDriverD1Ev
libosgEarth.so.0:_ZN8osgEarth16MaskSourceDriverD2Ev
libosgEarth.so.0:_ZN8osgEarth16MaterialCallbackclEPN3osg14StateAttributeEPNS1_11NodeVisitorE
libosgEarth.so.0:_ZN8osgEarth16OverlayDecorator12addTechniqueEPNS_16OverlayTechniqueE
libosgEarth.so.0:_ZN8osgEarth16OverlayDecorator14getPerViewDataEPN3osg6CameraE
libosgEarth.so.0:_ZN8osgEarth16OverlayDecorator14onGroupChangedEPN3osg5GroupE
libosgEarth.so.0:_ZN8osgEarth16OverlayDecorator16setTerrainEngineEPNS_17TerrainEngineNodeE
libosgEarth.so.0:_ZN8osgEarth16OverlayDecorator21initializePerViewDataERNS0_11PerViewDataEPN3osg6CameraE
libosgEarth.so.0:_ZN8osgEarth16OverlayDecorator21resizeGLObjectBuffersEj
libosgEarth.so.0:_ZN8osgEarth16OverlayDecorator21setMaxHorizonDistanceEd
libosgEarth.so.0:_ZN8osgEarth16OverlayDecorator28setOverlayGraphTraversalMaskEj
libosgEarth.so.0:_ZN8osgEarth16OverlayDecorator32cullTerrainAndCalculateRTTParamsEPN7osgUtil11CullVisitorERNS0_11PerViewDataE
libosgEarth.so.0:_ZN8osgEarth16OverlayDecorator8traverseERN3osg11NodeVisitorE
libosgEarth.so.0:_ZN8osgEarth16OverlayDecoratorC1Ev
libosgEarth.so.0:_ZN8osgEarth16OverlayDecoratorC2Ev
libosgEarth.so.0:_ZN8osgEarth16ProgressCallback11reportErrorERKNSt7__cxx1112basic_stringIcSt11char_traitsIcESaIcEEE
libosgEarth.so.0:_ZN8osgEarth16ProgressCallback14reportProgressEddjjRKNSt7__cxx1112basic_stringIcSt11char_traitsIcESaIcEEE
libosgEarth.so.0:_ZN8osgEarth16ProgressCallback5statsERKNSt7__cxx1112basic_stringIcSt11char_traitsIcESaIcEEE
libosgEarth.so.0:_ZN8osgEarth16ProgressCallbackC1Ev
libosgEarth.so.0:_ZN8osgEarth16ProgressCallbackC2Ev
libosgEarth.so.0:_ZN8osgEarth16ProxyCullVisitor22isCulledByProxyFrustumERKN3osg15BoundingBoxImplINS1_5Vec3fEEE
libosgEarth.so.0:_ZN8osgEarth16ProxyCullVisitor22isCulledByProxyFrustumERN3osg4NodeE
libosgEarth.so.0:_ZN8osgEarth16ProxyCullVisitor34handle_cull_callbacks_and_traverseERN3osg4NodeE
libosgEarth.so.0:_ZN8osgEarth16ProxyCullVisitor5applyERN3osg3LODE
libosgEarth.so.0:_ZN8osgEarth16ProxyCullVisitor5applyERN3osg4NodeE
libosgEarth.so.0:_ZN8osgEarth16ProxyCullVisitor5applyERN3osg8DrawableE
libosgEarth.so.0:_ZN8osgEarth16ProxyCullVisitor5applyERN3osg9TransformE
libosgEarth.so.0:_ZN8osgEarth16ProxyCullVisitor8distanceERKN3osg5Vec3fERKNS1_7MatrixdE
libosgEarth.so.0:_ZN8osgEarth16ProxyCullVisitorC1EPN7osgUtil11CullVisitorERKN3osg7MatrixdES7_
libosgEarth.so.0:_ZN8osgEarth16ProxyCullVisitorC2EPN7osgUtil11CullVisitorERKN3osg7MatrixdES7_
libosgEarth.so.0:_ZN8osgEarth16ResourceReleaser4pushEPN3osg6ObjectE
libosgEarth.so.0:_ZN8osgEarth16ResourceReleaser4pushERKSt6vectorIN3osg7ref_ptrINS2_6ObjectEEESaIS5_EE
libosgEarth.so.0:_ZN8osgEarth16ResourceReleaserC1Ev
libosgEarth.so.0:_ZN8osgEarth16ResourceReleaserC2Ev
libosgEarth.so.0:_ZN8osgEarth16SpatialReference10createCubeEv
libosgEarth.so.0:_ZN8osgEarth16SpatialReference13createFromWKTERKNSt7__cxx1112basic_stringIcSt11char_traitsIcESaIcEEES8_
libosgEarth.so.0:_ZN8osgEarth16SpatialReference14transformUnitsERKNS_8DistanceEPKS0_d
libosgEarth.so.0:_ZN8osgEarth16SpatialReference15createFromPROJ4ERKNSt7__cxx1112basic_stringIcSt11char_traitsIcESaIcEEES8_
libosgEarth.so.0:_ZN8osgEarth16SpatialReference16createFromHandleEPv
libosgEarth.so.0:_ZN8osgEarth16SpatialReference19createFromUserInputERKNSt7__cxx1112basic_stringIcSt11char_traitsIcESaIcEEES8_
libosgEarth.so.0:_ZN8osgEarth16SpatialReference4initEv
libosgEarth.so.0:_ZN8osgEarth16SpatialReference5_initEv
libosgEarth.so.0:_ZN8osgEarth16SpatialReference6createEPN3osg20CoordinateSystemNodeE
libosgEarth.so.0:_ZN8osgEarth16SpatialReference6createERKNS0_3KeyE
libosgEarth.so.0:_ZN8osgEarth16SpatialReference6createERKNSt7__cxx1112basic_stringIcSt11char_traitsIcESaIcEEES8_
libosgEarth.so.0:_ZN8osgEarth16SpatialReference6fixWKTEv
libosgEarth.so.0:_ZN8osgEarth16SpatialReferenceC1EPvRKNSt7__cxx1112basic_stringIcSt11char_traitsIcESaIcEEE
libosgEarth.so.0:_ZN8osgEarth16SpatialReferenceC1EPvb
libosgEarth.so.0:_ZN8osgEarth16SpatialReferenceC2EPvRKNSt7__cxx1112basic_stringIcSt11char_traitsIcESaIcEEE
libosgEarth.so.0:_ZN8osgEarth16SpatialReferenceC2EPvb
libosgEarth.so.0:_ZN8osgEarth16SpatialReferenceD0Ev
libosgEarth.so.0:_ZN8osgEarth16SpatialReferenceD1Ev
libosgEarth.so.0:_ZN8osgEarth16SpatialReferenceD2Ev
libosgEarth.so.0:_ZN8osgEarth16TaskRequestQueue3addEPNS_11TaskRequestE
libosgEarth.so.0:_ZN8osgEarth16TaskRequestQueue3getEv
libosgEarth.so.0:_ZN8osgEarth16TaskRequestQueue5clearEv
libosgEarth.so.0:_ZN8osgEarth16TaskRequestQueue6cancelEv
libosgEarth.so.0:_ZN8osgEarth16TaskRequestQueue7setDoneEv
libosgEarth.so.0:_ZN8osgEarth16TaskRequestQueueC1Ej
libosgEarth.so.0:_ZN8osgEarth16TaskRequestQueueC2Ej
libosgEarth.so.0:_ZN8osgEarth16TerrainResources23releaseTextureImageUnitEi
libosgEarth.so.0:_ZN8osgEarth16TerrainResources23releaseTextureImageUnitEiPKNS_5LayerE
libosgEarth.so.0:_ZN8osgEarth16TerrainResources23reserveTextureImageUnitERNS_27TextureImageUnitReservationEPKc
libosgEarth.so.0:_ZN8osgEarth16TerrainResources23reserveTextureImageUnitERiPKc
libosgEarth.so.0:_ZN8osgEarth16TerrainResources28setTextureImageUnitOffLimitsEi
libosgEarth.so.0:_ZN8osgEarth16TerrainResources31reserveTextureImageUnitForLayerERNS_27TextureImageUnitReservationEPKNS_5LayerEPKc
libosgEarth.so.0:_ZN8osgEarth16TerrainResourcesC1Ev
libosgEarth.so.0:_ZN8osgEarth16TerrainResourcesC2Ev
libosgEarth.so.0:_ZN8osgEarth16TerrainTileModelC1ERKNS_7TileKeyERKNS_8RevisionE
libosgEarth.so.0:_ZN8osgEarth16TerrainTileModelC2ERKNS_7TileKeyERKNS_8RevisionE
libosgEarth.so.0:_ZN8osgEarth16TiXmlDeclaration5ParseEPKcP16TiXmlParsingData13TiXmlEncoding
libosgEarth.so.0:_ZN8osgEarth16TiXmlDeclaration8StreamInEPSiPNSt7__cxx1112basic_stringIcSt11char_traitsIcESaIcEEE
libosgEarth.so.0:_ZN8osgEarth16TiXmlDeclarationC1EPKcS2_S2_
libosgEarth.so.0:_ZN8osgEarth16TiXmlDeclarationC1ERKNSt7__cxx1112basic_stringIcSt11char_traitsIcESaIcEEES8_S8_
libosgEarth.so.0:_ZN8osgEarth16TiXmlDeclarationC1ERKS0_
libosgEarth.so.0:_ZN8osgEarth16TiXmlDeclarationC2EPKcS2_S2_
libosgEarth.so.0:_ZN8osgEarth16TiXmlDeclarationC2ERKNSt7__cxx1112basic_stringIcSt11char_traitsIcESaIcEEES8_S8_
libosgEarth.so.0:_ZN8osgEarth16TiXmlDeclarationC2ERKS0_
libosgEarth.so.0:_ZN8osgEarth16TiXmlDeclarationaSERKS0_
libosgEarth.so.0:_ZN8osgEarth16getNotifyHandlerEv
libosgEarth.so.0:_ZN8osgEarth16htmlColorToVec4fERKNSt7__cxx1112basic_stringIcSt11char_traitsIcESaIcEEE
libosgEarth.so.0:_ZN8osgEarth16setNotifyHandlerEPN3osg13NotifyHandlerE
libosgEarth.so.0:_ZN8osgEarth16vec4fToHtmlColorB5cxx11ERKN3osg5Vec4fE
libosgEarth.so.0:_ZN8osgEarth17ClampingTechnique11onUninstallEPNS_17TerrainEngineNodeE
libosgEarth.so.0:_ZN8osgEarth17ClampingTechnique11reestablishEPNS_17TerrainEngineNodeE
libosgEarth.so.0:_ZN8osgEarth17ClampingTechnique11setUpCameraERNS_16OverlayDecorator13TechRTTParamsE
libosgEarth.so.0:_ZN8osgEarth17ClampingTechnique14preCullTerrainERNS_16OverlayDecorator13TechRTTParamsEPN7osgUtil11CullVisitorE
libosgEarth.so.0:_ZN8osgEarth17ClampingTechnique14setTextureSizeEi
libosgEarth.so.0:_ZN8osgEarth17ClampingTechnique16cullOverlayGroupERNS_16OverlayDecorator13TechRTTParamsEPN7osgUtil11CullVisitorE
libosgEarth.so.0:_ZN8osgEarth17ClampingTechnique9onInstallEPNS_17TerrainEngineNodeE
libosgEarth.so.0:_ZN8osgEarth17ClampingTechniqueC1Ev
libosgEarth.so.0:_ZN8osgEarth17ClampingTechniqueC2Ev
libosgEarth.so.0:_ZN8osgEarth17ElevationEnvelope12getElevationEdd
libosgEarth.so.0:_ZN8osgEarth17ElevationEnvelope13getElevationsERKSt6vectorIN3osg5Vec3dESaIS3_EERS1_IfSaIfEE
libosgEarth.so.0:_ZN8osgEarth17ElevationEnvelope19getElevationExtremaERKSt6vectorIN3osg5Vec3dESaIS3_EERfS8_
libosgEarth.so.0:_ZN8osgEarth17ElevationEnvelope25getElevationAndResolutionEdd
libosgEarth.so.0:_ZN8osgEarth17ElevationEnvelope6sampleEddRfS1_
libosgEarth.so.0:_ZN8osgEarth17ElevationEnvelopeC1Ev
libosgEarth.so.0:_ZN8osgEarth17ElevationEnvelopeC2Ev
libosgEarth.so.0:_ZN8osgEarth17ElevationEnvelopeD0Ev
libosgEarth.so.0:_ZN8osgEarth17ElevationEnvelopeD1Ev
libosgEarth.so.0:_ZN8osgEarth17ElevationEnvelopeD2Ev
libosgEarth.so.0:_ZN8osgEarth17GeometryValidator5applyERN3osg5GroupE
libosgEarth.so.0:_ZN8osgEarth17GeometryValidator5applyERN3osg8GeometryE
libosgEarth.so.0:_ZN8osgEarth17GeometryValidatorC1Ev
libosgEarth.so.0:_ZN8osgEarth17GeometryValidatorC2Ev
libosgEarth.so.0:_ZN8osgEarth17ImageLayerOptions10fromConfigERKNS_6ConfigE
libosgEarth.so.0:_ZN8osgEarth17ImageLayerOptions11mergeConfigERKNS_6ConfigE
libosgEarth.so.0:_ZN8osgEarth17ImageLayerOptions11setDefaultsEv
libosgEarth.so.0:_ZN8osgEarth17ImageLayerOptionsC1ERKNS_13ConfigOptionsE
libosgEarth.so.0:_ZN8osgEarth17ImageLayerOptionsC1ERKNSt7__cxx1112basic_stringIcSt11char_traitsIcESaIcEEE
libosgEarth.so.0:_ZN8osgEarth17ImageLayerOptionsC1ERKNSt7__cxx1112basic_stringIcSt11char_traitsIcESaIcEEERKNS_17TileSourceOptionsE
libosgEarth.so.0:_ZN8osgEarth17ImageLayerOptionsC1Ev
libosgEarth.so.0:_ZN8osgEarth17ImageLayerOptionsC2ERKNS_13ConfigOptionsE
libosgEarth.so.0:_ZN8osgEarth17ImageLayerOptionsC2ERKNSt7__cxx1112basic_stringIcSt11char_traitsIcESaIcEEE
libosgEarth.so.0:_ZN8osgEarth17ImageLayerOptionsC2ERKNSt7__cxx1112basic_stringIcSt11char_traitsIcESaIcEEERKNS_17TileSourceOptionsE
libosgEarth.so.0:_ZN8osgEarth17ImageLayerOptionsC2Ev
libosgEarth.so.0:_ZN8osgEarth17MaskSourceFactory6createERKNS_17MaskSourceOptionsE
libosgEarth.so.0:_ZN8osgEarth17MaskSourceFactoryD0Ev
libosgEarth.so.0:_ZN8osgEarth17MaskSourceFactoryD1Ev
libosgEarth.so.0:_ZN8osgEarth17MaskSourceFactoryD2Ev
libosgEarth.so.0:_ZN8osgEarth17MaskSourceOptions10fromConfigERKNS_6ConfigE
libosgEarth.so.0:_ZN8osgEarth17MaskSourceOptions11mergeConfigERKNS_6ConfigE
libosgEarth.so.0:_ZN8osgEarth17MaskSourceOptionsD0Ev
libosgEarth.so.0:_ZN8osgEarth17MaskSourceOptionsD1Ev
libosgEarth.so.0:_ZN8osgEarth17MaskSourceOptionsD2Ev
libosgEarth.so.0:_ZN8osgEarth17ModelLayerOptions10fromConfigERKNS_6ConfigE
libosgEarth.so.0:_ZN8osgEarth17ModelLayerOptions11mergeConfigERKNS_6ConfigE
libosgEarth.so.0:_ZN8osgEarth17ModelLayerOptions11setDefaultsEv
libosgEarth.so.0:_ZN8osgEarth17ModelLayerOptionsC1ERKNS_13ConfigOptionsE
libosgEarth.so.0:_ZN8osgEarth17ModelLayerOptionsC1ERKNSt7__cxx1112basic_stringIcSt11char_traitsIcESaIcEEERKNS_18ModelSourceOptionsE
libosgEarth.so.0:_ZN8osgEarth17ModelLayerOptionsC1Ev
libosgEarth.so.0:_ZN8osgEarth17ModelLayerOptionsC2ERKNS_13ConfigOptionsE
libosgEarth.so.0:_ZN8osgEarth17ModelLayerOptionsC2ERKNSt7__cxx1112basic_stringIcSt11char_traitsIcESaIcEEERKNS_18ModelSourceOptionsE
libosgEarth.so.0:_ZN8osgEarth17ModelLayerOptionsC2Ev
libosgEarth.so.0:_ZN8osgEarth17ModelSourceDriverD0Ev
libosgEarth.so.0:_ZN8osgEarth17ModelSourceDriverD1Ev
libosgEarth.so.0:_ZN8osgEarth17ModelSourceDriverD2Ev
libosgEarth.so.0:_ZN8osgEarth17ScreenSpaceLayout10deactivateEPN3osg8StateSetE
libosgEarth.so.0:_ZN8osgEarth17ScreenSpaceLayout10getOptionsEv
libosgEarth.so.0:_ZN8osgEarth17ScreenSpaceLayout10setOptionsERKNS_24ScreenSpaceLayoutOptionsE
libosgEarth.so.0:_ZN8osgEarth17ScreenSpaceLayout14setSortFunctorEPNS_20DeclutterSortFunctorE
libosgEarth.so.0:_ZN8osgEarth17ScreenSpaceLayout16clearSortFunctorEv
libosgEarth.so.0:_ZN8osgEarth17ScreenSpaceLayout22setDeclutteringEnabledEb
libosgEarth.so.0:_ZN8osgEarth17ScreenSpaceLayout8activateEPN3osg8StateSetE
libosgEarth.so.0:_ZN8osgEarth17TerrainEngineNode12dirtyTerrainEv
libosgEarth.so.0:_ZN8osgEarth17TerrainEngineNode12removeEffectEPNS_13TerrainEffectE
libosgEarth.so.0:_ZN8osgEarth17TerrainEngineNode13requestRedrawEv
libosgEarth.so.0:_ZN8osgEarth17TerrainEngineNode15createTileModelEPKNS_3MapERKNS_7TileKeyERKNS_21CreateTileModelFilterEPNS_16ProgressCallbackE
libosgEarth.so.0:_ZN8osgEarth17TerrainEngineNode17onMapModelChangedERKNS_14MapModelChangeE
libosgEarth.so.0:_ZN8osgEarth17TerrainEngineNode20ImageLayerController21onColorFiltersChangedEPNS_10ImageLayerE
libosgEarth.so.0:_ZN8osgEarth17TerrainEngineNode20ImageLayerControllerC1EPS0_
libosgEarth.so.0:_ZN8osgEarth17TerrainEngineNode20ImageLayerControllerC2EPS0_
libosgEarth.so.0:_ZN8osgEarth17TerrainEngineNode20onMapInfoEstablishedERKNS_7MapInfoE
libosgEarth.so.0:_ZN8osgEarth17TerrainEngineNode21requireNormalTexturesEv
libosgEarth.so.0:_ZN8osgEarth17TerrainEngineNode21requireParentTexturesEv
libosgEarth.so.0:_ZN8osgEarth17TerrainEngineNode23setComputeRangeCallbackEPNS_20ComputeRangeCallbackE
libosgEarth.so.0:_ZN8osgEarth17TerrainEngineNode24requireElevationTexturesEv
libosgEarth.so.0:_ZN8osgEarth17TerrainEngineNode26addCreateTileModelCallbackEPNS0_23CreateTileModelCallbackE
libosgEarth.so.0:_ZN8osgEarth17TerrainEngineNode29removeCreateTileModelCallbackEPNS0_23CreateTileModelCallbackE
libosgEarth.so.0:_ZN8osgEarth17TerrainEngineNode31notifyOfTerrainTileNodeCreationERKNS_7TileKeyEPN3osg4NodeE
libosgEarth.so.0:_ZN8osgEarth17TerrainEngineNode32addModifyTileBoundingBoxCallbackEPNS0_29ModifyTileBoundingBoxCallbackE
libosgEarth.so.0:_ZN8osgEarth17TerrainEngineNode34fireModifyTileBoundingBoxCallbacksERKNS_7TileKeyERN3osg15BoundingBoxImplINS4_5Vec3fEEE
libosgEarth.so.0:_ZN8osgEarth17TerrainEngineNode35removeModifyTileBoundingBoxCallbackEPNS0_29ModifyTileBoundingBoxCallbackE
libosgEarth.so.0:_ZN8osgEarth17TerrainEngineNode6setMapEPKNS_3MapERKNS_14TerrainOptionsE
libosgEarth.so.0:_ZN8osgEarth17TerrainEngineNode8traverseERN3osg11NodeVisitorE
libosgEarth.so.0:_ZN8osgEarth17TerrainEngineNode9addEffectEPNS_13TerrainEffectE
libosgEarth.so.0:_ZN8osgEarth17TerrainEngineNodeC1Ev
libosgEarth.so.0:_ZN8osgEarth17TerrainEngineNodeC2Ev
libosgEarth.so.0:_ZN8osgEarth17TerrainEngineNodeD0Ev
libosgEarth.so.0:_ZN8osgEarth17TerrainEngineNodeD1Ev
libosgEarth.so.0:_ZN8osgEarth17TerrainEngineNodeD2Ev
libosgEarth.so.0:_ZN8osgEarth17TiXmlAttributeSet12FindOrCreateEPKc
libosgEarth.so.0:_ZN8osgEarth17TiXmlAttributeSet12FindOrCreateERKNSt7__cxx1112basic_stringIcSt11char_traitsIcESaIcEEE
libosgEarth.so.0:_ZN8osgEarth17TiXmlAttributeSet3AddEPNS_14TiXmlAttributeE
libosgEarth.so.0:_ZN8osgEarth17TiXmlAttributeSet6RemoveEPNS_14TiXmlAttributeE
libosgEarth.so.0:_ZN8osgEarth17TiXmlAttributeSetC1Ev
libosgEarth.so.0:_ZN8osgEarth17TiXmlAttributeSetC2Ev
libosgEarth.so.0:_ZN8osgEarth17TiXmlAttributeSetD1Ev
libosgEarth.so.0:_ZN8osgEarth17TiXmlAttributeSetD2Ev
libosgEarth.so.0:_ZN8osgEarth17TileSourceFactory6createERKNS_17TileSourceOptionsE
libosgEarth.so.0:_ZN8osgEarth17TileSourceOptions10fromConfigERKNS_6ConfigE
libosgEarth.so.0:_ZN8osgEarth17TileSourceOptions11mergeConfigERKNS_6ConfigE
libosgEarth.so.0:_ZN8osgEarth17TileSourceOptionsC1ERKNS_13ConfigOptionsE
libosgEarth.so.0:_ZN8osgEarth17TileSourceOptionsC2ERKNS_13ConfigOptionsE
libosgEarth.so.0:_ZN8osgEarth17VideoLayerOptions10fromConfigERKNS_6ConfigE
libosgEarth.so.0:_ZN8osgEarth17VideoLayerOptions11mergeConfigERKNS_6ConfigE
libosgEarth.so.0:_ZN8osgEarth17VideoLayerOptions11setDefaultsEv
libosgEarth.so.0:_ZN8osgEarth17VideoLayerOptionsC1ERKNS_13ConfigOptionsE
libosgEarth.so.0:_ZN8osgEarth17VideoLayerOptionsC1ERKNSt7__cxx1112basic_stringIcSt11char_traitsIcESaIcEEE
libosgEarth.so.0:_ZN8osgEarth17VideoLayerOptionsC1Ev
libosgEarth.so.0:_ZN8osgEarth17VideoLayerOptionsC2ERKNS_13ConfigOptionsE
libosgEarth.so.0:_ZN8osgEarth17VideoLayerOptionsC2ERKNSt7__cxx1112basic_stringIcSt11char_traitsIcESaIcEEE
libosgEarth.so.0:_ZN8osgEarth17VideoLayerOptionsC2Ev
libosgEarth.so.0:_ZN8osgEarth18DepthOffsetAdapter11recalculateEv
libosgEarth.so.0:_ZN8osgEarth18DepthOffsetAdapter14updateUniformsEv
libosgEarth.so.0:_ZN8osgEarth18DepthOffsetAdapter21setDepthOffsetOptionsERKNS_18DepthOffsetOptionsE
libosgEarth.so.0:_ZN8osgEarth18DepthOffsetAdapter4initEv
libosgEarth.so.0:_ZN8osgEarth18DepthOffsetAdapter8setGraphEPN3osg4NodeE
libosgEarth.so.0:_ZN8osgEarth18DepthOffsetAdapterC1EPN3osg4NodeE
libosgEarth.so.0:_ZN8osgEarth18DepthOffsetAdapterC1Ev
libosgEarth.so.0:_ZN8osgEarth18DepthOffsetAdapterC2EPN3osg4NodeE
libosgEarth.so.0:_ZN8osgEarth18DepthOffsetAdapterC2Ev
libosgEarth.so.0:_ZN8osgEarth18DepthOffsetOptionsC1ERKNS_6ConfigE
libosgEarth.so.0:_ZN8osgEarth18DepthOffsetOptionsC2ERKNS_6ConfigE
libosgEarth.so.0:_ZN8osgEarth18IntersectionPicker16setTraversalMaskEj
libosgEarth.so.0:_ZN8osgEarth18IntersectionPicker8setLimitERKNS0_5LimitE
libosgEarth.so.0:_ZN8osgEarth18IntersectionPicker9setBufferEf
libosgEarth.so.0:_ZN8osgEarth18IntersectionPickerC1EPN9osgViewer4ViewEPN3osg4NodeEjfNS0_5LimitE
libosgEarth.so.0:_ZN8osgEarth18IntersectionPickerC2EPN9osgViewer4ViewEPN3osg4NodeEjfNS0_5LimitE
libosgEarth.so.0:_ZN8osgEarth18ModelSourceFactory6createERKNS_18ModelSourceOptionsE
libosgEarth.so.0:_ZN8osgEarth18ModelSourceFactoryD0Ev
libosgEarth.so.0:_ZN8osgEarth18ModelSourceFactoryD1Ev
libosgEarth.so.0:_ZN8osgEarth18ModelSourceFactoryD2Ev
libosgEarth.so.0:_ZN8osgEarth18ModelSourceOptions10fromConfigERKNS_6ConfigE
libosgEarth.so.0:_ZN8osgEarth18ModelSourceOptions11mergeConfigERKNS_6ConfigE
libosgEarth.so.0:_ZN8osgEarth18ModelSourceOptionsC1ERKNS_13ConfigOptionsE
libosgEarth.so.0:_ZN8osgEarth18ModelSourceOptionsC2ERKNS_13ConfigOptionsE
libosgEarth.so.0:_ZN8osgEarth18ModelSourceOptionsD0Ev
libosgEarth.so.0:_ZN8osgEarth18ModelSourceOptionsD1Ev
libosgEarth.so.0:_ZN8osgEarth18ModelSourceOptionsD2Ev
libosgEarth.so.0:_ZN8osgEarth18ShaderPreProcessor3runEPN3osg6ShaderE
libosgEarth.so.0:_ZN8osgEarth18TaskServiceManager10reallocateEi
libosgEarth.so.0:_ZN8osgEarth18TaskServiceManager13setNumThreadsEi
libosgEarth.so.0:_ZN8osgEarth18TaskServiceManager3addEif
libosgEarth.so.0:_ZN8osgEarth18TaskServiceManager6removeEPNS_11TaskServiceE
libosgEarth.so.0:_ZN8osgEarth18TaskServiceManager6removeEi
libosgEarth.so.0:_ZN8osgEarth18TaskServiceManager8getOrAddEif
libosgEarth.so.0:_ZN8osgEarth18TaskServiceManager9setWeightEPNS_11TaskServiceEf
libosgEarth.so.0:_ZN8osgEarth18TaskServiceManagerC1Ei
libosgEarth.so.0:_ZN8osgEarth18TaskServiceManagerC2Ei
libosgEarth.so.0:_ZN8osgEarth18TileKeyListVisitor3runEPKNS_7ProfileE
libosgEarth.so.0:_ZN8osgEarth18TileKeyListVisitor7setKeysERKSt6vectorINS_7TileKeyESaIS2_EE
libosgEarth.so.0:_ZN8osgEarth18TileKeyListVisitorC1Ev
libosgEarth.so.0:_ZN8osgEarth18TileKeyListVisitorC2Ev
libosgEarth.so.0:_ZN8osgEarth18UnifiedCubeProfile7getFaceERKNS_7TileKeyE
libosgEarth.so.0:_ZN8osgEarth18UnifiedCubeProfileC1Ev
libosgEarth.so.0:_ZN8osgEarth18UnifiedCubeProfileC2Ev
libosgEarth.so.0:_ZN8osgEarth18UnifiedCubeProfileD0Ev
libosgEarth.so.0:_ZN8osgEarth18UnifiedCubeProfileD1Ev
libosgEarth.so.0:_ZN8osgEarth18UnifiedCubeProfileD2Ev
libosgEarth.so.0:_ZN8osgEarth19CollectFilesVisitor10handleFileERKNSt7__cxx1112basic_stringIcSt11char_traitsIcESaIcEEE
libosgEarth.so.0:_ZN8osgEarth19CollectFilesVisitorC1Ev
libosgEarth.so.0:_ZN8osgEarth19CollectFilesVisitorC2Ev
libosgEarth.so.0:_ZN8osgEarth19ColorFilterRegistry10writeChainERKSt6vectorIN3osg7ref_ptrINS_11ColorFilterEEESaIS5_EERNS_6ConfigE
libosgEarth.so.0:_ZN8osgEarth19ColorFilterRegistry3addERKNSt7__cxx1112basic_stringIcSt11char_traitsIcESaIcEEEPNS_18ColorFilterFactoryE
libosgEarth.so.0:_ZN8osgEarth19ColorFilterRegistry8instanceEv
libosgEarth.so.0:_ZN8osgEarth19ColorFilterRegistry9readChainERKNS_6ConfigERSt6vectorIN3osg7ref_ptrINS_11ColorFilterEEESaIS8_EE
libosgEarth.so.0:_ZN8osgEarth19CompositeTileSource10initializeEPKN5osgDB7OptionsE
libosgEarth.so.0:_ZN8osgEarth19CompositeTileSource11createImageERKNS_7TileKeyEPNS_16ProgressCallbackE
libosgEarth.so.0:_ZN8osgEarth19CompositeTileSource17createHeightFieldERKNS_7TileKeyEPNS_16ProgressCallbackE
libosgEarth.so.0:_ZN8osgEarth19CompositeTileSource3addEPNS_10ImageLayerE
libosgEarth.so.0:_ZN8osgEarth19CompositeTileSource3addEPNS_14ElevationLayerE
libosgEarth.so.0:_ZN8osgEarth19CompositeTileSourceC1ERKNS_17TileSourceOptionsE
libosgEarth.so.0:_ZN8osgEarth19CompositeTileSourceC2ERKNS_17TileSourceOptionsE
libosgEarth.so.0:_ZN8osgEarth19DriverConfigOptionsD0Ev
libosgEarth.so.0:_ZN8osgEarth19DriverConfigOptionsD1Ev
libosgEarth.so.0:_ZN8osgEarth19DriverConfigOptionsD2Ev
libosgEarth.so.0:_ZN8osgEarth19GL3RealizeOperationclEPN3osg6ObjectE
libosgEarth.so.0:_ZN8osgEarth19HorizonCullCallback9isVisibleEPN3osg4NodeEPNS1_11NodeVisitorE
libosgEarth.so.0:_ZN8osgEarth19HorizonCullCallbackC1Ev
libosgEarth.so.0:_ZN8osgEarth19HorizonCullCallbackC2Ev
libosgEarth.so.0:_ZN8osgEarth19HorizonCullCallbackclEPN3osg4NodeEPNS1_11NodeVisitorE
libosgEarth.so.0:_ZN8osgEarth19LandCoverDictionary8addClassERKNSt7__cxx1112basic_stringIcSt11char_traitsIcESaIcEEEi
libosgEarth.so.0:_ZN8osgEarth19LandCoverDictionaryC1ERKNS_26LandCoverDictionaryOptionsE
libosgEarth.so.0:_ZN8osgEarth19LandCoverDictionaryC1Ev
libosgEarth.so.0:_ZN8osgEarth19LandCoverDictionaryC2ERKNS_26LandCoverDictionaryOptionsE
libosgEarth.so.0:_ZN8osgEarth19LandCoverDictionaryC2Ev
libosgEarth.so.0:_ZN8osgEarth19PhongLightingEffect4initEv
libosgEarth.so.0:_ZN8osgEarth19PhongLightingEffect6attachEPN3osg8StateSetE
libosgEarth.so.0:_ZN8osgEarth19PhongLightingEffect6detachEPN3osg8StateSetE
libosgEarth.so.0:_ZN8osgEarth19PhongLightingEffect6detachEv
libosgEarth.so.0:_ZN8osgEarth19PhongLightingEffectC1EPN3osg8StateSetE
libosgEarth.so.0:_ZN8osgEarth19PhongLightingEffectC1Ev
libosgEarth.so.0:_ZN8osgEarth19PhongLightingEffectC2EPN3osg8StateSetE
libosgEarth.so.0:_ZN8osgEarth19PhongLightingEffectC2Ev
libosgEarth.so.0:_ZN8osgEarth19PhongLightingEffectD0Ev
libosgEarth.so.0:_ZN8osgEarth19PhongLightingEffectD1Ev
libosgEarth.so.0:_ZN8osgEarth19PhongLightingEffectD2Ev
libosgEarth.so.0:_ZN8osgEarth19SceneGraphCallbacks14fireRemoveNodeEPN3osg4NodeE
libosgEarth.so.0:_ZN8osgEarth19SceneGraphCallbacks16firePreMergeNodeEPN3osg4NodeE
libosgEarth.so.0:_ZN8osgEarth19SceneGraphCallbacks17firePostMergeNodeEPN3osg4NodeE
libosgEarth.so.0:_ZN8osgEarth19SceneGraphCallbacks3addEPNS_18SceneGraphCallbackE
libosgEarth.so.0:_ZN8osgEarth19SceneGraphCallbacks6removeEPNS_18SceneGraphCallbackE
libosgEarth.so.0:_ZN8osgEarth19SceneGraphCallbacksC1EPN3osg6ObjectE
libosgEarth.so.0:_ZN8osgEarth19SceneGraphCallbacksC2EPN3osg6ObjectE
libosgEarth.so.0:_ZN8osgEarth19TerrainLayerOptions10fromConfigERKNS_6ConfigE
libosgEarth.so.0:_ZN8osgEarth19TerrainLayerOptions11mergeConfigERKNS_6ConfigE
libosgEarth.so.0:_ZN8osgEarth19TerrainLayerOptions11setDefaultsEv
libosgEarth.so.0:_ZN8osgEarth19TerrainLayerOptionsC1ERKNS_13ConfigOptionsE
libosgEarth.so.0:_ZN8osgEarth19TerrainLayerOptionsC1ERKNSt7__cxx1112basic_stringIcSt11char_traitsIcESaIcEEE
libosgEarth.so.0:_ZN8osgEarth19TerrainLayerOptionsC1ERKNSt7__cxx1112basic_stringIcSt11char_traitsIcESaIcEEERKNS_17TileSourceOptionsE
libosgEarth.so.0:_ZN8osgEarth19TerrainLayerOptionsC1Ev
libosgEarth.so.0:_ZN8osgEarth19TerrainLayerOptionsC2ERKNS_13ConfigOptionsE
libosgEarth.so.0:_ZN8osgEarth19TerrainLayerOptionsC2ERKNSt7__cxx1112basic_stringIcSt11char_traitsIcESaIcEEE
libosgEarth.so.0:_ZN8osgEarth19TerrainLayerOptionsC2ERKNSt7__cxx1112basic_stringIcSt11char_traitsIcESaIcEEERKNS_17TileSourceOptionsE
libosgEarth.so.0:_ZN8osgEarth19TerrainLayerOptionsC2Ev
libosgEarth.so.0:_ZN8osgEarth19VisibleLayerOptions10fromConfigERKNS_6ConfigE
libosgEarth.so.0:_ZN8osgEarth19VisibleLayerOptions11mergeConfigERKNS_6ConfigE
libosgEarth.so.0:_ZN8osgEarth19VisibleLayerOptions11setDefaultsEv
libosgEarth.so.0:_ZN8osgEarth19VisibleLayerOptionsC1ERKNS_13ConfigOptionsE
libosgEarth.so.0:_ZN8osgEarth19VisibleLayerOptionsC1Ev
libosgEarth.so.0:_ZN8osgEarth19VisibleLayerOptionsC2ERKNS_13ConfigOptionsE
libosgEarth.so.0:_ZN8osgEarth19VisibleLayerOptionsC2Ev
libosgEarth.so.0:_ZN8osgEarth19getLastModifiedTimeERKNSt7__cxx1112basic_stringIcSt11char_traitsIcESaIcEEE
libosgEarth.so.0:_ZN8osgEarth20AltitudeCullCallbackclEPN3osg4NodeEPNS1_11NodeVisitorE
libosgEarth.so.0:_ZN8osgEarth20ChromeMetricsBackend3endERKNSt7__cxx1112basic_stringIcSt11char_traitsIcESaIcEEERKNS_6ConfigE
libosgEarth.so.0:_ZN8osgEarth20ChromeMetricsBackend5beginERKNSt7__cxx1112basic_stringIcSt11char_traitsIcESaIcEEERKNS_6ConfigE
libosgEarth.so.0:_ZN8osgEarth20ChromeMetricsBackend7counterERKNSt7__cxx1112basic_stringIcSt11char_traitsIcESaIcEEES8_dS8_dS8_d
libosgEarth.so.0:_ZN8osgEarth20ChromeMetricsBackendC1ERKNSt7__cxx1112basic_stringIcSt11char_traitsIcESaIcEEE
libosgEarth.so.0:_ZN8osgEarth20ChromeMetricsBackendC2ERKNSt7__cxx1112basic_stringIcSt11char_traitsIcESaIcEEE
libosgEarth.so.0:_ZN8osgEarth20ChromeMetricsBackendD0Ev
libosgEarth.so.0:_ZN8osgEarth20ChromeMetricsBackendD1Ev
libosgEarth.so.0:_ZN8osgEarth20ChromeMetricsBackendD2Ev
libosgEarth.so.0:_ZN8osgEarth20CubeSpatialReference5_initEv
libosgEarth.so.0:_ZN8osgEarth20CubeSpatialReferenceC1EPv
libosgEarth.so.0:_ZN8osgEarth20CubeSpatialReferenceC2EPv
libosgEarth.so.0:_ZN8osgEarth20CubeSpatialReferenceD0Ev
libosgEarth.so.0:_ZN8osgEarth20CubeSpatialReferenceD1Ev
libosgEarth.so.0:_ZN8osgEarth20CubeSpatialReferenceD2Ev
libosgEarth.so.0:_ZN8osgEarth20ElevationLayerVectorC1ERKS0_
libosgEarth.so.0:_ZN8osgEarth20ElevationLayerVectorC1Ev
libosgEarth.so.0:_ZN8osgEarth20ElevationLayerVectorC2ERKS0_
libosgEarth.so.0:_ZN8osgEarth20ElevationLayerVectorC2Ev
libosgEarth.so.0:_ZN8osgEarth20EllipsoidIntersector13intersectLineERKN3osg5Vec3dES4_RS2_
libosgEarth.so.0:_ZN8osgEarth20EllipsoidIntersectorC1EPKN3osg14EllipsoidModelE
libosgEarth.so.0:_ZN8osgEarth20EllipsoidIntersectorC2EPKN3osg14EllipsoidModelE
libosgEarth.so.0:_ZN8osgEarth20PrimitiveIntersector10intersectsERKN3osg18BoundingSphereImplINS1_5Vec3fEEE
libosgEarth.so.0:_ZN8osgEarth20PrimitiveIntersector12IntersectionC1ERKS1_
libosgEarth.so.0:_ZN8osgEarth20PrimitiveIntersector12IntersectionC2ERKS1_
libosgEarth.so.0:_ZN8osgEarth20PrimitiveIntersector12setThicknessEd
libosgEarth.so.0:_ZN8osgEarth20PrimitiveIntersector16intersectAndClipERN3osg5Vec3dES3_RKNS1_15BoundingBoxImplINS1_5Vec3fEEE
libosgEarth.so.0:_ZN8osgEarth20PrimitiveIntersector18findPrimitiveIndexEPN3osg8DrawableEj
libosgEarth.so.0:_ZN8osgEarth20PrimitiveIntersector5cloneERN7osgUtil19IntersectionVisitorE
libosgEarth.so.0:_ZN8osgEarth20PrimitiveIntersector5enterERKN3osg4NodeE
libosgEarth.so.0:_ZN8osgEarth20PrimitiveIntersector5leaveEv
libosgEarth.so.0:_ZN8osgEarth20PrimitiveIntersector5resetEv
libosgEarth.so.0:_ZN8osgEarth20PrimitiveIntersector9intersectERN7osgUtil19IntersectionVisitorEPN3osg8DrawableE
libosgEarth.so.0:_ZN8osgEarth20PrimitiveIntersectorC1EN7osgUtil11Intersector15CoordinateFrameERKN3osg5Vec3dES7_db
libosgEarth.so.0:_ZN8osgEarth20PrimitiveIntersectorC1EN7osgUtil11Intersector15CoordinateFrameEddd
libosgEarth.so.0:_ZN8osgEarth20PrimitiveIntersectorC1Ev
libosgEarth.so.0:_ZN8osgEarth20PrimitiveIntersectorC2EN7osgUtil11Intersector15CoordinateFrameERKN3osg5Vec3dES7_db
libosgEarth.so.0:_ZN8osgEarth20PrimitiveIntersectorC2EN7osgUtil11Intersector15CoordinateFrameEddd
libosgEarth.so.0:_ZN8osgEarth20PrimitiveIntersectorC2Ev
libosgEarth.so.0:_ZN8osgEarth20VertexCacheOptimizer5applyERN3osg8DrawableE
libosgEarth.so.0:_ZN8osgEarth20VertexCacheOptimizerC1Ev
libosgEarth.so.0:_ZN8osgEarth20VertexCacheOptimizerC2Ev
libosgEarth.so.0:_ZN8osgEarth20VerticalDatumFactory6createERKNSt7__cxx1112basic_stringIcSt11char_traitsIcESaIcEEE
libosgEarth.so.0:_ZN8osgEarth20isPathToArchivedFileERKNSt7__cxx1112basic_stringIcSt11char_traitsIcESaIcEEE
libosgEarth.so.0:_ZN8osgEarth20makeDirectoryForFileERKNSt7__cxx1112basic_stringIcSt11char_traitsIcESaIcEEE
libosgEarth.so.0:_ZN8osgEarth21ClusterCullingFactory16createAndInstallEPN3osg4NodeERKNS1_5Vec3dE
libosgEarth.so.0:_ZN8osgEarth21ClusterCullingFactory6createEPN3osg4NodeERKNS1_5Vec3dE
libosgEarth.so.0:_ZN8osgEarth21ClusterCullingFactory6createERKN3osg5Vec3fES4_ff
libosgEarth.so.0:_ZN8osgEarth21ClusterCullingFactory6createERKNS_9GeoExtentE
libosgEarth.so.0:_ZN8osgEarth21ClusterCullingFactory7create2EPN3osg4NodeERKNS1_5Vec3dE
libosgEarth.so.0:_ZN8osgEarth21ElevationLayerOptions10fromConfigERKNS_6ConfigE
libosgEarth.so.0:_ZN8osgEarth21ElevationLayerOptions11mergeConfigERKNS_6ConfigE
libosgEarth.so.0:_ZN8osgEarth21ElevationLayerOptions11setDefaultsEv
libosgEarth.so.0:_ZN8osgEarth21ElevationLayerOptionsC1ERKNS_13ConfigOptionsE
libosgEarth.so.0:_ZN8osgEarth21ElevationLayerOptionsC1ERKNSt7__cxx1112basic_stringIcSt11char_traitsIcESaIcEEE
libosgEarth.so.0:_ZN8osgEarth21ElevationLayerOptionsC1ERKNSt7__cxx1112basic_stringIcSt11char_traitsIcESaIcEEERKNS_17TileSourceOptionsE
libosgEarth.so.0:_ZN8osgEarth21ElevationLayerOptionsC1Ev
libosgEarth.so.0:_ZN8osgEarth21ElevationLayerOptionsC2ERKNS_13ConfigOptionsE
libosgEarth.so.0:_ZN8osgEarth21ElevationLayerOptionsC2ERKNSt7__cxx1112basic_stringIcSt11char_traitsIcESaIcEEE
libosgEarth.so.0:_ZN8osgEarth21ElevationLayerOptionsC2ERKNSt7__cxx1112basic_stringIcSt11char_traitsIcESaIcEEERKNS_17TileSourceOptionsE
libosgEarth.so.0:_ZN8osgEarth21ElevationLayerOptionsC2Ev
libosgEarth.so.0:_ZN8osgEarth21HorizonCullingProgram6removeEPN3osg8StateSetE
libosgEarth.so.0:_ZN8osgEarth21HorizonCullingProgram7installEPN3osg8StateSetE
libosgEarth.so.0:_ZN8osgEarth21LandCoverLayerOptions10fromConfigERKNS_6ConfigE
libosgEarth.so.0:_ZN8osgEarth21LandCoverLayerOptionsC1ERKNS_13ConfigOptionsE
libosgEarth.so.0:_ZN8osgEarth21LandCoverLayerOptionsC2ERKNS_13ConfigOptionsE
libosgEarth.so.0:_ZN8osgEarth21LandCoverValueMapping10fromConfigERKNS_6ConfigE
libosgEarth.so.0:_ZN8osgEarth21LandCoverValueMappingC1ERKNS_6ConfigE
libosgEarth.so.0:_ZN8osgEarth21LandCoverValueMappingC1ERKS0_RKN3osg6CopyOpE
libosgEarth.so.0:_ZN8osgEarth21LandCoverValueMappingC1EiRKNSt7__cxx1112basic_stringIcSt11char_traitsIcESaIcEEE
libosgEarth.so.0:_ZN8osgEarth21LandCoverValueMappingC1Ev
libosgEarth.so.0:_ZN8osgEarth21LandCoverValueMappingC2ERKNS_6ConfigE
libosgEarth.so.0:_ZN8osgEarth21LandCoverValueMappingC2ERKS0_RKN3osg6CopyOpE
libosgEarth.so.0:_ZN8osgEarth21LandCoverValueMappingC2EiRKNSt7__cxx1112basic_stringIcSt11char_traitsIcESaIcEEE
libosgEarth.so.0:_ZN8osgEarth21LandCoverValueMappingC2Ev
libosgEarth.so.0:_ZN8osgEarth21TerrainTileLayerModelC1Ev
libosgEarth.so.0:_ZN8osgEarth21TerrainTileLayerModelC2Ev
libosgEarth.so.0:_ZN8osgEarth22LandCoverCoverageLayerC1ERKNS_29LandCoverCoverageLayerOptionsE
libosgEarth.so.0:_ZN8osgEarth22LandCoverCoverageLayerC1Ev
libosgEarth.so.0:_ZN8osgEarth22LandCoverCoverageLayerC2ERKNS_29LandCoverCoverageLayerOptionsE
libosgEarth.so.0:_ZN8osgEarth22LandCoverCoverageLayerC2Ev
libosgEarth.so.0:_ZN8osgEarth22SetDataVarianceVisitor5applyERN3osg8DrawableE
libosgEarth.so.0:_ZN8osgEarth22SetDataVarianceVisitorC1EN3osg6Object12DataVarianceE
libosgEarth.so.0:_ZN8osgEarth22SetDataVarianceVisitorC2EN3osg6Object12DataVarianceE
libosgEarth.so.0:_ZN8osgEarth22TextureAndImageVisitor5applyERN3osg4NodeE
libosgEarth.so.0:_ZN8osgEarth22TextureAndImageVisitor5applyERN3osg7TextureE
libosgEarth.so.0:_ZN8osgEarth22TextureAndImageVisitor5applyERN3osg8StateSetE
libosgEarth.so.0:_ZN8osgEarth22TextureAndImageVisitorC1Ev
libosgEarth.so.0:_ZN8osgEarth22TextureAndImageVisitorC2Ev
libosgEarth.so.0:_ZN8osgEarth22TransientUserDataStore17isObserverInvalidERKSt4pairIPvNS0_8DataPairEE
libosgEarth.so.0:_ZN8osgEarth22TransientUserDataStore5storeEPN3osg10ReferencedERKNSt7__cxx1112basic_stringIcSt11char_traitsIcESaIcEEES3_
libosgEarth.so.0:_ZN8osgEarth22TransientUserDataStore6removeEPN3osg10ReferencedERKNSt7__cxx1112basic_stringIcSt11char_traitsIcESaIcEEE
libosgEarth.so.0:_ZN8osgEarth22TransientUserDataStore8unitTestEv
libosgEarth.so.0:_ZN8osgEarth23CascadeDrapingDecorator11CameraLocal10initializeEPN3osg6CameraERS0_
libosgEarth.so.0:_ZN8osgEarth23CascadeDrapingDecorator11CameraLocal13objectDeletedEPv
libosgEarth.so.0:_ZN8osgEarth23CascadeDrapingDecorator11CameraLocal16intersectTerrainERS0_RKN3osg5Vec3dES6_RS4_
libosgEarth.so.0:_ZN8osgEarth23CascadeDrapingDecorator11CameraLocal23constrainRttBoxToBoundsERKN3osg7MatrixdERKNS2_18BoundingSphereImplINS2_5Vec3fEEERNS2_15BoundingBoxImplINS2_5Vec3dEEE
libosgEarth.so.0:_ZN8osgEarth23CascadeDrapingDecorator11CameraLocal24constrainRttBoxToFrustumERKN3osg7MatrixdES5_RKNS2_14EllipsoidModelEbRNS2_15BoundingBoxImplINS2_5Vec3dEEE
libosgEarth.so.0:_ZN8osgEarth23CascadeDrapingDecorator11CameraLocal4dumpEPKN3osg6CameraERS0_
libosgEarth.so.0:_ZN8osgEarth23CascadeDrapingDecorator11CameraLocal5clearEv
libosgEarth.so.0:_ZN8osgEarth23CascadeDrapingDecorator11CameraLocal8traverseEPN7osgUtil11CullVisitorERS0_RKN3osg18BoundingSphereImplINS6_5Vec3fEEE
libosgEarth.so.0:_ZN8osgEarth23CascadeDrapingDecorator11CameraLocalD0Ev
libosgEarth.so.0:_ZN8osgEarth23CascadeDrapingDecorator11CameraLocalD1Ev
libosgEarth.so.0:_ZN8osgEarth23CascadeDrapingDecorator11CameraLocalD2Ev
libosgEarth.so.0:_ZN8osgEarth23CascadeDrapingDecorator13setUseMipMapsEb
libosgEarth.so.0:_ZN8osgEarth23CascadeDrapingDecorator14setTextureSizeEj
libosgEarth.so.0:_ZN8osgEarth23CascadeDrapingDecorator17setMaxNumCascadesEj
libosgEarth.so.0:_ZN8osgEarth23CascadeDrapingDecorator18setNumMultiSamplesEj
libosgEarth.so.0:_ZN8osgEarth23CascadeDrapingDecorator22setMinimumNearFarRatioEd
libosgEarth.so.0:_ZN8osgEarth23CascadeDrapingDecorator23reserveTextureImageUnitEv
libosgEarth.so.0:_ZN8osgEarth23CascadeDrapingDecorator23setUseProjectionFittingEb
libosgEarth.so.0:_ZN8osgEarth23CascadeDrapingDecorator7Cascade15expandToIncludeERKN3osg5Vec3dE
libosgEarth.so.0:_ZN8osgEarth23CascadeDrapingDecorator7Cascade17computeProjectionERKN3osg7MatrixdES5_RKNS2_14EllipsoidModelERKNS2_5PlaneEdRKNS2_15BoundingBoxImplINS2_5Vec3dEEE
libosgEarth.so.0:_ZN8osgEarth23CascadeDrapingDecorator7Cascade19computeClipCoverageERKN3osg7MatrixdES5_
libosgEarth.so.0:_ZN8osgEarth23CascadeDrapingDecorator7Cascade8makeProjEd
libosgEarth.so.0:_ZN8osgEarth23CascadeDrapingDecorator7getDumpEv
libosgEarth.so.0:_ZN8osgEarth23CascadeDrapingDecorator8traverseERN3osg11NodeVisitorE
libosgEarth.so.0:_ZN8osgEarth23CascadeDrapingDecoratorC1EPKNS_16SpatialReferenceEPNS_16TerrainResourcesE
libosgEarth.so.0:_ZN8osgEarth23CascadeDrapingDecoratorC2EPKNS_16SpatialReferenceEPNS_16TerrainResourcesE
libosgEarth.so.0:_ZN8osgEarth23ClipToGeocentricHorizonC1EPKNS_16SpatialReferenceEPN3osg9ClipPlaneE
libosgEarth.so.0:_ZN8osgEarth23ClipToGeocentricHorizonC2EPKNS_16SpatialReferenceEPN3osg9ClipPlaneE
libosgEarth.so.0:_ZN8osgEarth23ClipToGeocentricHorizonclEPN3osg4NodeEPNS1_11NodeVisitorE
libosgEarth.so.0:_ZN8osgEarth23ConsoleProgressCallback11reportErrorERKNSt7__cxx1112basic_stringIcSt11char_traitsIcESaIcEEE
libosgEarth.so.0:_ZN8osgEarth23ConsoleProgressCallback14reportProgressEddjjRKNSt7__cxx1112basic_stringIcSt11char_traitsIcESaIcEEE
libosgEarth.so.0:_ZN8osgEarth23ConsoleProgressCallbackC1Ev
libosgEarth.so.0:_ZN8osgEarth23ConsoleProgressCallbackC2Ev
libosgEarth.so.0:_ZN8osgEarth23GeometryClamperCallback11onTileAddedERKNS_7TileKeyEPN3osg4NodeERNS_22TerrainCallbackContextE
libosgEarth.so.0:_ZN8osgEarth23ImageLayerTileProcessor4initERKNS_17ImageLayerOptionsEPKN5osgDB7OptionsEb
libosgEarth.so.0:_ZN8osgEarth23ImageLayerTileProcessorC1ERKNS_17ImageLayerOptionsE
libosgEarth.so.0:_ZN8osgEarth23ImageLayerTileProcessorC2ERKNS_17ImageLayerOptionsE
libosgEarth.so.0:_ZN8osgEarth23MultiprocessTileVisitor10handleTileERKNS_7TileKeyE
libosgEarth.so.0:_ZN8osgEarth23MultiprocessTileVisitor12processBatchEv
libosgEarth.so.0:_ZN8osgEarth23MultiprocessTileVisitor12setBatchSizeEj
libosgEarth.so.0:_ZN8osgEarth23MultiprocessTileVisitor12setEarthFileERKNSt7__cxx1112basic_stringIcSt11char_traitsIcESaIcEEE
libosgEarth.so.0:_ZN8osgEarth23MultiprocessTileVisitor15setNumProcessesEj
libosgEarth.so.0:_ZN8osgEarth23MultiprocessTileVisitor3runEPKNS_7ProfileE
libosgEarth.so.0:_ZN8osgEarth23MultiprocessTileVisitorC1EPNS_11TileHandlerE
libosgEarth.so.0:_ZN8osgEarth23MultiprocessTileVisitorC1Ev
libosgEarth.so.0:_ZN8osgEarth23MultiprocessTileVisitorC2EPNS_11TileHandlerE
libosgEarth.so.0:_ZN8osgEarth23MultiprocessTileVisitorC2Ev
libosgEarth.so.0:_ZN8osgEarth23PrimitiveSetTypeCounter5applyERN3osg8DrawableE
libosgEarth.so.0:_ZN8osgEarth23PrimitiveSetTypeCounterC1Ev
libosgEarth.so.0:_ZN8osgEarth23PrimitiveSetTypeCounterC2Ev
libosgEarth.so.0:_ZN8osgEarth23TerrainTileModelFactory12addElevationEPNS_16TerrainTileModelEPKNS_3MapERKNS_7TileKeyERKNS_21CreateTileModelFilterEjPNS_16ProgressCallbackE
libosgEarth.so.0:_ZN8osgEarth23TerrainTileModelFactory14addColorLayersEPNS_16TerrainTileModelEPKNS_3MapEPKNS_25TerrainEngineRequirementsERKNS_7TileKeyERKNS_21CreateTileModelFilterEPNS_16ProgressCallbackE
libosgEarth.so.0:_ZN8osgEarth23TerrainTileModelFactory14addPatchLayersEPNS_16TerrainTileModelEPKNS_3MapERKNS_7TileKeyERKNS_21CreateTileModelFilterEPNS_16ProgressCallbackE
libosgEarth.so.0:_ZN8osgEarth23TerrainTileModelFactory15createTileModelEPKNS_3MapERKNS_7TileKeyERKNS_21CreateTileModelFilterEPKNS_25TerrainEngineRequirementsEPNS_16ProgressCallbackE
libosgEarth.so.0:_ZN8osgEarth23TerrainTileModelFactory22getOrCreateHeightFieldEPKNS_3MapERKNS_7TileKeyENS_21ElevationSamplePolicyENS_22ElevationInterpolationEjRN3osg7ref_ptrINS9_11HeightFieldEEERNSA_INS_9NormalMapEEEPNS_16ProgressCallbackE
libosgEarth.so.0:_ZN8osgEarth23TerrainTileModelFactoryC1ERKNS_14TerrainOptionsE
libosgEarth.so.0:_ZN8osgEarth23TerrainTileModelFactoryC2ERKNS_14TerrainOptionsE
libosgEarth.so.0:_ZN8osgEarth23URIAliasMapReadCallback10readObjectERKNSt7__cxx1112basic_stringIcSt11char_traitsIcESaIcEEEPKN5osgDB7OptionsE
libosgEarth.so.0:_ZN8osgEarth23URIAliasMapReadCallback10readShaderERKNSt7__cxx1112basic_stringIcSt11char_traitsIcESaIcEEEPKN5osgDB7OptionsE
libosgEarth.so.0:_ZN8osgEarth23URIAliasMapReadCallback11openArchiveERKNSt7__cxx1112basic_stringIcSt11char_traitsIcESaIcEEEN5osgDB12ReaderWriter13ArchiveStatusEjPKNS9_7OptionsE
libosgEarth.so.0:_ZN8osgEarth23URIAliasMapReadCallback15readHeightFieldERKNSt7__cxx1112basic_stringIcSt11char_traitsIcESaIcEEEPKN5osgDB7OptionsE
libosgEarth.so.0:_ZN8osgEarth23URIAliasMapReadCallback8readNodeERKNSt7__cxx1112basic_stringIcSt11char_traitsIcESaIcEEEPKN5osgDB7OptionsE
libosgEarth.so.0:_ZN8osgEarth23URIAliasMapReadCallback9readImageERKNSt7__cxx1112basic_stringIcSt11char_traitsIcESaIcEEEPKN5osgDB7OptionsE
libosgEarth.so.0:_ZN8osgEarth23URIAliasMapReadCallbackC1ERKNS_11URIAliasMapERKNS_10URIContextE
libosgEarth.so.0:_ZN8osgEarth23URIAliasMapReadCallbackC2ERKNS_11URIAliasMapERKNS_10URIContextE
libosgEarth.so.0:_ZN8osgEarth24MultithreadedTileVisitor10handleTileERKNS_7TileKeyE
libosgEarth.so.0:_ZN8osgEarth24MultithreadedTileVisitor13setNumThreadsEj
libosgEarth.so.0:_ZN8osgEarth24MultithreadedTileVisitor3runEPKNS_7ProfileE
libosgEarth.so.0:_ZN8osgEarth24MultithreadedTileVisitorC1EPNS_11TileHandlerE
libosgEarth.so.0:_ZN8osgEarth24MultithreadedTileVisitorC1Ev
libosgEarth.so.0:_ZN8osgEarth24MultithreadedTileVisitorC2EPNS_11TileHandlerE
libosgEarth.so.0:_ZN8osgEarth24MultithreadedTileVisitorC2Ev
libosgEarth.so.0:_ZN8osgEarth24OcclusionCullingCallback14setMaxAltitudeEd
libosgEarth.so.0:_ZN8osgEarth24OcclusionCullingCallback15getMaxFrameTimeEv
libosgEarth.so.0:_ZN8osgEarth24OcclusionCullingCallback15setMaxFrameTimeEd
libosgEarth.so.0:_ZN8osgEarth24OcclusionCullingCallbackC1EPNS_12GeoTransformE
libosgEarth.so.0:_ZN8osgEarth24OcclusionCullingCallbackC2EPNS_12GeoTransformE
libosgEarth.so.0:_ZN8osgEarth24OcclusionCullingCallbackclEPN3osg4NodeEPNS1_11NodeVisitorE
libosgEarth.so.0:_ZN8osgEarth24RangeUniformCullCallbackC1Ev
libosgEarth.so.0:_ZN8osgEarth24RangeUniformCullCallbackC2Ev
libosgEarth.so.0:_ZN8osgEarth24RangeUniformCullCallbackclEPN3osg4NodeEPNS1_11NodeVisitorE
libosgEarth.so.0:_ZN8osgEarth24RemoveEmptyGroupsVisitor5applyERN3osg5GroupE
libosgEarth.so.0:_ZN8osgEarth24RemoveEmptyGroupsVisitorC1Ev
libosgEarth.so.0:_ZN8osgEarth24RemoveEmptyGroupsVisitorC2Ev
libosgEarth.so.0:_ZN8osgEarth24ScreenSpaceLayoutOptions10fromConfigERKNS_6ConfigE
libosgEarth.so.0:_ZN8osgEarth24TerrainEngineNodeFactory6createERKNS_14TerrainOptionsE
libosgEarth.so.0:_ZN8osgEarth25TerrainTileElevationModelC1Ev
libosgEarth.so.0:_ZN8osgEarth25TerrainTileElevationModelC2Ev
libosgEarth.so.0:_ZN8osgEarth26CompositeTileSourceOptions10fromConfigERKNS_6ConfigE
libosgEarth.so.0:_ZN8osgEarth26CompositeTileSourceOptions11mergeConfigERKNS_6ConfigE
libosgEarth.so.0:_ZN8osgEarth26CompositeTileSourceOptions3addERKNS_17ImageLayerOptionsE
libosgEarth.so.0:_ZN8osgEarth26CompositeTileSourceOptions3addERKNS_21ElevationLayerOptionsE
libosgEarth.so.0:_ZN8osgEarth26CompositeTileSourceOptionsC1ERKNS_17TileSourceOptionsE
libosgEarth.so.0:_ZN8osgEarth26CompositeTileSourceOptionsC2ERKNS_17TileSourceOptionsE
libosgEarth.so.0:_ZN8osgEarth26InstallViewportSizeUniformclEPN3osg4NodeEPNS1_11NodeVisitorE
libosgEarth.so.0:_ZN8osgEarth26LandCoverDictionaryOptions10fromConfigERKNS_6ConfigE
libosgEarth.so.0:_ZN8osgEarth26LandCoverDictionaryOptions11loadFromXMLERKNS_3URIE
libosgEarth.so.0:_ZN8osgEarth26PagedLODWithNodeOperations11insertChildEjPN3osg4NodeE
libosgEarth.so.0:_ZN8osgEarth26PagedLODWithNodeOperations12replaceChildEPN3osg4NodeES3_
libosgEarth.so.0:_ZN8osgEarth26PagedLODWithNodeOperations12runPostMergeEPN3osg4NodeE
libosgEarth.so.0:_ZN8osgEarth26PagedLODWithNodeOperations8addChildEPN3osg4NodeE
libosgEarth.so.0:_ZN8osgEarth26PagedLODWithNodeOperationsC1EPNS_22RefNodeOperationVectorE
libosgEarth.so.0:_ZN8osgEarth26PagedLODWithNodeOperationsC2EPNS_22RefNodeOperationVectorE
libosgEarth.so.0:_ZN8osgEarth27GenerateGL3LightingUniforms5applyERN3osg11LightSourceE
libosgEarth.so.0:_ZN8osgEarth27GenerateGL3LightingUniforms5applyERN3osg4NodeE
libosgEarth.so.0:_ZN8osgEarth27GenerateGL3LightingUniformsC1Ev
libosgEarth.so.0:_ZN8osgEarth27GenerateGL3LightingUniformsC2Ev
libosgEarth.so.0:_ZN8osgEarth27ImageToHeightFieldConverter21setRemoveNoDataValuesEbf
libosgEarth.so.0:_ZN8osgEarth27ImageToHeightFieldConverter7convertEPKN3osg11HeightFieldEi
libosgEarth.so.0:_ZN8osgEarth27ImageToHeightFieldConverter7convertEPKN3osg5ImageE
libosgEarth.so.0:_ZN8osgEarth27ImageToHeightFieldConverter7convertEPKN3osg5ImageEf
libosgEarth.so.0:_ZN8osgEarth27ImageToHeightFieldConverterC1Ev
libosgEarth.so.0:_ZN8osgEarth27ImageToHeightFieldConverterC2Ev
libosgEarth.so.0:_ZN8osgEarth27TextureImageUnitReservationC1Ev
libosgEarth.so.0:_ZN8osgEarth27TextureImageUnitReservationC2Ev
libosgEarth.so.0:_ZN8osgEarth27TextureImageUnitReservationD0Ev
libosgEarth.so.0:_ZN8osgEarth27TextureImageUnitReservationD1Ev
libosgEarth.so.0:_ZN8osgEarth27TextureImageUnitReservationD2Ev
libosgEarth.so.0:_ZN8osgEarth28TangentPlaneSpatialReference5_initEv
libosgEarth.so.0:_ZN8osgEarth28TangentPlaneSpatialReferenceC1EPvRKN3osg5Vec3dE
libosgEarth.so.0:_ZN8osgEarth28TangentPlaneSpatialReferenceC2EPvRKN3osg5Vec3dE
libosgEarth.so.0:_ZN8osgEarth29LandCoverCoverageLayerOptions10fromConfigERKNS_6ConfigE
libosgEarth.so.0:_ZN8osgEarth29LandCoverCoverageLayerOptions19loadMappingsFromXMLERKNS_3URIE
libosgEarth.so.0:_ZN8osgEarth29LandCoverCoverageLayerOptions3mapEiRKNSt7__cxx1112basic_stringIcSt11char_traitsIcESaIcEEE
libosgEarth.so.0:_ZN8osgEarth29LandCoverCoverageLayerOptionsC1ERKNS_13ConfigOptionsE
libosgEarth.so.0:_ZN8osgEarth29LandCoverCoverageLayerOptionsC2ERKNS_13ConfigOptionsE
libosgEarth.so.0:_ZN8osgEarth30LightSourceGL3UniformGenerator21resizeGLBufferObjectsEj
libosgEarth.so.0:_ZN8osgEarth30LightSourceGL3UniformGenerator3runEPN3osg6ObjectES3_
libosgEarth.so.0:_ZN8osgEarth31PagedLODWithSceneGraphCallbacks11insertChildEjPN3osg4NodeE
libosgEarth.so.0:_ZN8osgEarth31PagedLODWithSceneGraphCallbacks12childRemovedEjj
libosgEarth.so.0:_ZN8osgEarth31PagedLODWithSceneGraphCallbacks12replaceChildEPN3osg4NodeES3_
libosgEarth.so.0:_ZN8osgEarth31PagedLODWithSceneGraphCallbacks22setSceneGraphCallbacksEPNS_19SceneGraphCallbacksE
libosgEarth.so.0:_ZN8osgEarth31PagedLODWithSceneGraphCallbacks8addChildEPN3osg4NodeE
libosgEarth.so.0:_ZN8osgEarth31PagedLODWithSceneGraphCallbacksC1EPNS_19SceneGraphCallbacksE
libosgEarth.so.0:_ZN8osgEarth31PagedLODWithSceneGraphCallbacksC2EPNS_19SceneGraphCallbacksE
libosgEarth.so.0:_ZN8osgEarth36AllocateAndMergeBufferObjectsVisitor5applyERN3osg8DrawableE
libosgEarth.so.0:_ZN8osgEarth36AllocateAndMergeBufferObjectsVisitorC1Ev
libosgEarth.so.0:_ZN8osgEarth36AllocateAndMergeBufferObjectsVisitorC2Ev
libosgEarth.so.0:_ZN8osgEarth3Map10closeLayerEPNS_5LayerE
libosgEarth.so.0:_ZN8osgEarth3Map10setMapNameERKNSt7__cxx1112basic_stringIcSt11char_traitsIcESaIcEEE
libosgEarth.so.0:_ZN8osgEarth3Map11beginUpdateEv
libosgEarth.so.0:_ZN8osgEarth3Map11insertLayerEPNS_5LayerEj
libosgEarth.so.0:_ZN8osgEarth3Map11removeLayerEPNS_5LayerE
libosgEarth.so.0:_ZN8osgEarth3Map14VisibleLayerCB16onVisibleChangedEPNS_12VisibleLayerE
libosgEarth.so.0:_ZN8osgEarth3Map14VisibleLayerCBC1EPS0_
libosgEarth.so.0:_ZN8osgEarth3Map14VisibleLayerCBC2EPS0_
libosgEarth.so.0:_ZN8osgEarth3Map16calculateProfileEv
libosgEarth.so.0:_ZN8osgEarth3Map16setGlobalOptionsEPKN5osgDB7OptionsE
libosgEarth.so.0:_ZN8osgEarth3Map16setLayersFromMapEPKS0_
libosgEarth.so.0:_ZN8osgEarth3Map21installLayerCallbacksEPNS_5LayerE
libosgEarth.so.0:_ZN8osgEarth3Map23uninstallLayerCallbacksEPNS_5LayerE
libosgEarth.so.0:_ZN8osgEarth3Map25notifyLayerVisibleChangedEPNS_12VisibleLayerE
libosgEarth.so.0:_ZN8osgEarth3Map27notifyOnLayerEnabledChangedEPNS_5LayerE
libosgEarth.so.0:_ZN8osgEarth3Map4ctorEv
libosgEarth.so.0:_ZN8osgEarth3Map5clearEv
libosgEarth.so.0:_ZN8osgEarth3Map7LayerCB16onEnabledChangedEPNS_5LayerE
libosgEarth.so.0:_ZN8osgEarth3Map7LayerCBC1EPS0_
libosgEarth.so.0:_ZN8osgEarth3Map7LayerCBC2EPS0_
libosgEarth.so.0:_ZN8osgEarth3Map8addLayerEPNS_5LayerE
libosgEarth.so.0:_ZN8osgEarth3Map8setCacheEPNS_5CacheE
libosgEarth.so.0:_ZN8osgEarth3Map9endUpdateEv
libosgEarth.so.0:_ZN8osgEarth3Map9moveLayerEPNS_5LayerEj
libosgEarth.so.0:_ZN8osgEarth3Map9openLayerEPNS_5LayerE
libosgEarth.so.0:_ZN8osgEarth3MapC1ERKNS_10MapOptionsE
libosgEarth.so.0:_ZN8osgEarth3MapC1Ev
libosgEarth.so.0:_ZN8osgEarth3MapC2ERKNS_10MapOptionsE
libosgEarth.so.0:_ZN8osgEarth3MapC2Ev
libosgEarth.so.0:_ZN8osgEarth3MapD0Ev
libosgEarth.so.0:_ZN8osgEarth3MapD1Ev
libosgEarth.so.0:_ZN8osgEarth3MapD2Ev
libosgEarth.so.0:_ZN8osgEarth3URI11mergeConfigERKNS_6ConfigE
libosgEarth.so.0:_ZN8osgEarth3URI12ctorCacheKeyEv
libosgEarth.so.0:_ZN8osgEarth3URIC1EPKc
libosgEarth.so.0:_ZN8osgEarth3URIC1ERKNSt7__cxx1112basic_stringIcSt11char_traitsIcESaIcEEE
libosgEarth.so.0:_ZN8osgEarth3URIC1ERKNSt7__cxx1112basic_stringIcSt11char_traitsIcESaIcEEERKNS_10URIContextE
libosgEarth.so.0:_ZN8osgEarth3URIC1ERKS0_
libosgEarth.so.0:_ZN8osgEarth3URIC1Ev
libosgEarth.so.0:_ZN8osgEarth3URIC2EPKc
libosgEarth.so.0:_ZN8osgEarth3URIC2ERKNSt7__cxx1112basic_stringIcSt11char_traitsIcESaIcEEE
libosgEarth.so.0:_ZN8osgEarth3URIC2ERKNSt7__cxx1112basic_stringIcSt11char_traitsIcESaIcEEERKNS_10URIContextE
libosgEarth.so.0:_ZN8osgEarth3URIC2ERKS0_
libosgEarth.so.0:_ZN8osgEarth3URIC2Ev
libosgEarth.so.0:_ZN8osgEarth4ECEF20transformAndLocalizeERKN3osg5Vec3dEPKNS_16SpatialReferenceERS2_S7_RKNS1_7MatrixdE
libosgEarth.so.0:_ZN8osgEarth4ECEF20transformAndLocalizeERKSt6vectorIN3osg5Vec3dESaIS3_EEPKNS_16SpatialReferenceEPNS2_13TemplateArrayINS2_5Vec3fELNS2_5Array4TypeE28ELi3ELi5126EEESA_RKNS2_7MatrixdE
libosgEarth.so.0:_ZN8osgEarth4ECEF20transformAndLocalizeERKSt6vectorIN3osg5Vec3dESaIS3_EEPKNS_16SpatialReferenceEPNS2_13TemplateArrayINS2_5Vec3fELNS2_5Array4TypeE28ELi3ELi5126EEESG_SA_RKNS2_7MatrixdE
libosgEarth.so.0:_ZN8osgEarth4ECEF29transformAndGetRotationMatrixERKN3osg5Vec3dEPKNS_16SpatialReferenceERS2_S7_RNS1_7MatrixdE
libosgEarth.so.0:_ZN8osgEarth4Json10FastWriter10writeValueERKNS0_5ValueE
libosgEarth.so.0:_ZN8osgEarth4Json10FastWriter23enableYAMLCompatibilityEv
libosgEarth.so.0:_ZN8osgEarth4Json10FastWriter5writeB5cxx11ERKNS0_5ValueE
libosgEarth.so.0:_ZN8osgEarth4Json10FastWriterC1Ev
libosgEarth.so.0:_ZN8osgEarth4Json10FastWriterC2Ev
libosgEarth.so.0:_ZN8osgEarth4Json12PathArgumentC1EPKc
libosgEarth.so.0:_ZN8osgEarth4Json12PathArgumentC1ERKNSt7__cxx1112basic_stringIcSt11char_traitsIcESaIcEEE
libosgEarth.so.0:_ZN8osgEarth4Json12PathArgumentC1Ej
libosgEarth.so.0:_ZN8osgEarth4Json12PathArgumentC1Ev
libosgEarth.so.0:_ZN8osgEarth4Json12PathArgumentC2EPKc
libosgEarth.so.0:_ZN8osgEarth4Json12PathArgumentC2ERKNSt7__cxx1112basic_stringIcSt11char_traitsIcESaIcEEE
libosgEarth.so.0:_ZN8osgEarth4Json12PathArgumentC2Ej
libosgEarth.so.0:_ZN8osgEarth4Json12PathArgumentC2Ev
libosgEarth.so.0:_ZN8osgEarth4Json12StyledWriter10writeValueERKNS0_5ValueE
libosgEarth.so.0:_ZN8osgEarth4Json12StyledWriter11writeIndentEv
libosgEarth.so.0:_ZN8osgEarth4Json12StyledWriter12normalizeEOLERKNSt7__cxx1112basic_stringIcSt11char_traitsIcESaIcEEE
libosgEarth.so.0:_ZN8osgEarth4Json12StyledWriter14isMultineArrayERKNS0_5ValueE
libosgEarth.so.0:_ZN8osgEarth4Json12StyledWriter15writeArrayValueERKNS0_5ValueE
libosgEarth.so.0:_ZN8osgEarth4Json12StyledWriter15writeWithIndentERKNSt7__cxx1112basic_stringIcSt11char_traitsIcESaIcEEE
libosgEarth.so.0:_ZN8osgEarth4Json12StyledWriter18hasCommentForValueERKNS0_5ValueE
libosgEarth.so.0:_ZN8osgEarth4Json12StyledWriter23writeCommentBeforeValueERKNS0_5ValueE
libosgEarth.so.0:_ZN8osgEarth4Json12StyledWriter32writeCommentAfterValueOnSameLineERKNS0_5ValueE
libosgEarth.so.0:_ZN8osgEarth4Json12StyledWriter5writeB5cxx11ERKNS0_5ValueE
libosgEarth.so.0:_ZN8osgEarth4Json12StyledWriter6indentEv
libosgEarth.so.0:_ZN8osgEarth4Json12StyledWriter8unindentEv
libosgEarth.so.0:_ZN8osgEarth4Json12StyledWriter9pushValueERKNSt7__cxx1112basic_stringIcSt11char_traitsIcESaIcEEE
libosgEarth.so.0:_ZN8osgEarth4Json12StyledWriterC1Ev
libosgEarth.so.0:_ZN8osgEarth4Json12StyledWriterC2Ev
libosgEarth.so.0:_ZN8osgEarth4Json13ValueIteratorC1ERKNS0_18ValueConstIteratorE
libosgEarth.so.0:_ZN8osgEarth4Json13ValueIteratorC1ERKS1_
libosgEarth.so.0:_ZN8osgEarth4Json13ValueIteratorC1ERKSt17_Rb_tree_iteratorISt4pairIKNS0_5Value8CZStringES4_EE
libosgEarth.so.0:_ZN8osgEarth4Json13ValueIteratorC1Ev
libosgEarth.so.0:_ZN8osgEarth4Json13ValueIteratorC2ERKNS0_18ValueConstIteratorE
libosgEarth.so.0:_ZN8osgEarth4Json13ValueIteratorC2ERKS1_
libosgEarth.so.0:_ZN8osgEarth4Json13ValueIteratorC2ERKSt17_Rb_tree_iteratorISt4pairIKNS0_5Value8CZStringES4_EE
libosgEarth.so.0:_ZN8osgEarth4Json13ValueIteratorC2Ev
libosgEarth.so.0:_ZN8osgEarth4Json13ValueIteratoraSERKS1_
libosgEarth.so.0:_ZN8osgEarth4Json13valueToStringB5cxx11Eb
libosgEarth.so.0:_ZN8osgEarth4Json13valueToStringB5cxx11Ed
libosgEarth.so.0:_ZN8osgEarth4Json13valueToStringB5cxx11Ei
libosgEarth.so.0:_ZN8osgEarth4Json13valueToStringB5cxx11Ej
libosgEarth.so.0:_ZN8osgEarth4Json14ValueAllocatorD0Ev
libosgEarth.so.0:_ZN8osgEarth4Json14ValueAllocatorD1Ev
libosgEarth.so.0:_ZN8osgEarth4Json14ValueAllocatorD2Ev
libosgEarth.so.0:_ZN8osgEarth4Json17ValueIteratorBase4copyERKS1_
libosgEarth.so.0:_ZN8osgEarth4Json17ValueIteratorBase9decrementEv
libosgEarth.so.0:_ZN8osgEarth4Json17ValueIteratorBase9incrementEv
libosgEarth.so.0:_ZN8osgEarth4Json17ValueIteratorBaseC1ERKSt17_Rb_tree_iteratorISt4pairIKNS0_5Value8CZStringES4_EE
libosgEarth.so.0:_ZN8osgEarth4Json17ValueIteratorBaseC1Ev
libosgEarth.so.0:_ZN8osgEarth4Json17ValueIteratorBaseC2ERKSt17_Rb_tree_iteratorISt4pairIKNS0_5Value8CZStringES4_EE
libosgEarth.so.0:_ZN8osgEarth4Json17ValueIteratorBaseC2Ev
libosgEarth.so.0:_ZN8osgEarth4Json18StyledStreamWriter10writeValueERKNS0_5ValueE
libosgEarth.so.0:_ZN8osgEarth4Json18StyledStreamWriter11writeIndentEv
libosgEarth.so.0:_ZN8osgEarth4Json18StyledStreamWriter12normalizeEOLERKNSt7__cxx1112basic_stringIcSt11char_traitsIcESaIcEEE
libosgEarth.so.0:_ZN8osgEarth4Json18StyledStreamWriter14isMultineArrayERKNS0_5ValueE
libosgEarth.so.0:_ZN8osgEarth4Json18StyledStreamWriter15writeArrayValueERKNS0_5ValueE
libosgEarth.so.0:_ZN8osgEarth4Json18StyledStreamWriter15writeWithIndentERKNSt7__cxx1112basic_stringIcSt11char_traitsIcESaIcEEE
libosgEarth.so.0:_ZN8osgEarth4Json18StyledStreamWriter18hasCommentForValueERKNS0_5ValueE
libosgEarth.so.0:_ZN8osgEarth4Json18StyledStreamWriter23writeCommentBeforeValueERKNS0_5ValueE
libosgEarth.so.0:_ZN8osgEarth4Json18StyledStreamWriter32writeCommentAfterValueOnSameLineERKNS0_5ValueE
libosgEarth.so.0:_ZN8osgEarth4Json18StyledStreamWriter5writeERSoRKNS0_5ValueE
libosgEarth.so.0:_ZN8osgEarth4Json18StyledStreamWriter6indentEv
libosgEarth.so.0:_ZN8osgEarth4Json18StyledStreamWriter8unindentEv
libosgEarth.so.0:_ZN8osgEarth4Json18StyledStreamWriter9pushValueERKNSt7__cxx1112basic_stringIcSt11char_traitsIcESaIcEEE
libosgEarth.so.0:_ZN8osgEarth4Json18StyledStreamWriterC1ENSt7__cxx1112basic_stringIcSt11char_traitsIcESaIcEEE
libosgEarth.so.0:_ZN8osgEarth4Json18StyledStreamWriterC2ENSt7__cxx1112basic_stringIcSt11char_traitsIcESaIcEEE
libosgEarth.so.0:_ZN8osgEarth4Json18ValueConstIteratorC1ERKSt17_Rb_tree_iteratorISt4pairIKNS0_5Value8CZStringES4_EE
libosgEarth.so.0:_ZN8osgEarth4Json18ValueConstIteratorC1Ev
libosgEarth.so.0:_ZN8osgEarth4Json18ValueConstIteratorC2ERKSt17_Rb_tree_iteratorISt4pairIKNS0_5Value8CZStringES4_EE
libosgEarth.so.0:_ZN8osgEarth4Json18ValueConstIteratorC2Ev
libosgEarth.so.0:_ZN8osgEarth4Json18ValueConstIteratoraSERKNS0_17ValueIteratorBaseE
libosgEarth.so.0:_ZN8osgEarth4Json19valueToQuotedStringB5cxx11EPKc
libosgEarth.so.0:_ZN8osgEarth4Json4Path11invalidPathERKNSt7__cxx1112basic_stringIcSt11char_traitsIcESaIcEEEi
libosgEarth.so.0:_ZN8osgEarth4Json4Path12addPathInArgERKNSt7__cxx1112basic_stringIcSt11char_traitsIcESaIcEEERKSt6vectorIPKNS0_12PathArgumentESaISD_EERN9__gnu_cxx17__normal_iteratorIPKSD_SF_EENSB_4KindE
libosgEarth.so.0:_ZN8osgEarth4Json4Path8makePathERKNSt7__cxx1112basic_stringIcSt11char_traitsIcESaIcEEERKSt6vectorIPKNS0_12PathArgumentESaISD_EE
libosgEarth.so.0:_ZN8osgEarth4Json4PathC1ERKNSt7__cxx1112basic_stringIcSt11char_traitsIcESaIcEEERKNS0_12PathArgumentESC_SC_SC_SC_
libosgEarth.so.0:_ZN8osgEarth4Json4PathC2ERKNSt7__cxx1112basic_stringIcSt11char_traitsIcESaIcEEERKNS0_12PathArgumentESC_SC_SC_SC_
libosgEarth.so.0:_ZN8osgEarth4Json5Value10setCommentEPKcNS0_16CommentPlacementE
libosgEarth.so.0:_ZN8osgEarth4Json5Value10setCommentERKNSt7__cxx1112basic_stringIcSt11char_traitsIcESaIcEEENS0_16CommentPlacementE
libosgEarth.so.0:_ZN8osgEarth4Json5Value11CommentInfo10setCommentEPKc
libosgEarth.so.0:_ZN8osgEarth4Json5Value11CommentInfoC1Ev
libosgEarth.so.0:_ZN8osgEarth4Json5Value11CommentInfoC2Ev
libosgEarth.so.0:_ZN8osgEarth4Json5Value11CommentInfoD1Ev
libosgEarth.so.0:_ZN8osgEarth4Json5Value11CommentInfoD2Ev
libosgEarth.so.0:_ZN8osgEarth4Json5Value12removeMemberEPKc
libosgEarth.so.0:_ZN8osgEarth4Json5Value12removeMemberERKNSt7__cxx1112basic_stringIcSt11char_traitsIcESaIcEEE
libosgEarth.so.0:_ZN8osgEarth4Json5Value16resolveReferenceEPKcb
libosgEarth.so.0:_ZN8osgEarth4Json5Value3endEv
libosgEarth.so.0:_ZN8osgEarth4Json5Value4swapERS1_
libosgEarth.so.0:_ZN8osgEarth4Json5Value5beginEv
libosgEarth.so.0:_ZN8osgEarth4Json5Value5clearEv
libosgEarth.so.0:_ZN8osgEarth4Json5Value6appendERKS1_
libosgEarth.so.0:_ZN8osgEarth4Json5Value6resizeEj
libosgEarth.so.0:_ZN8osgEarth4Json5Value7compareERKS1_
libosgEarth.so.0:_ZN8osgEarth4Json5Value8CZString4swapERS2_
libosgEarth.so.0:_ZN8osgEarth4Json5Value8CZStringC1EPKcNS2_17DuplicationPolicyE
libosgEarth.so.0:_ZN8osgEarth4Json5Value8CZStringC1ERKS2_
libosgEarth.so.0:_ZN8osgEarth4Json5Value8CZStringC1Ei
libosgEarth.so.0:_ZN8osgEarth4Json5Value8CZStringC2EPKcNS2_17DuplicationPolicyE
libosgEarth.so.0:_ZN8osgEarth4Json5Value8CZStringC2ERKS2_
libosgEarth.so.0:_ZN8osgEarth4Json5Value8CZStringC2Ei
libosgEarth.so.0:_ZN8osgEarth4Json5Value8CZStringD1Ev
libosgEarth.so.0:_ZN8osgEarth4Json5Value8CZStringD2Ev
libosgEarth.so.0:_ZN8osgEarth4Json5Value8CZStringaSERKS2_
libosgEarth.so.0:_ZN8osgEarth4Json5ValueC1ENS0_9ValueTypeE
libosgEarth.so.0:_ZN8osgEarth4Json5ValueC1EPKc
libosgEarth.so.0:_ZN8osgEarth4Json5ValueC1ERKNS0_12StaticStringE
libosgEarth.so.0:_ZN8osgEarth4Json5ValueC1ERKNSt7__cxx1112basic_stringIcSt11char_traitsIcESaIcEEE
libosgEarth.so.0:_ZN8osgEarth4Json5ValueC1ERKS1_
libosgEarth.so.0:_ZN8osgEarth4Json5ValueC1Eb
libosgEarth.so.0:_ZN8osgEarth4Json5ValueC1Ed
libosgEarth.so.0:_ZN8osgEarth4Json5ValueC1Ei
libosgEarth.so.0:_ZN8osgEarth4Json5ValueC1Ej
libosgEarth.so.0:_ZN8osgEarth4Json5ValueC2ENS0_9ValueTypeE
libosgEarth.so.0:_ZN8osgEarth4Json5ValueC2EPKc
libosgEarth.so.0:_ZN8osgEarth4Json5ValueC2ERKNS0_12StaticStringE
libosgEarth.so.0:_ZN8osgEarth4Json5ValueC2ERKNSt7__cxx1112basic_stringIcSt11char_traitsIcESaIcEEE
libosgEarth.so.0:_ZN8osgEarth4Json5ValueC2ERKS1_
libosgEarth.so.0:_ZN8osgEarth4Json5ValueC2Eb
libosgEarth.so.0:_ZN8osgEarth4Json5ValueC2Ed
libosgEarth.so.0:_ZN8osgEarth4Json5ValueC2Ei
libosgEarth.so.0:_ZN8osgEarth4Json5ValueC2Ej
libosgEarth.so.0:_ZN8osgEarth4Json5ValueD1Ev
libosgEarth.so.0:_ZN8osgEarth4Json5ValueD2Ev
libosgEarth.so.0:_ZN8osgEarth4Json5ValueaSERKS1_
libosgEarth.so.0:_ZN8osgEarth4Json5ValueixEPKc
libosgEarth.so.0:_ZN8osgEarth4Json5ValueixERKNS0_12StaticStringE
libosgEarth.so.0:_ZN8osgEarth4Json5ValueixERKNSt7__cxx1112basic_stringIcSt11char_traitsIcESaIcEEE
libosgEarth.so.0:_ZN8osgEarth4Json5ValueixEj
libosgEarth.so.0:_ZN8osgEarth4Json6Reader10addCommentEPKcS3_NS0_16CommentPlacementE
libosgEarth.so.0:_ZN8osgEarth4Json6Reader10readNumberEv
libosgEarth.so.0:_ZN8osgEarth4Json6Reader10readObjectERNS1_5TokenE
libosgEarth.so.0:_ZN8osgEarth4Json6Reader10readStringEv
libosgEarth.so.0:_ZN8osgEarth4Json6Reader10skipSpacesEv
libosgEarth.so.0:_ZN8osgEarth4Json6Reader11expectTokenENS1_9TokenTypeERNS1_5TokenEPKc
libosgEarth.so.0:_ZN8osgEarth4Json6Reader11getNextCharEv
libosgEarth.so.0:_ZN8osgEarth4Json6Reader11readCommentEv
libosgEarth.so.0:_ZN8osgEarth4Json6Reader12currentValueEv
libosgEarth.so.0:_ZN8osgEarth4Json6Reader12decodeDoubleERNS1_5TokenE
libosgEarth.so.0:_ZN8osgEarth4Json6Reader12decodeNumberERNS1_5TokenE
libosgEarth.so.0:_ZN8osgEarth4Json6Reader12decodeStringERNS1_5TokenE
libosgEarth.so.0:_ZN8osgEarth4Json6Reader12decodeStringERNS1_5TokenERNSt7__cxx1112basic_stringIcSt11char_traitsIcESaIcEEE
libosgEarth.so.0:_ZN8osgEarth4Json6Reader16recoverFromErrorENS1_9TokenTypeE
libosgEarth.so.0:_ZN8osgEarth4Json6Reader17readCStyleCommentEv
libosgEarth.so.0:_ZN8osgEarth4Json6Reader17skipCommentTokensERNS1_5TokenE
libosgEarth.so.0:_ZN8osgEarth4Json6Reader18addErrorAndRecoverERKNSt7__cxx1112basic_stringIcSt11char_traitsIcESaIcEEERNS1_5TokenENS1_9TokenTypeE
libosgEarth.so.0:_ZN8osgEarth4Json6Reader19readCppStyleCommentEv
libosgEarth.so.0:_ZN8osgEarth4Json6Reader27decodeUnicodeEscapeSequenceERNS1_5TokenERPKcS5_Rj
libosgEarth.so.0:_ZN8osgEarth4Json6Reader5matchEPKci
libosgEarth.so.0:_ZN8osgEarth4Json6Reader5parseEPKcS3_RNS0_5ValueEb
libosgEarth.so.0:_ZN8osgEarth4Json6Reader5parseERKNSt7__cxx1112basic_stringIcSt11char_traitsIcESaIcEEERNS0_5ValueEb
libosgEarth.so.0:_ZN8osgEarth4Json6Reader5parseERSiRNS0_5ValueEb
libosgEarth.so.0:_ZN8osgEarth4Json6Reader8addErrorERKNSt7__cxx1112basic_stringIcSt11char_traitsIcESaIcEEERNS1_5TokenEPKc
libosgEarth.so.0:_ZN8osgEarth4Json6Reader9readArrayERNS1_5TokenE
libosgEarth.so.0:_ZN8osgEarth4Json6Reader9readTokenERNS1_5TokenE
libosgEarth.so.0:_ZN8osgEarth4Json6Reader9readValueEv
libosgEarth.so.0:_ZN8osgEarth4Json6ReaderC1Ev
libosgEarth.so.0:_ZN8osgEarth4Json6ReaderC2Ev
libosgEarth.so.0:_ZN8osgEarth4Json6WriterD0Ev
libosgEarth.so.0:_ZN8osgEarth4Json6WriterD1Ev
libosgEarth.so.0:_ZN8osgEarth4Json6WriterD2Ev
libosgEarth.so.0:_ZN8osgEarth4Text14createStateSetEv
libosgEarth.so.0:_ZN8osgEarth4Text7setFontEN3osg7ref_ptrIN7osgText4FontEEE
libosgEarth.so.0:_ZN8osgEarth4TextC1ERKNSt7__cxx1112basic_stringIcSt11char_traitsIcESaIcEEE
libosgEarth.so.0:_ZN8osgEarth4TextC1ERKS0_RKN3osg6CopyOpE
libosgEarth.so.0:_ZN8osgEarth4TextC1Ev
libosgEarth.so.0:_ZN8osgEarth4TextC2ERKNSt7__cxx1112basic_stringIcSt11char_traitsIcESaIcEEE
libosgEarth.so.0:_ZN8osgEarth4TextC2ERKS0_RKN3osg6CopyOpE
libosgEarth.so.0:_ZN8osgEarth4TextC2Ev
libosgEarth.so.0:_ZN8osgEarth4TextD0Ev
libosgEarth.so.0:_ZN8osgEarth4TextD1Ev
libosgEarth.so.0:_ZN8osgEarth4TextD2Ev
libosgEarth.so.0:_ZN8osgEarth4trimERKNSt7__cxx1112basic_stringIcSt11char_traitsIcESaIcEEE
libosgEarth.so.0:_ZN8osgEarth5Cache12makeCacheKeyERKNSt7__cxx1112basic_stringIcSt11char_traitsIcESaIcEEES8_
libosgEarth.so.0:_ZN8osgEarth5Cache6getBinERKNSt7__cxx1112basic_stringIcSt11char_traitsIcESaIcEEE
libosgEarth.so.0:_ZN8osgEarth5Cache9removeBinEPNS_8CacheBinE
libosgEarth.so.0:_ZN8osgEarth5CacheC1ERKNS_12CacheOptionsE
libosgEarth.so.0:_ZN8osgEarth5CacheC1ERKS0_RKN3osg6CopyOpE
libosgEarth.so.0:_ZN8osgEarth5CacheC2ERKNS_12CacheOptionsE
libosgEarth.so.0:_ZN8osgEarth5CacheC2ERKS0_RKN3osg6CopyOpE
libosgEarth.so.0:_ZN8osgEarth5CacheD0Ev
libosgEarth.so.0:_ZN8osgEarth5CacheD1Ev
libosgEarth.so.0:_ZN8osgEarth5CacheD2Ev
libosgEarth.so.0:_ZN8osgEarth5Geoid14setHeightFieldEPN3osg11HeightFieldE
libosgEarth.so.0:_ZN8osgEarth5Geoid7setNameERKNSt7__cxx1112basic_stringIcSt11char_traitsIcESaIcEEE
libosgEarth.so.0:_ZN8osgEarth5Geoid8setUnitsERKNS_5UnitsE
libosgEarth.so.0:_ZN8osgEarth5Geoid8validateEv
libosgEarth.so.0:_ZN8osgEarth5GeoidC1Ev
libosgEarth.so.0:_ZN8osgEarth5GeoidC2Ev
libosgEarth.so.0:_ZN8osgEarth5Layer10setEnabledEb
libosgEarth.so.0:_ZN8osgEarth5Layer11addCallbackEPNS_13LayerCallbackE
libosgEarth.so.0:_ZN8osgEarth5Layer12fireCallbackEMNS_13LayerCallbackEFvPS0_E
libosgEarth.so.0:_ZN8osgEarth5Layer14removeCallbackEPNS_13LayerCallbackE
libosgEarth.so.0:_ZN8osgEarth5Layer14setAttributionERKNSt7__cxx1112basic_stringIcSt11char_traitsIcESaIcEEE
libosgEarth.so.0:_ZN8osgEarth5Layer14setReadOptionsEPKN5osgDB7OptionsE
libosgEarth.so.0:_ZN8osgEarth5Layer15setCullCallbackEPNS0_17TraversalCallbackE
libosgEarth.so.0:_ZN8osgEarth5Layer16getConfigOptionsEPKN5osgDB7OptionsE
libosgEarth.so.0:_ZN8osgEarth5Layer19getOrCreateStateSetEv
libosgEarth.so.0:_ZN8osgEarth5Layer19setTerrainResourcesEPNS_16TerrainResourcesE
libosgEarth.so.0:_ZN8osgEarth5Layer21resizeGLObjectBuffersEj
libosgEarth.so.0:_ZN8osgEarth5Layer4initEv
libosgEarth.so.0:_ZN8osgEarth5Layer4openEv
libosgEarth.so.0:_ZN8osgEarth5Layer5closeEv
libosgEarth.so.0:_ZN8osgEarth5Layer6createERKNS_13ConfigOptionsE
libosgEarth.so.0:_ZN8osgEarth5Layer7setNameERKNSt7__cxx1112basic_stringIcSt11char_traitsIcESaIcEEE
libosgEarth.so.0:_ZN8osgEarth5LayerC1EPNS_12LayerOptionsE
libosgEarth.so.0:_ZN8osgEarth5LayerC1Ev
libosgEarth.so.0:_ZN8osgEarth5LayerC2EPNS_12LayerOptionsE
libosgEarth.so.0:_ZN8osgEarth5LayerC2Ev
libosgEarth.so.0:_ZN8osgEarth5LayerD0Ev
libosgEarth.so.0:_ZN8osgEarth5LayerD1Ev
libosgEarth.so.0:_ZN8osgEarth5LayerD2Ev
libosgEarth.so.0:_ZN8osgEarth5Units11registerAllEPNS_8RegistryE
libosgEarth.so.0:_ZN8osgEarth5Units5parseERKNSt7__cxx1112basic_stringIcSt11char_traitsIcESaIcEEERS0_
libosgEarth.so.0:_ZN8osgEarth5Units5parseERKNSt7__cxx1112basic_stringIcSt11char_traitsIcESaIcEEERdRS0_RKS0_
libosgEarth.so.0:_ZN8osgEarth5Units5parseERKNSt7__cxx1112basic_stringIcSt11char_traitsIcESaIcEEERfRS0_RKS0_
libosgEarth.so.0:_ZN8osgEarth5Units5parseERKNSt7__cxx1112basic_stringIcSt11char_traitsIcESaIcEEERiRS0_RKS0_
libosgEarth.so.0:_ZN8osgEarth5Units8unitTestEv
libosgEarth.so.0:_ZN8osgEarth5UnitsC1ERKNSt7__cxx1112basic_stringIcSt11char_traitsIcESaIcEEES8_RKNS0_4TypeEd
libosgEarth.so.0:_ZN8osgEarth5UnitsC1ERKNSt7__cxx1112basic_stringIcSt11char_traitsIcESaIcEEES8_RKS0_SA_
libosgEarth.so.0:_ZN8osgEarth5UnitsC2ERKNSt7__cxx1112basic_stringIcSt11char_traitsIcESaIcEEES8_RKNS0_4TypeEd
libosgEarth.so.0:_ZN8osgEarth5UnitsC2ERKNSt7__cxx1112basic_stringIcSt11char_traitsIcESaIcEEES8_RKS0_SA_
libosgEarth.so.0:_ZN8osgEarth5trim2ERNSt7__cxx1112basic_stringIcSt11char_traitsIcESaIcEEE
libosgEarth.so.0:_ZN8osgEarth6Bounds3setEdddd
libosgEarth.so.0:_ZN8osgEarth6Bounds3setEdddddd
libosgEarth.so.0:_ZN8osgEarth6Bounds8expandByERKS0_
libosgEarth.so.0:_ZN8osgEarth6Bounds8expandByEdd
libosgEarth.so.0:_ZN8osgEarth6Bounds8expandByEddd
libosgEarth.so.0:_ZN8osgEarth6Bounds9transformEPKNS_16SpatialReferenceES3_
libosgEarth.so.0:_ZN8osgEarth6BoundsC1Edddd
libosgEarth.so.0:_ZN8osgEarth6BoundsC1Ev
libosgEarth.so.0:_ZN8osgEarth6BoundsC2Edddd
libosgEarth.so.0:_ZN8osgEarth6BoundsC2Ev
libosgEarth.so.0:_ZN8osgEarth6Config11setReferrerERKNSt7__cxx1112basic_stringIcSt11char_traitsIcESaIcEEE
libosgEarth.so.0:_ZN8osgEarth6Config13mutable_childERKNSt7__cxx1112basic_stringIcSt11char_traitsIcESaIcEEE
libosgEarth.so.0:_ZN8osgEarth6Config4findERKNSt7__cxx1112basic_stringIcSt11char_traitsIcESaIcEEEb
libosgEarth.so.0:_ZN8osgEarth6Config5mergeERKS0_
libosgEarth.so.0:_ZN8osgEarth6Config7fromXMLERSi
libosgEarth.so.0:_ZN8osgEarth6Config8fromJSONERKNSt7__cxx1112basic_stringIcSt11char_traitsIcESaIcEEE
libosgEarth.so.0:_ZN8osgEarth6Config8readJSONERKNSt7__cxx1112basic_stringIcSt11char_traitsIcESaIcEEE
libosgEarth.so.0:_ZN8osgEarth6ConfigD0Ev
libosgEarth.so.0:_ZN8osgEarth6ConfigD1Ev
libosgEarth.so.0:_ZN8osgEarth6ConfigD2Ev
libosgEarth.so.0:_ZN8osgEarth6Memory22getProcessPrivateUsageEv
libosgEarth.so.0:_ZN8osgEarth6Memory23getProcessPhysicalUsageEv
libosgEarth.so.0:_ZN8osgEarth6Memory26getProcessPeakPrivateUsageEv
libosgEarth.so.0:_ZN8osgEarth6Memory27getProcessPeakPhysicalUsageEv
libosgEarth.so.0:_ZN8osgEarth6Random4nextEj
libosgEarth.so.0:_ZN8osgEarth6Random4nextEv
libosgEarth.so.0:_ZN8osgEarth6Random4seedEj
libosgEarth.so.0:_ZN8osgEarth6Random5resetEv
libosgEarth.so.0:_ZN8osgEarth6RandomC1ENS0_6MethodE
libosgEarth.so.0:_ZN8osgEarth6RandomC1ERKS0_
libosgEarth.so.0:_ZN8osgEarth6RandomC1EjNS0_6MethodE
libosgEarth.so.0:_ZN8osgEarth6RandomC2ENS0_6MethodE
libosgEarth.so.0:_ZN8osgEarth6RandomC2ERKS0_
libosgEarth.so.0:_ZN8osgEarth6RandomC2EjNS0_6MethodE
libosgEarth.so.0:_ZN8osgEarth6notifyEN3osg14NotifySeverityE
libosgEarth.so.0:_ZN8osgEarth7Culling13asCullVisitorEPN3osg11NodeVisitorE
libosgEarth.so.0:_ZN8osgEarth7FadeLOD8traverseERN3osg11NodeVisitorE
libosgEarth.so.0:_ZN8osgEarth7FadeLODC1Ev
libosgEarth.so.0:_ZN8osgEarth7FadeLODC2Ev
libosgEarth.so.0:_ZN8osgEarth7GLUtils11setLightingEPN3osg8StateSetEj
libosgEarth.so.0:_ZN8osgEarth7GLUtils12setLineWidthEPN3osg8StateSetEfj
libosgEarth.so.0:_ZN8osgEarth7GLUtils12setPointSizeEPN3osg8StateSetEfj
libosgEarth.so.0:_ZN8osgEarth7GLUtils13setLineSmoothEPN3osg8StateSetEj
libosgEarth.so.0:_ZN8osgEarth7GLUtils14setLineStippleEPN3osg8StateSetEitj
libosgEarth.so.0:_ZN8osgEarth7GLUtils14setPointSmoothEPN3osg8StateSetEj
libosgEarth.so.0:_ZN8osgEarth7GLUtils17setGlobalDefaultsEPN3osg8StateSetE
libosgEarth.so.0:_ZN8osgEarth7GLUtils6removeEPN3osg8StateSetEj
libosgEarth.so.0:_ZN8osgEarth7GeoMath11destinationEddddRdS1_d
libosgEarth.so.0:_ZN8osgEarth7GeoMath12rhumbBearingEdddd
libosgEarth.so.0:_ZN8osgEarth7GeoMath13rhumbDistanceERKSt6vectorIN3osg5Vec3dESaIS3_EEd
libosgEarth.so.0:_ZN8osgEarth7GeoMath13rhumbDistanceEddddd
libosgEarth.so.0:_ZN8osgEarth7GeoMath14isPointVisibleERKN3osg5Vec3dES4_d
libosgEarth.so.0:_ZN8osgEarth7GeoMath16rhumbDestinationEddddRdS1_d
libosgEarth.so.0:_ZN8osgEarth7GeoMath22intersectLineWithPlaneERKN3osg5Vec3dES4_RKNS1_5PlaneERS2_
libosgEarth.so.0:_ZN8osgEarth7GeoMath24interesectLineWithSphereERKN3osg5Vec3dES4_dRS2_S5_
libosgEarth.so.0:_ZN8osgEarth7GeoMath25greatCircleMinMaxLatitudeEddddRdS1_
libosgEarth.so.0:_ZN8osgEarth7GeoMath7bearingEdddd
libosgEarth.so.0:_ZN8osgEarth7GeoMath8distanceERKN3osg5Vec3dES4_PKNS_16SpatialReferenceE
libosgEarth.so.0:_ZN8osgEarth7GeoMath8distanceERKSt6vectorIN3osg5Vec3dESaIS3_EEd
libosgEarth.so.0:_ZN8osgEarth7GeoMath8distanceEddddd
libosgEarth.so.0:_ZN8osgEarth7GeoMath8midpointEddddRdS1_
libosgEarth.so.0:_ZN8osgEarth7Horizon12setEllipsoidERKN3osg14EllipsoidModelE
libosgEarth.so.0:_ZN8osgEarth7Horizon3getERN3osg11NodeVisitorE
libosgEarth.so.0:_ZN8osgEarth7Horizon3putERN3osg11NodeVisitorE
libosgEarth.so.0:_ZN8osgEarth7Horizon6setEyeERKN3osg5Vec3dE
libosgEarth.so.0:_ZN8osgEarth7Horizon9setMinHAEEd
libosgEarth.so.0:_ZN8osgEarth7HorizonC1EPKNS_16SpatialReferenceE
libosgEarth.so.0:_ZN8osgEarth7HorizonC1ERKN3osg14EllipsoidModelE
libosgEarth.so.0:_ZN8osgEarth7HorizonC1ERKS0_RKN3osg6CopyOpE
libosgEarth.so.0:_ZN8osgEarth7HorizonC1Ev
libosgEarth.so.0:_ZN8osgEarth7HorizonC2EPKNS_16SpatialReferenceE
libosgEarth.so.0:_ZN8osgEarth7HorizonC2ERKN3osg14EllipsoidModelE
libosgEarth.so.0:_ZN8osgEarth7HorizonC2ERKS0_RKN3osg6CopyOpE
libosgEarth.so.0:_ZN8osgEarth7HorizonC2Ev
libosgEarth.so.0:_ZN8osgEarth7MapInfo6setMapEPKNS_3MapE
libosgEarth.so.0:_ZN8osgEarth7MapInfoC1EPKNS_3MapE
libosgEarth.so.0:_ZN8osgEarth7MapInfoC1ERKS0_
libosgEarth.so.0:_ZN8osgEarth7MapInfoC2EPKNS_3MapE
libosgEarth.so.0:_ZN8osgEarth7MapInfoC2ERKS0_
libosgEarth.so.0:_ZN8osgEarth7MapNode10getTerrainEv
libosgEarth.so.0:_ZN8osgEarth7MapNode11findMapNodeEPN3osg4NodeEj
libosgEarth.so.0:_ZN8osgEarth7MapNode12addExtensionEPNS_9ExtensionEPKN5osgDB7OptionsE
libosgEarth.so.0:_ZN8osgEarth7MapNode12onLayerAddedEPNS_5LayerEj
libosgEarth.so.0:_ZN8osgEarth7MapNode12onLayerMovedEPNS_5LayerEjj
libosgEarth.so.0:_ZN8osgEarth7MapNode13openMapLayersEv
libosgEarth.so.0:_ZN8osgEarth7MapNode14getDrapingDumpEv
libosgEarth.so.0:_ZN8osgEarth7MapNode14onLayerRemovedEPNS_5LayerEj
libosgEarth.so.0:_ZN8osgEarth7MapNode15clearExtensionsEv
libosgEarth.so.0:_ZN8osgEarth7MapNode15removeExtensionEPNS_9ExtensionE
libosgEarth.so.0:_ZN8osgEarth7MapNode17getDrapingManagerEv
libosgEarth.so.0:_ZN8osgEarth7MapNode18getClampingManagerEv
libosgEarth.so.0:_ZN8osgEarth7MapNode21resizeGLObjectBuffersEj
libosgEarth.so.0:_ZN8osgEarth7MapNode4initEv
libosgEarth.so.0:_ZN8osgEarth7MapNode4loadERN3osg14ArgumentParserE
libosgEarth.so.0:_ZN8osgEarth7MapNode4loadERN3osg14ArgumentParserERKNS_14MapNodeOptionsE
libosgEarth.so.0:_ZN8osgEarth7MapNode6getMapEv
libosgEarth.so.0:_ZN8osgEarth7MapNode8traverseERN3osg11NodeVisitorE
libosgEarth.so.0:_ZN8osgEarth7MapNodeC1EPNS_3MapE
libosgEarth.so.0:_ZN8osgEarth7MapNodeC1EPNS_3MapERKNS_14MapNodeOptionsE
libosgEarth.so.0:_ZN8osgEarth7MapNodeC1EPNS_3MapERKNS_14MapNodeOptionsEb
libosgEarth.so.0:_ZN8osgEarth7MapNodeC1ERKNS_14MapNodeOptionsE
libosgEarth.so.0:_ZN8osgEarth7MapNodeC1Ev
libosgEarth.so.0:_ZN8osgEarth7MapNodeC2EPNS_3MapE
libosgEarth.so.0:_ZN8osgEarth7MapNodeC2EPNS_3MapERKNS_14MapNodeOptionsE
libosgEarth.so.0:_ZN8osgEarth7MapNodeC2EPNS_3MapERKNS_14MapNodeOptionsEb
libosgEarth.so.0:_ZN8osgEarth7MapNodeC2ERKNS_14MapNodeOptionsE
libosgEarth.so.0:_ZN8osgEarth7MapNodeC2Ev
libosgEarth.so.0:_ZN8osgEarth7MapNodeD0Ev
libosgEarth.so.0:_ZN8osgEarth7MapNodeD1Ev
libosgEarth.so.0:_ZN8osgEarth7MapNodeD2Ev
libosgEarth.so.0:_ZN8osgEarth7Metrics10encodeArgsEjz
libosgEarth.so.0:_ZN8osgEarth7Metrics17getMetricsBackendEv
libosgEarth.so.0:_ZN8osgEarth7Metrics17setMetricsBackendEPNS_14MetricsBackendE
libosgEarth.so.0:_ZN8osgEarth7Metrics3endERKNSt7__cxx1112basic_stringIcSt11char_traitsIcESaIcEEERKNS_6ConfigE
libosgEarth.so.0:_ZN8osgEarth7Metrics3endERKNSt7__cxx1112basic_stringIcSt11char_traitsIcESaIcEEEjz
libosgEarth.so.0:_ZN8osgEarth7Metrics3runERN9osgViewer6ViewerE
libosgEarth.so.0:_ZN8osgEarth7Metrics5beginERKNSt7__cxx1112basic_stringIcSt11char_traitsIcESaIcEEERKNS_6ConfigE
libosgEarth.so.0:_ZN8osgEarth7Metrics5beginERKNSt7__cxx1112basic_stringIcSt11char_traitsIcESaIcEEEjz
libosgEarth.so.0:_ZN8osgEarth7Metrics7counterERKNSt7__cxx1112basic_stringIcSt11char_traitsIcESaIcEEES8_d
libosgEarth.so.0:_ZN8osgEarth7Metrics7counterERKNSt7__cxx1112basic_stringIcSt11char_traitsIcESaIcEEES8_dS8_d
libosgEarth.so.0:_ZN8osgEarth7Metrics7counterERKNSt7__cxx1112basic_stringIcSt11char_traitsIcESaIcEEES8_dS8_dS8_d
libosgEarth.so.0:_ZN8osgEarth7Metrics7enabledEv
libosgEarth.so.0:_ZN8osgEarth7Profile11createNamedERKNSt7__cxx1112basic_stringIcSt11char_traitsIcESaIcEEE
libosgEarth.so.0:_ZN8osgEarth7Profile15calculateExtentEjjj
libosgEarth.so.0:_ZN8osgEarth7Profile21getProfileTypeFromSRSERKNSt7__cxx1112basic_stringIcSt11char_traitsIcESaIcEEE
libosgEarth.so.0:_ZN8osgEarth7Profile6createEPKNS_16SpatialReferenceEddddddddjj
libosgEarth.so.0:_ZN8osgEarth7Profile6createEPKNS_16SpatialReferenceEddddjj
libosgEarth.so.0:_ZN8osgEarth7Profile6createERKNS_14ProfileOptionsE
libosgEarth.so.0:_ZN8osgEarth7Profile6createERKNSt7__cxx1112basic_stringIcSt11char_traitsIcESaIcEEES8_jj
libosgEarth.so.0:_ZN8osgEarth7Profile6createERKNSt7__cxx1112basic_stringIcSt11char_traitsIcESaIcEEEddddS8_jj
libosgEarth.so.0:_ZN8osgEarth7ProfileC1EPKNS_16SpatialReferenceEddddddddjj
libosgEarth.so.0:_ZN8osgEarth7ProfileC1EPKNS_16SpatialReferenceEddddjj
libosgEarth.so.0:_ZN8osgEarth7ProfileC2EPKNS_16SpatialReferenceEddddddddjj
libosgEarth.so.0:_ZN8osgEarth7ProfileC2EPKNS_16SpatialReferenceEddddjj
libosgEarth.so.0:_ZN8osgEarth7ShadersC1Ev
libosgEarth.so.0:_ZN8osgEarth7ShadersC2Ev
libosgEarth.so.0:_ZN8osgEarth7Terrain13fireTileAddedERKNS_7TileKeyEPN3osg4NodeE
libosgEarth.so.0:_ZN8osgEarth7Terrain15notifyTileAddedERKNS_7TileKeyEPN3osg4NodeE
libosgEarth.so.0:_ZN8osgEarth7Terrain18addTerrainCallbackEPNS_15TerrainCallbackE
libosgEarth.so.0:_ZN8osgEarth7Terrain20OnTileAddedOperationC1ERKNS_7TileKeyEPN3osg4NodeEPS0_
libosgEarth.so.0:_ZN8osgEarth7Terrain20OnTileAddedOperationC2ERKNS_7TileKeyEPN3osg4NodeEPS0_
libosgEarth.so.0:_ZN8osgEarth7Terrain20OnTileAddedOperationclEPN3osg6ObjectE
libosgEarth.so.0:_ZN8osgEarth7Terrain21removeTerrainCallbackEPNS_15TerrainCallbackE
libosgEarth.so.0:_ZN8osgEarth7Terrain23fireMapElevationChangedEv
libosgEarth.so.0:_ZN8osgEarth7Terrain25notifyMapElevationChangedEv
libosgEarth.so.0:_ZN8osgEarth7Terrain6acceptERN3osg11NodeVisitorE
libosgEarth.so.0:_ZN8osgEarth7Terrain6updateEv
libosgEarth.so.0:_ZN8osgEarth7TerrainC1EPN3osg4NodeEPKNS_7ProfileERKNS_14TerrainOptionsE
libosgEarth.so.0:_ZN8osgEarth7TerrainC2EPN3osg4NodeEPKNS_7ProfileERKNS_14TerrainOptionsE
libosgEarth.so.0:_ZN8osgEarth7TileKeyC1ERKS0_
libosgEarth.so.0:_ZN8osgEarth7TileKeyC1EjjjPKNS_7ProfileE
libosgEarth.so.0:_ZN8osgEarth7TileKeyC2ERKS0_
libosgEarth.so.0:_ZN8osgEarth7TileKeyC2EjjjPKNS_7ProfileE
libosgEarth.so.0:_ZN8osgEarth7XmlNodeC1Ev
libosgEarth.so.0:_ZN8osgEarth7XmlNodeC2Ev
libosgEarth.so.0:_ZN8osgEarth7XmlTextC1ERKNSt7__cxx1112basic_stringIcSt11char_traitsIcESaIcEEE
libosgEarth.so.0:_ZN8osgEarth7XmlTextC2ERKNSt7__cxx1112basic_stringIcSt11char_traitsIcESaIcEEE
libosgEarth.so.0:_ZN8osgEarth7toLowerERKNSt7__cxx1112basic_stringIcSt11char_traitsIcESaIcEEE
libosgEarth.so.0:_ZN8osgEarth8AsyncLOD3askERNS_9AsyncNodeERN3osg11NodeVisitorE
libosgEarth.so.0:_ZN8osgEarth8AsyncLOD5clearEv
libosgEarth.so.0:_ZN8osgEarth8AsyncLOD7setModeERKNS0_4ModeE
libosgEarth.so.0:_ZN8osgEarth8AsyncLOD8addChildEPN3osg4NodeE
libosgEarth.so.0:_ZN8osgEarth8AsyncLOD8addChildEPN3osg4NodeEff
libosgEarth.so.0:_ZN8osgEarth8AsyncLOD8addChildEPNS_13AsyncFunctionEff
libosgEarth.so.0:_ZN8osgEarth8AsyncLOD8traverseERN3osg11NodeVisitorE
libosgEarth.so.0:_ZN8osgEarth8AsyncLOD9setCenterERKN3osg5Vec3dE
libosgEarth.so.0:_ZN8osgEarth8AsyncLOD9setPolicyERKNS0_6PolicyE
libosgEarth.so.0:_ZN8osgEarth8AsyncLOD9setRadiusEd
libosgEarth.so.0:_ZN8osgEarth8AsyncLODC1Ev
libosgEarth.so.0:_ZN8osgEarth8AsyncLODC2Ev
libosgEarth.so.0:_ZN8osgEarth8CacheBin9writeNodeERKNSt7__cxx1112basic_stringIcSt11char_traitsIcESaIcEEEPN3osg4NodeERKNS_6ConfigEPKN5osgDB7OptionsE
libosgEarth.so.0:_ZN8osgEarth8Clamping10setHeightsEPN3osg8GeometryEPNS1_13TemplateArrayIfLNS1_5Array4TypeE7ELi1ELi5126EEE
libosgEarth.so.0:_ZN8osgEarth8Clamping22installHasAttrsUniformEPN3osg8StateSetE
libosgEarth.so.0:_ZN8osgEarth8Clamping25applyDefaultClampingAttrsEPN3osg4NodeEf
libosgEarth.so.0:_ZN8osgEarth8Clamping25applyDefaultClampingAttrsEPN3osg8GeometryEf
libosgEarth.so.0:_ZN8osgEarth8DateTimeC1ERK2tm
libosgEarth.so.0:_ZN8osgEarth8DateTimeC1ERKNSt7__cxx1112basic_stringIcSt11char_traitsIcESaIcEEE
libosgEarth.so.0:_ZN8osgEarth8DateTimeC1ERKS0_
libosgEarth.so.0:_ZN8osgEarth8DateTimeC1Eid
libosgEarth.so.0:_ZN8osgEarth8DateTimeC1Eiiid
libosgEarth.so.0:_ZN8osgEarth8DateTimeC1El
libosgEarth.so.0:_ZN8osgEarth8DateTimeC1Ev
libosgEarth.so.0:_ZN8osgEarth8DateTimeC2ERK2tm
libosgEarth.so.0:_ZN8osgEarth8DateTimeC2ERKNSt7__cxx1112basic_stringIcSt11char_traitsIcESaIcEEE
libosgEarth.so.0:_ZN8osgEarth8DateTimeC2ERKS0_
libosgEarth.so.0:_ZN8osgEarth8DateTimeC2Eid
libosgEarth.so.0:_ZN8osgEarth8DateTimeC2Eiiid
libosgEarth.so.0:_ZN8osgEarth8DateTimeC2El
libosgEarth.so.0:_ZN8osgEarth8DateTimeC2Ev
libosgEarth.so.0:_ZN8osgEarth8GeoImage14applyAlphaMaskERKNS_9GeoExtentE
libosgEarth.so.0:_ZN8osgEarth8GeoImage20addTransparentBorderEbbbb
libosgEarth.so.0:_ZN8osgEarth8GeoImage9takeImageEv
libosgEarth.so.0:_ZN8osgEarth8GeoImageC1EPN3osg5ImageERKNS_9GeoExtentE
libosgEarth.so.0:_ZN8osgEarth8GeoImageC1Ev
libosgEarth.so.0:_ZN8osgEarth8GeoImageC2EPN3osg5ImageERKNS_9GeoExtentE
libosgEarth.so.0:_ZN8osgEarth8GeoImageC2Ev
libosgEarth.so.0:_ZN8osgEarth8GeoPoint10transformZERKNS_12AltitudeModeEPKNS_15TerrainResolverE
libosgEarth.so.0:_ZN8osgEarth8GeoPoint14makeGeographicEv
libosgEarth.so.0:_ZN8osgEarth8GeoPoint16transformInPlaceEPKNS_16SpatialReferenceE
libosgEarth.so.0:_ZN8osgEarth8GeoPoint3setEPKNS_16SpatialReferenceERKN3osg5Vec3dERKNS_12AltitudeModeE
libosgEarth.so.0:_ZN8osgEarth8GeoPoint3setEPKNS_16SpatialReferenceEdddRKNS_12AltitudeModeE
libosgEarth.so.0:_ZN8osgEarth8GeoPoint9fromWorldEPKNS_16SpatialReferenceERKN3osg5Vec3dE
libosgEarth.so.0:_ZN8osgEarth8GeoPointC1EPKNS_16SpatialReferenceERKN3osg5Vec3dE
libosgEarth.so.0:_ZN8osgEarth8GeoPointC1EPKNS_16SpatialReferenceERKN3osg5Vec3dERKNS_12AltitudeModeE
libosgEarth.so.0:_ZN8osgEarth8GeoPointC1EPKNS_16SpatialReferenceERKS0_
libosgEarth.so.0:_ZN8osgEarth8GeoPointC1EPKNS_16SpatialReferenceEdd
libosgEarth.so.0:_ZN8osgEarth8GeoPointC1EPKNS_16SpatialReferenceEddd
libosgEarth.so.0:_ZN8osgEarth8GeoPointC1EPKNS_16SpatialReferenceEdddRKNS_12AltitudeModeE
libosgEarth.so.0:_ZN8osgEarth8GeoPointC1ERKNS_6ConfigEPKNS_16SpatialReferenceE
libosgEarth.so.0:_ZN8osgEarth8GeoPointC1ERKS0_
libosgEarth.so.0:_ZN8osgEarth8GeoPointC1Ev
libosgEarth.so.0:_ZN8osgEarth8GeoPointC2EPKNS_16SpatialReferenceERKN3osg5Vec3dE
libosgEarth.so.0:_ZN8osgEarth8GeoPointC2EPKNS_16SpatialReferenceERKN3osg5Vec3dERKNS_12AltitudeModeE
libosgEarth.so.0:_ZN8osgEarth8GeoPointC2EPKNS_16SpatialReferenceERKS0_
libosgEarth.so.0:_ZN8osgEarth8GeoPointC2EPKNS_16SpatialReferenceEdd
libosgEarth.so.0:_ZN8osgEarth8GeoPointC2EPKNS_16SpatialReferenceEddd
libosgEarth.so.0:_ZN8osgEarth8GeoPointC2EPKNS_16SpatialReferenceEdddRKNS_12AltitudeModeE
libosgEarth.so.0:_ZN8osgEarth8GeoPointC2ERKNS_6ConfigEPKNS_16SpatialReferenceE
libosgEarth.so.0:_ZN8osgEarth8GeoPointC2ERKS0_
libosgEarth.so.0:_ZN8osgEarth8GeoPointC2Ev
libosgEarth.so.0:_ZN8osgEarth8Lighting3setEPN3osg8StateSetEj
libosgEarth.so.0:_ZN8osgEarth8Lighting6removeEPN3osg8StateSetE
libosgEarth.so.0:_ZN8osgEarth8MapFrame21refreshComputedValuesEv
libosgEarth.so.0:_ZN8osgEarth8MapFrame4syncEv
libosgEarth.so.0:_ZN8osgEarth8MapFrame6setMapEPKNS_3MapE
libosgEarth.so.0:_ZN8osgEarth8MapFrame7releaseEv
libosgEarth.so.0:_ZN8osgEarth8MapFrameC1EPKNS_3MapE
libosgEarth.so.0:_ZN8osgEarth8MapFrameC1ERKS0_
libosgEarth.so.0:_ZN8osgEarth8MapFrameC1Ev
libosgEarth.so.0:_ZN8osgEarth8MapFrameC2EPKNS_3MapE
libosgEarth.so.0:_ZN8osgEarth8MapFrameC2ERKS0_
libosgEarth.so.0:_ZN8osgEarth8MapFrameC2Ev
libosgEarth.so.0:_ZN8osgEarth8MemCache14getOrCreateBinERKNSt7__cxx1112basic_stringIcSt11char_traitsIcESaIcEEE
libosgEarth.so.0:_ZN8osgEarth8MemCache21getOrCreateDefaultBinEv
libosgEarth.so.0:_ZN8osgEarth8MemCache6addBinERKNSt7__cxx1112basic_stringIcSt11char_traitsIcESaIcEEE
libosgEarth.so.0:_ZN8osgEarth8MemCache9dumpStatsERKNSt7__cxx1112basic_stringIcSt11char_traitsIcESaIcEEE
libosgEarth.so.0:_ZN8osgEarth8MemCacheC1Ej
libosgEarth.so.0:_ZN8osgEarth8MemCacheC2Ej
libosgEarth.so.0:_ZN8osgEarth8Registry11endActivityERKNSt7__cxx1112basic_stringIcSt11char_traitsIcESaIcEEE
libosgEarth.so.0:_ZN8osgEarth8Registry13getActivitiesERSt3setINSt7__cxx1112basic_stringIcSt11char_traitsIcESaIcEEESt4lessIS7_ESaIS7_EE
libosgEarth.so.0:_ZN8osgEarth8Registry13isBlacklistedERKNSt7__cxx1112basic_stringIcSt11char_traitsIcESaIcEEE
libosgEarth.so.0:_ZN8osgEarth8Registry13registerUnitsEPKNS_5UnitsE
libosgEarth.so.0:_ZN8osgEarth8Registry13startActivityERKNSt7__cxx1112basic_stringIcSt11char_traitsIcESaIcEEE
libosgEarth.so.0:_ZN8osgEarth8Registry13startActivityERKNSt7__cxx1112basic_stringIcSt11char_traitsIcESaIcEEES8_
libosgEarth.so.0:_ZN8osgEarth8Registry14clearBlacklistEv
libosgEarth.so.0:_ZN8osgEarth8Registry14getDefaultFontEv
libosgEarth.so.0:_ZN8osgEarth8Registry14getOrCreateSRSERKNS_16SpatialReference3KeyE
libosgEarth.so.0:_ZN8osgEarth8Registry14getProgramRepoEv
libosgEarth.so.0:_ZN8osgEarth8Registry14setDefaultFontEPN7osgText4FontE
libosgEarth.so.0:_ZN8osgEarth8Registry15setCapabilitiesEPNS_12CapabilitiesE
libosgEarth.so.0:_ZN8osgEarth8Registry15setDefaultCacheEPNS_5CacheE
libosgEarth.so.0:_ZN8osgEarth8Registry16initCapabilitiesEv
libosgEarth.so.0:_ZN8osgEarth8Registry16setShaderFactoryEPNS_13ShaderFactoryE
libosgEarth.so.0:_ZN8osgEarth8Registry16setStateSetCacheEPNS_13StateSetCacheE
libosgEarth.so.0:_ZN8osgEarth8Registry18setShaderGeneratorEPNS_15ShaderGeneratorE
libosgEarth.so.0:_ZN8osgEarth8Registry18setURIReadCallbackEPNS_15URIReadCallbackE
libosgEarth.so.0:_ZN8osgEarth8Registry19setDevicePixelRatioEf
libosgEarth.so.0:_ZN8osgEarth8Registry20cloneOrCreateOptionsEPKN5osgDB7OptionsE
libosgEarth.so.0:_ZN8osgEarth8Registry21setDefaultCachePolicyERKNS_11CachePolicyE
libosgEarth.so.0:_ZN8osgEarth8Registry22setOverrideCachePolicyERKNS_11CachePolicyE
libosgEarth.so.0:_ZN8osgEarth8Registry23getExtensionForMimeTypeERKNSt7__cxx1112basic_stringIcSt11char_traitsIcESaIcEEE
libosgEarth.so.0:_ZN8osgEarth8Registry23getMimeTypeForExtensionERKNSt7__cxx1112basic_stringIcSt11char_traitsIcESaIcEEE
libosgEarth.so.0:_ZN8osgEarth8Registry25setDefaultCacheDriverNameERKNSt7__cxx1112basic_stringIcSt11char_traitsIcESaIcEEE
libosgEarth.so.0:_ZN8osgEarth8Registry26getNumBlacklistedFilenamesEv
libosgEarth.so.0:_ZN8osgEarth8Registry28setTextureImageUnitOffLimitsEi
libosgEarth.so.0:_ZN8osgEarth8Registry7releaseEv
libosgEarth.so.0:_ZN8osgEarth8Registry8instanceEb
libosgEarth.so.0:_ZN8osgEarth8Registry9blacklistERKNSt7__cxx1112basic_stringIcSt11char_traitsIcESaIcEEE
libosgEarth.so.0:_ZN8osgEarth8Registry9createUIDEv
libosgEarth.so.0:_ZN8osgEarth8RegistryC1Ev
libosgEarth.so.0:_ZN8osgEarth8RegistryC2Ev
libosgEarth.so.0:_ZN8osgEarth8RegistryD0Ev
libosgEarth.so.0:_ZN8osgEarth8RegistryD1Ev
libosgEarth.so.0:_ZN8osgEarth8RegistryD2Ev
libosgEarth.so.0:_ZN8osgEarth8TaskList4loadERKNSt7__cxx1112basic_stringIcSt11char_traitsIcESaIcEEE
libosgEarth.so.0:_ZN8osgEarth8TaskList4saveERKNSt7__cxx1112basic_stringIcSt11char_traitsIcESaIcEEE
libosgEarth.so.0:_ZN8osgEarth8TaskList7getKeysEv
libosgEarth.so.0:_ZN8osgEarth8TaskListC1EPKNS_7ProfileE
libosgEarth.so.0:_ZN8osgEarth8TaskListC2EPKNS_7ProfileE
libosgEarth.so.0:_ZN8osgEarth8ciEqualsERKNSt7__cxx1112basic_stringIcSt11char_traitsIcESaIcEEES7_RKSt6locale
libosgEarth.so.0:_ZN8osgEarth8endsWithERKNSt7__cxx1112basic_stringIcSt11char_traitsIcESaIcEEES7_bRKSt6locale
libosgEarth.so.0:_ZN8osgEarth9CacheSeed10setVisitorEPNS_11TileVisitorE
libosgEarth.so.0:_ZN8osgEarth9CacheSeed3runEPNS_12TerrainLayerEPKNS_3MapE
libosgEarth.so.0:_ZN8osgEarth9CacheSeedC1Ev
libosgEarth.so.0:_ZN8osgEarth9CacheSeedC2Ev
libosgEarth.so.0:_ZN8osgEarth9CubeUtils10cubeToFaceERdS1_Ri
libosgEarth.so.0:_ZN8osgEarth9CubeUtils10cubeToFaceERdS1_S1_S1_Ri
libosgEarth.so.0:_ZN8osgEarth9CubeUtils10faceToCubeERdS1_i
libosgEarth.so.0:_ZN8osgEarth9CubeUtils18faceCoordsToLatLonEddiRdS1_
libosgEarth.so.0:_ZN8osgEarth9CubeUtils18latLonToFaceCoordsEddRdS1_Rii
libosgEarth.so.0:_ZN8osgEarth9Extension16getConfigOptionsEPKN5osgDB7OptionsE
libosgEarth.so.0:_ZN8osgEarth9Extension6createERKNSt7__cxx1112basic_stringIcSt11char_traitsIcESaIcEEERKNS_13ConfigOptionsE
libosgEarth.so.0:_ZN8osgEarth9ExtensionC1Ev
libosgEarth.so.0:_ZN8osgEarth9ExtensionC2Ev
libosgEarth.so.0:_ZN8osgEarth9GeoCircleC1ERKNS_8GeoPointEd
libosgEarth.so.0:_ZN8osgEarth9GeoCircleC1ERKS0_
libosgEarth.so.0:_ZN8osgEarth9GeoCircleC1Ev
libosgEarth.so.0:_ZN8osgEarth9GeoCircleC2ERKNS_8GeoPointEd
libosgEarth.so.0:_ZN8osgEarth9GeoCircleC2ERKS0_
libosgEarth.so.0:_ZN8osgEarth9GeoCircleC2Ev
libosgEarth.so.0:_ZN8osgEarth9GeoExtent15expandToIncludeERKS0_
libosgEarth.so.0:_ZN8osgEarth9GeoExtent15expandToIncludeEdd
libosgEarth.so.0:_ZN8osgEarth9GeoExtent16setOriginAndSizeEdddd
libosgEarth.so.0:_ZN8osgEarth9GeoExtent3setEdddd
libosgEarth.so.0:_ZN8osgEarth9GeoExtent5clampEv
libosgEarth.so.0:_ZN8osgEarth9GeoExtent5scaleEdd
libosgEarth.so.0:_ZN8osgEarth9GeoExtent6expandEdd
libosgEarth.so.0:_ZN8osgEarth9GeoExtentC1EPKNS_16SpatialReferenceE
libosgEarth.so.0:_ZN8osgEarth9GeoExtentC1EPKNS_16SpatialReferenceERKNS_6BoundsE
libosgEarth.so.0:_ZN8osgEarth9GeoExtentC1EPKNS_16SpatialReferenceEdddd
libosgEarth.so.0:_ZN8osgEarth9GeoExtentC1ERKS0_
libosgEarth.so.0:_ZN8osgEarth9GeoExtentC1Ev
libosgEarth.so.0:_ZN8osgEarth9GeoExtentC2EPKNS_16SpatialReferenceE
libosgEarth.so.0:_ZN8osgEarth9GeoExtentC2EPKNS_16SpatialReferenceERKNS_6BoundsE
libosgEarth.so.0:_ZN8osgEarth9GeoExtentC2EPKNS_16SpatialReferenceEdddd
libosgEarth.so.0:_ZN8osgEarth9GeoExtentC2ERKS0_
libosgEarth.so.0:_ZN8osgEarth9GeoExtentC2Ev
libosgEarth.so.0:_ZN8osgEarth9LineGroup15getLineDrawableEj
libosgEarth.so.0:_ZN8osgEarth9LineGroup6importEPN3osg4NodeEb
libosgEarth.so.0:_ZN8osgEarth9LineGroup8optimizeEv
libosgEarth.so.0:_ZN8osgEarth9LineGroupC1ERKS0_RKN3osg6CopyOpE
libosgEarth.so.0:_ZN8osgEarth9LineGroupC1Ev
libosgEarth.so.0:_ZN8osgEarth9LineGroupC2ERKS0_RKN3osg6CopyOpE
libosgEarth.so.0:_ZN8osgEarth9LineGroupC2Ev
libosgEarth.so.0:_ZN8osgEarth9LineGroupD0Ev
libosgEarth.so.0:_ZN8osgEarth9LineGroupD1Ev
libosgEarth.so.0:_ZN8osgEarth9LineGroupD2Ev
libosgEarth.so.0:_ZN8osgEarth9MaskLayerC1EPNS_16MaskLayerOptionsE
libosgEarth.so.0:_ZN8osgEarth9MaskLayerC2EPNS_16MaskLayerOptionsE
libosgEarth.so.0:_ZN8osgEarth9MetaImage4TileC1Ev
libosgEarth.so.0:_ZN8osgEarth9MetaImage4TileC2Ev
libosgEarth.so.0:_ZN8osgEarth9MetaImage8setImageEiiPN3osg5ImageERKNS1_7MatrixdE
libosgEarth.so.0:_ZN8osgEarth9NormalMap3setEjjRKN3osg5Vec3fEf
libosgEarth.so.0:_ZN8osgEarth9NormalMapC1Ejj
libosgEarth.so.0:_ZN8osgEarth9NormalMapC2Ejj
libosgEarth.so.0:_ZN8osgEarth9NormalMapD0Ev
libosgEarth.so.0:_ZN8osgEarth9NormalMapD1Ev
libosgEarth.so.0:_ZN8osgEarth9NormalMapD2Ev
libosgEarth.so.0:_ZN8osgEarth9PagedNode11setupPagingEv
libosgEarth.so.0:_ZN8osgEarth9PagedNode12setRangeModeEN3osg3LOD9RangeModeE
libosgEarth.so.0:_ZN8osgEarth9PagedNode7setNodeEPN3osg4NodeE
libosgEarth.so.0:_ZN8osgEarth9PagedNodeC1Ev
libosgEarth.so.0:_ZN8osgEarth9PagedNodeC2Ev
libosgEarth.so.0:_ZN8osgEarth9Shadowing14isShadowCameraEPKN3osg6CameraE
libosgEarth.so.0:_ZN8osgEarth9Shadowing17setIsShadowCameraEPN3osg6CameraE
libosgEarth.so.0:_ZN8osgEarth9Threading10MultiEvent12waitAndResetEv
libosgEarth.so.0:_ZN8osgEarth9Threading10MultiEvent3setEv
libosgEarth.so.0:_ZN8osgEarth9Threading10MultiEvent4waitEv
libosgEarth.so.0:_ZN8osgEarth9Threading10MultiEvent5resetEv
libosgEarth.so.0:_ZN8osgEarth9Threading10MultiEventC1Ei
libosgEarth.so.0:_ZN8osgEarth9Threading10MultiEventC2Ei
libosgEarth.so.0:_ZN8osgEarth9Threading10MultiEventD1Ev
libosgEarth.so.0:_ZN8osgEarth9Threading10MultiEventD2Ev
libosgEarth.so.0:_ZN8osgEarth9Threading14ReadWriteMutex10readUnlockEv
libosgEarth.so.0:_ZN8osgEarth9Threading14ReadWriteMutex11writeUnlockEv
libosgEarth.so.0:_ZN8osgEarth9Threading14ReadWriteMutex20decrementReaderCountEv
libosgEarth.so.0:_ZN8osgEarth9Threading14ReadWriteMutex20incrementReaderCountEv
libosgEarth.so.0:_ZN8osgEarth9Threading14ReadWriteMutex8readLockEv
libosgEarth.so.0:_ZN8osgEarth9Threading14ReadWriteMutex9writeLockEv
libosgEarth.so.0:_ZN8osgEarth9Threading14ReadWriteMutexC1Ev
libosgEarth.so.0:_ZN8osgEarth9Threading14ReadWriteMutexC2Ev
libosgEarth.so.0:_ZN8osgEarth9Threading18getCurrentThreadIdEv
libosgEarth.so.0:_ZN8osgEarth9Threading5Event12waitAndResetEv
libosgEarth.so.0:_ZN8osgEarth9Threading5Event3setEv
libosgEarth.so.0:_ZN8osgEarth9Threading5Event4waitEj
libosgEarth.so.0:_ZN8osgEarth9Threading5Event4waitEv
libosgEarth.so.0:_ZN8osgEarth9Threading5Event5resetEv
libosgEarth.so.0:_ZN8osgEarth9Threading5EventC1Ev
libosgEarth.so.0:_ZN8osgEarth9Threading5EventC2Ev
libosgEarth.so.0:_ZN8osgEarth9Threading5EventD1Ev
libosgEarth.so.0:_ZN8osgEarth9Threading5EventD2Ev
libosgEarth.so.0:_ZN8osgEarth9TiXmlBase10IsAlphaNumEh13TiXmlEncoding
libosgEarth.so.0:_ZN8osgEarth9TiXmlBase11StringEqualEPKcS2_b13TiXmlEncoding
libosgEarth.so.0:_ZN8osgEarth9TiXmlBase12EncodeStringERKNSt7__cxx1112basic_stringIcSt11char_traitsIcESaIcEEEPS6_
libosgEarth.so.0:_ZN8osgEarth9TiXmlBase14SkipWhiteSpaceEPKc13TiXmlEncoding
libosgEarth.so.0:_ZN8osgEarth9TiXmlBase16StreamWhiteSpaceEPSiPNSt7__cxx1112basic_stringIcSt11char_traitsIcESaIcEEE
libosgEarth.so.0:_ZN8osgEarth9TiXmlBase18ConvertUTF32ToUTF8EmPcPi
libosgEarth.so.0:_ZN8osgEarth9TiXmlBase7IsAlphaEh13TiXmlEncoding
libosgEarth.so.0:_ZN8osgEarth9TiXmlBase8ReadNameEPKcPNSt7__cxx1112basic_stringIcSt11char_traitsIcESaIcEEE13TiXmlEncoding
libosgEarth.so.0:_ZN8osgEarth9TiXmlBase8ReadTextEPKcPNSt7__cxx1112basic_stringIcSt11char_traitsIcESaIcEEEbS2_b13TiXmlEncoding
libosgEarth.so.0:_ZN8osgEarth9TiXmlBase8StreamToEPSiiPNSt7__cxx1112basic_stringIcSt11char_traitsIcESaIcEEE
libosgEarth.so.0:_ZN8osgEarth9TiXmlBase9GetEntityEPKcPcPi13TiXmlEncoding
libosgEarth.so.0:_ZN8osgEarth9TiXmlNode11RemoveChildEPS0_
libosgEarth.so.0:_ZN8osgEarth9TiXmlNode12LinkEndChildEPS0_
libosgEarth.so.0:_ZN8osgEarth9TiXmlNode12ReplaceChildEPS0_RKS0_
libosgEarth.so.0:_ZN8osgEarth9TiXmlNode14InsertEndChildERKS0_
libosgEarth.so.0:_ZN8osgEarth9TiXmlNode16InsertAfterChildEPS0_RKS0_
libosgEarth.so.0:_ZN8osgEarth9TiXmlNode17InsertBeforeChildEPS0_RKS0_
libosgEarth.so.0:_ZN8osgEarth9TiXmlNode5ClearEv
libosgEarth.so.0:_ZN8osgEarth9TiXmlNode8IdentifyEPKc13TiXmlEncoding
libosgEarth.so.0:_ZN8osgEarth9TiXmlNodeC1ENS0_8NodeTypeE
libosgEarth.so.0:_ZN8osgEarth9TiXmlNodeC2ENS0_8NodeTypeE
libosgEarth.so.0:_ZN8osgEarth9TiXmlNodeD0Ev
libosgEarth.so.0:_ZN8osgEarth9TiXmlNodeD1Ev
libosgEarth.so.0:_ZN8osgEarth9TiXmlNodeD2Ev
libosgEarth.so.0:_ZN8osgEarth9TiXmlText5ParseEPKcP16TiXmlParsingData13TiXmlEncoding
libosgEarth.so.0:_ZN8osgEarth9TiXmlText8StreamInEPSiPNSt7__cxx1112basic_stringIcSt11char_traitsIcESaIcEEE
libosgEarth.so.0:_ZN8osgEarth9TileImageC1EPN3osg5ImageERKNS_7TileKeyE
libosgEarth.so.0:_ZN8osgEarth9TileImageC2EPN3osg5ImageERKNS_7TileKeyE
libosgEarth.so.0:_ZN8osgEarth9URIStreamC1ERKNS_3URIESt13_Ios_Openmode
libosgEarth.so.0:_ZN8osgEarth9URIStreamC2ERKNS_3URIESt13_Ios_Openmode
libosgEarth.so.0:_ZN8osgEarth9URIStreamD0Ev
libosgEarth.so.0:_ZN8osgEarth9URIStreamD1Ev
libosgEarth.so.0:_ZN8osgEarth9URIStreamD2Ev
libosgEarth.so.0:_ZN8osgEarth9URIStreamcvRSiEv
libosgEarth.so.0:_ZN8osgEarth9ViewpointC1EPKcdddddd
libosgEarth.so.0:_ZN8osgEarth9ViewpointC1ERKNS_6ConfigE
libosgEarth.so.0:_ZN8osgEarth9ViewpointC1ERKS0_
libosgEarth.so.0:_ZN8osgEarth9ViewpointC1Ev
libosgEarth.so.0:_ZN8osgEarth9ViewpointC2EPKcdddddd
libosgEarth.so.0:_ZN8osgEarth9ViewpointC2ERKNS_6ConfigE
libosgEarth.so.0:_ZN8osgEarth9ViewpointC2ERKS0_
libosgEarth.so.0:_ZN8osgEarth9ViewpointC2Ev
libosgEarth.so.0:_ZN8osgEarth9isArchiveERKNSt7__cxx1112basic_stringIcSt11char_traitsIcESaIcEEE
libosgEarth.so.0:_ZN8osgEarth9replaceInERNSt7__cxx1112basic_stringIcSt11char_traitsIcESaIcEEERKS5_S8_
libosgEarth.so.0:_ZN8osgEarth9touchFileERKNSt7__cxx1112basic_stringIcSt11char_traitsIcESaIcEEE
libosgEarth.so.0:_ZNK11TiXmlHandle10FirstChildEPKc
libosgEarth.so.0:_ZNK11TiXmlHandle10FirstChildEv
libosgEarth.so.0:_ZNK11TiXmlHandle12ChildElementEPKci
libosgEarth.so.0:_ZNK11TiXmlHandle12ChildElementEi
libosgEarth.so.0:_ZNK11TiXmlHandle17FirstChildElementEPKc
libosgEarth.so.0:_ZNK11TiXmlHandle17FirstChildElementEv
libosgEarth.so.0:_ZNK11TiXmlHandle5ChildEPKci
libosgEarth.so.0:_ZNK11TiXmlHandle5ChildEi
libosgEarth.so.0:_ZNK8osgEarth10FadeEffect11getMaxRangeEv
libosgEarth.so.0:_ZNK8osgEarth10FadeEffect15getFadeDurationEv
libosgEarth.so.0:_ZNK8osgEarth10FadeEffect22getAttenuationDistanceEv
libosgEarth.so.0:_ZNK8osgEarth10GeoLocator13getDataExtentEv
libosgEarth.so.0:_ZNK8osgEarth10GeoLocator14isEquivalentToERKS0_
libosgEarth.so.0:_ZNK8osgEarth10GeoLocator19convertModelToLocalERKN3osg5Vec3dERS2_
libosgEarth.so.0:_ZNK8osgEarth10GeoLocator21createScaleBiasMatrixERKNS_9GeoExtentERN3osg7MatrixdE
libosgEarth.so.0:_ZNK8osgEarth10GeoLocator21createScaleBiasMatrixERKNS_9GeoExtentERN3osg7MatrixfE
libosgEarth.so.0:_ZNK8osgEarth10GeoLocator27getGeographicFromGeocentricEv
libosgEarth.so.0:_ZNK8osgEarth10GeoLocator9cropLocalERN3osg5Vec3dE
libosgEarth.so.0:_ZNK8osgEarth10HTTPClient10initializeEv
libosgEarth.so.0:_ZNK8osgEarth10HTTPClient11readOptionsEPKN5osgDB7OptionsERNSt7__cxx1112basic_stringIcSt11char_traitsIcESaIcEEESB_
libosgEarth.so.0:_ZNK8osgEarth10HTTPClient21decodeMultipartStreamERKNSt7__cxx1112basic_stringIcSt11char_traitsIcESaIcEEEPNS_12HTTPResponse4PartERSt6vectorIN3osg7ref_ptrISA_EESaISF_EE
libosgEarth.so.0:_ZNK8osgEarth10HTTPClient5doGetERKNS_11HTTPRequestEPKN5osgDB7OptionsEPNS_16ProgressCallbackE
libosgEarth.so.0:_ZNK8osgEarth10ImageLayer10isCoverageEv
libosgEarth.so.0:_ZNK8osgEarth10ImageLayer15getColorFiltersEv
libosgEarth.so.0:_ZNK8osgEarth10ImageLayer21modifyTileBoundingBoxERKNS_7TileKeyERN3osg15BoundingBoxImplINS4_5Vec3fEEE
libosgEarth.so.0:_ZNK8osgEarth10ImageLayer27applyTextureCompressionModeEPN3osg7TextureE
libosgEarth.so.0:_ZNK8osgEarth10ImageLayer8isSharedEv
libosgEarth.so.0:_ZNK8osgEarth10ImageUtils11PixelReaderclEddii
libosgEarth.so.0:_ZNK8osgEarth10ImageUtils11PixelReaderclEffii
libosgEarth.so.0:_ZNK8osgEarth10MapOptions9getConfigEv
libosgEarth.so.0:_ZNK8osgEarth10ModelLayer10getCacheIDB5cxx11Ev
libosgEarth.so.0:_ZNK8osgEarth10ModelLayer17isLightingEnabledEv
libosgEarth.so.0:_ZNK8osgEarth10ModelLayer7getNodeEv
libosgEarth.so.0:_ZNK8osgEarth10PolyShader16releaseGLObjectsEPN3osg5StateE
libosgEarth.so.0:_ZNK8osgEarth10PolyShader9getShaderEj
libosgEarth.so.0:_ZNK8osgEarth10TileSource10getProfileEv
libosgEarth.so.0:_ZNK8osgEarth10TileSource12getBlacklistEv
libosgEarth.so.0:_ZNK8osgEarth10TileSource16getPixelsPerTileEv
libosgEarth.so.0:_ZNK8osgEarth10TileSource4isOKEv
libosgEarth.so.0:_ZNK8osgEarth10URIContext10getHeadersB5cxx11Ev
libosgEarth.so.0:_ZNK8osgEarth10URIContext10getOSGPathERKNSt7__cxx1112basic_stringIcSt11char_traitsIcESaIcEEE
libosgEarth.so.0:_ZNK8osgEarth10URIContext3addERKNSt7__cxx1112basic_stringIcSt11char_traitsIcESaIcEEE
libosgEarth.so.0:_ZNK8osgEarth10URIContext3addERKS0_
libosgEarth.so.0:_ZNK8osgEarth10XmlElement11findElementERKNSt7__cxx1112basic_stringIcSt11char_traitsIcESaIcEEE
libosgEarth.so.0:_ZNK8osgEarth10XmlElement11getChildrenEv
libosgEarth.so.0:_ZNK8osgEarth10XmlElement13getSubElementERKNSt7__cxx1112basic_stringIcSt11char_traitsIcESaIcEEE
libosgEarth.so.0:_ZNK8osgEarth10XmlElement14getSubElementsERKNSt7__cxx1112basic_stringIcSt11char_traitsIcESaIcEEE
libosgEarth.so.0:_ZNK8osgEarth10XmlElement17getSubElementTextERKNSt7__cxx1112basic_stringIcSt11char_traitsIcESaIcEEE
libosgEarth.so.0:_ZNK8osgEarth10XmlElement7getAttrERKNSt7__cxx1112basic_stringIcSt11char_traitsIcESaIcEEE
libosgEarth.so.0:_ZNK8osgEarth10XmlElement7getNameB5cxx11Ev
libosgEarth.so.0:_ZNK8osgEarth10XmlElement7getTextB5cxx11Ev
libosgEarth.so.0:_ZNK8osgEarth10XmlElement8getAttrsB5cxx11Ev
libosgEarth.so.0:_ZNK8osgEarth10XmlElement9getConfigERKNSt7__cxx1112basic_stringIcSt11char_traitsIcESaIcEEE
libosgEarth.so.0:_ZNK8osgEarth11CacheDriver15getCacheOptionsEPKN5osgDB7OptionsE
libosgEarth.so.0:_ZNK8osgEarth11CachePolicy11usageStringB5cxx11Ev
libosgEarth.so.0:_ZNK8osgEarth11CachePolicy16getMinAcceptTimeEv
libosgEarth.so.0:_ZNK8osgEarth11CachePolicy5emptyEv
libosgEarth.so.0:_ZNK8osgEarth11CachePolicy9getConfigEv
libosgEarth.so.0:_ZNK8osgEarth11CachePolicy9isExpiredEl
libosgEarth.so.0:_ZNK8osgEarth11CachePolicyeqERKS0_
libosgEarth.so.0:_ZNK8osgEarth11FadeOptions9getConfigEv
libosgEarth.so.0:_ZNK8osgEarth11GLSLChunker4dumpERKNSt7__cxx1112basic_stringIcSt11char_traitsIcESaIcEEERKSt6vectorINS0_5ChunkESaISA_EE
libosgEarth.so.0:_ZNK8osgEarth11GLSLChunker4readERKNSt7__cxx1112basic_stringIcSt11char_traitsIcESaIcEEERSt6vectorINS0_5ChunkESaISA_EE
libosgEarth.so.0:_ZNK8osgEarth11GLSLChunker5writeERKSt6vectorINS0_5ChunkESaIS2_EERNSt7__cxx1112basic_stringIcSt11char_traitsIcESaIcEEE
libosgEarth.so.0:_ZNK8osgEarth11GLSLChunker7replaceERSt6vectorINS0_5ChunkESaIS2_EERKNSt7__cxx1112basic_stringIcSt11char_traitsIcESaIcEEESD_
libosgEarth.so.0:_ZNK8osgEarth11GLSLChunker9chunkLineERKNSt7__cxx1112basic_stringIcSt11char_traitsIcESaIcEEE
libosgEarth.so.0:_ZNK8osgEarth11HTTPRequest10getHeadersB5cxx11Ev
libosgEarth.so.0:_ZNK8osgEarth11HTTPRequest13getParametersB5cxx11Ev
libosgEarth.so.0:_ZNK8osgEarth11HTTPRequest6getURLB5cxx11Ev
libosgEarth.so.0:_ZNK8osgEarth11MaterialGL35applyERN3osg5StateE
libosgEarth.so.0:_ZNK8osgEarth11ObjectIndex11getObjectIDEPN3osg4NodeERj
libosgEarth.so.0:_ZNK8osgEarth11ObjectIndex11loadShadersEPNS_14VirtualProgramE
libosgEarth.so.0:_ZNK8osgEarth11ObjectIndex11tagDrawableEPN3osg8DrawableEj
libosgEarth.so.0:_ZNK8osgEarth11ObjectIndex12getObjectIDsEPKN3osg8DrawableERSt3setIjSt4lessIjESaIjEE
libosgEarth.so.0:_ZNK8osgEarth11ObjectIndex15tagAllDrawablesEPN3osg4NodeEj
libosgEarth.so.0:_ZNK8osgEarth11ObjectIndex7getImplEj
libosgEarth.so.0:_ZNK8osgEarth11ObjectIndex7tagNodeEPN3osg4NodeEj
libosgEarth.so.0:_ZNK8osgEarth11ProgramRepo16releaseGLObjectsEPN3osg5StateE
libosgEarth.so.0:_ZNK8osgEarth11TaskRequest11wasCanceledEv
libosgEarth.so.0:_ZNK8osgEarth11TaskService13getNumThreadsEv
libosgEarth.so.0:_ZNK8osgEarth11TaskService14getNumRequestsEv
libosgEarth.so.0:_ZNK8osgEarth11TaskService8getStampEv
libosgEarth.so.0:_ZNK8osgEarth11TileHandler16getProcessStringB5cxx11Ev
libosgEarth.so.0:_ZNK8osgEarth11TileHandler7hasDataERKNS_7TileKeyE
libosgEarth.so.0:_ZNK8osgEarth11URIAliasMap7resolveERKNSt7__cxx1112basic_stringIcSt11char_traitsIcESaIcEEERKNS_10URIContextE
libosgEarth.so.0:_ZNK8osgEarth11XmlDocument5storeERSo
libosgEarth.so.0:_ZNK8osgEarth11XmlDocument9getConfigEv
libosgEarth.so.0:_ZNK8osgEarth12ArrayUniform10getElementEjRN3osg5Vec3fE
libosgEarth.so.0:_ZNK8osgEarth12ArrayUniform10getElementEjRN3osg7MatrixdE
libosgEarth.so.0:_ZNK8osgEarth12ArrayUniform10getElementEjRb
libosgEarth.so.0:_ZNK8osgEarth12ArrayUniform10getElementEjRf
libosgEarth.so.0:_ZNK8osgEarth12ArrayUniform10getElementEjRi
libosgEarth.so.0:_ZNK8osgEarth12ArrayUniform10getElementEjRj
libosgEarth.so.0:_ZNK8osgEarth12CIStringCompclERKNSt7__cxx1112basic_stringIcSt11char_traitsIcESaIcEEES8_
libosgEarth.so.0:_ZNK8osgEarth12Capabilities26supportsTextureCompressionERKN3osg7Texture18InternalFormatModeE
libosgEarth.so.0:_ZNK8osgEarth12CullDebugger13dumpRenderBinEPN7osgUtil9RenderBinE
libosgEarth.so.0:_ZNK8osgEarth12ElevationLOD11getMaxRangeEv
libosgEarth.so.0:_ZNK8osgEarth12ElevationLOD11getMinRangeEv
libosgEarth.so.0:_ZNK8osgEarth12ElevationLOD15getMaxElevationEv
libosgEarth.so.0:_ZNK8osgEarth12ElevationLOD15getMinElevationEv
libosgEarth.so.0:_ZNK8osgEarth12GeoTransform11getPositionEv
libosgEarth.so.0:_ZNK8osgEarth12GeoTransform21ComputeMatrixCallback25computeLocalToWorldMatrixEPKS0_RN3osg7MatrixdEPNS4_11NodeVisitorE
libosgEarth.so.0:_ZNK8osgEarth12GeoTransform21ComputeMatrixCallback25computeWorldToLocalMatrixEPKS0_RN3osg7MatrixdEPNS4_11NodeVisitorE
libosgEarth.so.0:_ZNK8osgEarth12HTTPResponse11getMimeTypeB5cxx11Ev
libosgEarth.so.0:_ZNK8osgEarth12HTTPResponse11getNumPartsEv
libosgEarth.so.0:_ZNK8osgEarth12HTTPResponse11getPartSizeEj
libosgEarth.so.0:_ZNK8osgEarth12HTTPResponse11isCancelledEv
libosgEarth.so.0:_ZNK8osgEarth12HTTPResponse13getPartHeaderEjRKNSt7__cxx1112basic_stringIcSt11char_traitsIcESaIcEEE
libosgEarth.so.0:_ZNK8osgEarth12HTTPResponse13getPartStreamEj
libosgEarth.so.0:_ZNK8osgEarth12HTTPResponse15getCodeCategoryEv
libosgEarth.so.0:_ZNK8osgEarth12HTTPResponse15getPartAsStringB5cxx11Ej
libosgEarth.so.0:_ZNK8osgEarth12HTTPResponse18getHeadersAsConfigEv
libosgEarth.so.0:_ZNK8osgEarth12HTTPResponse4isOKEv
libosgEarth.so.0:_ZNK8osgEarth12HTTPResponse7getCodeEv
libosgEarth.so.0:_ZNK8osgEarth12LayerOptions9getConfigEv
libosgEarth.so.0:_ZNK8osgEarth12LineDrawable11getNumVertsEv
libosgEarth.so.0:_ZNK8osgEarth12LineDrawable12getRealIndexEj
libosgEarth.so.0:_ZNK8osgEarth12LineDrawable15numVirtualVertsEPKN3osg5ArrayE
libosgEarth.so.0:_ZNK8osgEarth12LineDrawable16releaseGLObjectsEPN3osg5StateE
libosgEarth.so.0:_ZNK8osgEarth12LineDrawable25actualVertsPerVirtualVertEj
libosgEarth.so.0:_ZNK8osgEarth12LineDrawable8getCountEv
libosgEarth.so.0:_ZNK8osgEarth12LineDrawable8getFirstEv
libosgEarth.so.0:_ZNK8osgEarth12LineDrawable9getVertexEj
libosgEarth.so.0:_ZNK8osgEarth12SimplexNoise13getTiledValueEdd
libosgEarth.so.0:_ZNK8osgEarth12SimplexNoise19createSeamlessImageEj
libosgEarth.so.0:_ZNK8osgEarth12SimplexNoise27getTiledValueWithTurbulenceEddd
libosgEarth.so.0:_ZNK8osgEarth12SimplexNoise5NoiseEdd
libosgEarth.so.0:_ZNK8osgEarth12SimplexNoise5NoiseEddd
libosgEarth.so.0:_ZNK8osgEarth12SimplexNoise5NoiseEdddd
libosgEarth.so.0:_ZNK8osgEarth12SimplexNoise8getValueEdd
libosgEarth.so.0:_ZNK8osgEarth12SimplexNoise8getValueEddd
libosgEarth.so.0:_ZNK8osgEarth12SimplexNoise8getValueEdddd
libosgEarth.so.0:_ZNK8osgEarth12StringObject9getStringB5cxx11Ev
libosgEarth.so.0:_ZNK8osgEarth12TerrainLayer10getCacheIDB5cxx11Ev
libosgEarth.so.0:_ZNK8osgEarth12TerrainLayer10getProfileEv
libosgEarth.so.0:_ZNK8osgEarth12TerrainLayer11getTileSizeEv
libosgEarth.so.0:_ZNK8osgEarth12TerrainLayer11mayHaveDataERKNS_7TileKeyE
libosgEarth.so.0:_ZNK8osgEarth12TerrainLayer13getTileSourceEv
libosgEarth.so.0:_ZNK8osgEarth12TerrainLayer14getAttributionB5cxx11Ev
libosgEarth.so.0:_ZNK8osgEarth12TerrainLayer14getDataExtentsEv
libosgEarth.so.0:_ZNK8osgEarth12TerrainLayer14getMetadataKeyB5cxx11EPKNS_7ProfileE
libosgEarth.so.0:_ZNK8osgEarth12TerrainLayer14getNoDataValueEv
libosgEarth.so.0:_ZNK8osgEarth12TerrainLayer16CacheBinMetadata9getConfigEv
libosgEarth.so.0:_ZNK8osgEarth12TerrainLayer16getCacheSettingsEv
libosgEarth.so.0:_ZNK8osgEarth12TerrainLayer16getMaxValidValueEv
libosgEarth.so.0:_ZNK8osgEarth12TerrainLayer16getMinValidValueEv
libosgEarth.so.0:_ZNK8osgEarth12TerrainLayer17isKeyInLegalRangeERKNS_7TileKeyE
libosgEarth.so.0:_ZNK8osgEarth12TerrainLayer18isKeyInVisualRangeERKNS_7TileKeyE
libosgEarth.so.0:_ZNK8osgEarth12TerrainLayer19getDataExtentsUnionEv
libosgEarth.so.0:_ZNK8osgEarth12TerrainLayer23getBestAvailableTileKeyERKNS_7TileKeyE
libosgEarth.so.0:_ZNK8osgEarth12TerrainLayer8isCachedERKNS_7TileKeyE
libosgEarth.so.0:_ZNK8osgEarth12TerrainLayer9getExtentEv
libosgEarth.so.0:_ZNK8osgEarth12TerrainLayer9isDynamicEv
libosgEarth.so.0:_ZNK8osgEarth12TiXmlComment5CloneEv
libosgEarth.so.0:_ZNK8osgEarth12TiXmlComment5PrintEP8_IO_FILEi
libosgEarth.so.0:_ZNK8osgEarth12TiXmlComment6AcceptEPNS_12TiXmlVisitorE
libosgEarth.so.0:_ZNK8osgEarth12TiXmlComment6CopyToEPS0_
libosgEarth.so.0:_ZNK8osgEarth12TiXmlElement17QueryIntAttributeEPKcPi
libosgEarth.so.0:_ZNK8osgEarth12TiXmlElement17QueryIntAttributeERKNSt7__cxx1112basic_stringIcSt11char_traitsIcESaIcEEEPi
libosgEarth.so.0:_ZNK8osgEarth12TiXmlElement20QueryDoubleAttributeEPKcPd
libosgEarth.so.0:_ZNK8osgEarth12TiXmlElement20QueryDoubleAttributeERKNSt7__cxx1112basic_stringIcSt11char_traitsIcESaIcEEEPd
libosgEarth.so.0:_ZNK8osgEarth12TiXmlElement5CloneEv
libosgEarth.so.0:_ZNK8osgEarth12TiXmlElement5PrintEP8_IO_FILEi
libosgEarth.so.0:_ZNK8osgEarth12TiXmlElement6AcceptEPNS_12TiXmlVisitorE
libosgEarth.so.0:_ZNK8osgEarth12TiXmlElement6CopyToEPS0_
libosgEarth.so.0:_ZNK8osgEarth12TiXmlElement7GetTextEv
libosgEarth.so.0:_ZNK8osgEarth12TiXmlElement9AttributeEPKc
libosgEarth.so.0:_ZNK8osgEarth12TiXmlElement9AttributeEPKcPd
libosgEarth.so.0:_ZNK8osgEarth12TiXmlElement9AttributeEPKcPi
libosgEarth.so.0:_ZNK8osgEarth12TiXmlElement9AttributeERKNSt7__cxx1112basic_stringIcSt11char_traitsIcESaIcEEE
libosgEarth.so.0:_ZNK8osgEarth12TiXmlElement9AttributeERKNSt7__cxx1112basic_stringIcSt11char_traitsIcESaIcEEEPd
libosgEarth.so.0:_ZNK8osgEarth12TiXmlElement9AttributeERKNSt7__cxx1112basic_stringIcSt11char_traitsIcESaIcEEEPi
libosgEarth.so.0:_ZNK8osgEarth12TiXmlUnknown5CloneEv
libosgEarth.so.0:_ZNK8osgEarth12TiXmlUnknown5PrintEP8_IO_FILEi
libosgEarth.so.0:_ZNK8osgEarth12TiXmlUnknown6AcceptEPNS_12TiXmlVisitorE
libosgEarth.so.0:_ZNK8osgEarth12TiXmlUnknown6CopyToEPS0_
libosgEarth.so.0:_ZNK8osgEarth12VisibleLayer10getOpacityEv
libosgEarth.so.0:_ZNK8osgEarth12VisibleLayer10getVisibleEv
libosgEarth.so.0:_ZNK8osgEarth12VisibleLayer18getMaxVisibleRangeEv
libosgEarth.so.0:_ZNK8osgEarth12VisibleLayer18getMinVisibleRangeEv
libosgEarth.so.0:_ZNK8osgEarth12VisibleLayer19getAttenuationRangeEv
libosgEarth.so.0:_ZNK8osgEarth13CacheSettings14isCacheEnabledEv
libosgEarth.so.0:_ZNK8osgEarth13CacheSettings8toStringB5cxx11Ev
libosgEarth.so.0:_ZNK8osgEarth13ConfigOptions9getConfigEv
libosgEarth.so.0:_ZNK8osgEarth13DateTimeRange10intersectsERKNS_8DateTimeE
libosgEarth.so.0:_ZNK8osgEarth13DateTimeRange10intersectsERKS0_
libosgEarth.so.0:_ZNK8osgEarth13PointDrawable11getNumVertsEv
libosgEarth.so.0:_ZNK8osgEarth13PointDrawable16compileGLObjectsERN3osg10RenderInfoE
libosgEarth.so.0:_ZNK8osgEarth13PointDrawable16releaseGLObjectsEPN3osg5StateE
libosgEarth.so.0:_ZNK8osgEarth13PointDrawable18drawImplementationERN3osg10RenderInfoE
libosgEarth.so.0:_ZNK8osgEarth13PointDrawable19checkSharedStateSetEPN3osg5StateE
libosgEarth.so.0:_ZNK8osgEarth13PointDrawable8getCountEv
libosgEarth.so.0:_ZNK8osgEarth13PointDrawable8getFirstEv
libosgEarth.so.0:_ZNK8osgEarth13PointDrawable9getVertexEj
libosgEarth.so.0:_ZNK8osgEarth13ProxySettings5applyEPN5osgDB7OptionsE
libosgEarth.so.0:_ZNK8osgEarth13ProxySettings9getConfigEv
libosgEarth.so.0:_ZNK8osgEarth13ShaderFactory11createMainsERKSt3mapINS_10ShaderComp16FunctionLocationESt8multimapIfNS2_8FunctionESt4lessIfESaISt4pairIKfS5_EEES6_IS3_ESaIS8_IKS3_SC_EEERKNS_10vector_mapIjNS_14VirtualProgram11ShaderEntryEEERKSt3setINSt7__cxx1112basic_stringIcSt11char_traitsIcESaIcEEES6_ISW_ESaISW_EERSt6vectorIN3osg7ref_ptrINS13_6ShaderEEESaIS16_EE
libosgEarth.so.0:_ZNK8osgEarth13ShaderFactory18createRangeUniformEv
libosgEarth.so.0:_ZNK8osgEarth13ShaderFactory19getRangeUniformNameB5cxx11Ev
libosgEarth.so.0:_ZNK8osgEarth13ShaderFactory36createColorFilterChainFragmentShaderERKNSt7__cxx1112basic_stringIcSt11char_traitsIcESaIcEEERKSt6vectorIN3osg7ref_ptrINS_11ColorFilterEEESaISD_EE
libosgEarth.so.0:_ZNK8osgEarth13ShaderOptions9getConfigEv
libosgEarth.so.0:_ZNK8osgEarth13ShaderPackage4loadEPNS_14VirtualProgramERKNSt7__cxx1112basic_stringIcSt11char_traitsIcESaIcEEEPKN5osgDB7OptionsE
libosgEarth.so.0:_ZNK8osgEarth13ShaderPackage6unloadEPNS_14VirtualProgramERKNSt7__cxx1112basic_stringIcSt11char_traitsIcESaIcEEEPKN5osgDB7OptionsE
libosgEarth.so.0:_ZNK8osgEarth13ShaderPackage7loadAllEPNS_14VirtualProgramEPKN5osgDB7OptionsE
libosgEarth.so.0:_ZNK8osgEarth13ShaderPackage9unloadAllEPNS_14VirtualProgramEPKN5osgDB7OptionsE
libosgEarth.so.0:_ZNK8osgEarth13StateSetCache16releaseGLObjectsEPN3osg5StateE
libosgEarth.so.0:_ZNK8osgEarth13StateSetCache8eligibleEPN3osg14StateAttributeE
libosgEarth.so.0:_ZNK8osgEarth13StateSetCache8eligibleEPN3osg8StateSetE
libosgEarth.so.0:_ZNK8osgEarth13TiXmlDocument5CloneEv
libosgEarth.so.0:_ZNK8osgEarth13TiXmlDocument5PrintEP8_IO_FILEi
libosgEarth.so.0:_ZNK8osgEarth13TiXmlDocument6AcceptEPNS_12TiXmlVisitorE
libosgEarth.so.0:_ZNK8osgEarth13TiXmlDocument6CopyToEPS0_
libosgEarth.so.0:_ZNK8osgEarth13TiXmlDocument8SaveFileEP8_IO_FILE
libosgEarth.so.0:_ZNK8osgEarth13TiXmlDocument8SaveFileEPKc
libosgEarth.so.0:_ZNK8osgEarth13TiXmlDocument8SaveFileEv
libosgEarth.so.0:_ZNK8osgEarth13TileBlacklist5writeERKNSt7__cxx1112basic_stringIcSt11char_traitsIcESaIcEEE
libosgEarth.so.0:_ZNK8osgEarth13TileBlacklist5writeERSo
libosgEarth.so.0:_ZNK8osgEarth13TileBlacklist8containsERKNS_7TileKeyE
libosgEarth.so.0:_ZNK8osgEarth13VerticalDatum14isEquivalentToEPKS0_
libosgEarth.so.0:_ZNK8osgEarth13VerticalDatum7hae2mslEddd
libosgEarth.so.0:_ZNK8osgEarth13VerticalDatum7msl2haeEddd
libosgEarth.so.0:_ZNK8osgEarth14CacheEstimator11getNumTilesEv
libosgEarth.so.0:_ZNK8osgEarth14CacheEstimator11getSizeInMBEv
libosgEarth.so.0:_ZNK8osgEarth14CacheEstimator21getTotalTimeInSecondsEv
libosgEarth.so.0:_ZNK8osgEarth14ElevationLayer8isOffsetEv
libosgEarth.so.0:_ZNK8osgEarth14GeoHeightField12getElevationEPKNS_16SpatialReferenceEddNS_22ElevationInterpolationES3_Rf
libosgEarth.so.0:_ZNK8osgEarth14GeoHeightField12getElevationEdd
libosgEarth.so.0:_ZNK8osgEarth14GeoHeightField12getNormalMapEv
libosgEarth.so.0:_ZNK8osgEarth14GeoHeightField12getXIntervalEv
libosgEarth.so.0:_ZNK8osgEarth14GeoHeightField12getYIntervalEv
libosgEarth.so.0:_ZNK8osgEarth14GeoHeightField14getHeightFieldEv
libosgEarth.so.0:_ZNK8osgEarth14GeoHeightField15createSubSampleERKNS_9GeoExtentEjjNS_22ElevationInterpolationE
libosgEarth.so.0:_ZNK8osgEarth14GeoHeightField21getElevationAndNormalEPKNS_16SpatialReferenceEddNS_22ElevationInterpolationES3_RfRN3osg5Vec3fE
libosgEarth.so.0:_ZNK8osgEarth14GeoHeightField5validEv
libosgEarth.so.0:_ZNK8osgEarth14GeoHeightField9getExtentEv
libosgEarth.so.0:_ZNK8osgEarth14GeoHeightField9getNormalEdd
libosgEarth.so.0:_ZNK8osgEarth14LandCoverClass9getConfigEv
libosgEarth.so.0:_ZNK8osgEarth14LandCoverLayer12getClassByUVERKNS_8GeoImageEdd
libosgEarth.so.0:_ZNK8osgEarth14MapNodeOptions17getTerrainOptionsEv
libosgEarth.so.0:_ZNK8osgEarth14MapNodeOptions9getConfigEv
libosgEarth.so.0:_ZNK8osgEarth14ProfileOptions7definedEv
libosgEarth.so.0:_ZNK8osgEarth14ProfileOptions9getConfigEv
libosgEarth.so.0:_ZNK8osgEarth14TerrainOptions9getConfigEv
libosgEarth.so.0:_ZNK8osgEarth14TiXmlAttribute11DoubleValueEv
libosgEarth.so.0:_ZNK8osgEarth14TiXmlAttribute13QueryIntValueEPi
libosgEarth.so.0:_ZNK8osgEarth14TiXmlAttribute16QueryDoubleValueEPd
libosgEarth.so.0:_ZNK8osgEarth14TiXmlAttribute4NextEv
libosgEarth.so.0:_ZNK8osgEarth14TiXmlAttribute5PrintEP8_IO_FILEiPNSt7__cxx1112basic_stringIcSt11char_traitsIcESaIcEEE
libosgEarth.so.0:_ZNK8osgEarth14TiXmlAttribute8IntValueEv
libosgEarth.so.0:_ZNK8osgEarth14TiXmlAttribute8PreviousEv
libosgEarth.so.0:_ZNK8osgEarth14TileRasterizer7preDrawERN3osg10RenderInfoE
libosgEarth.so.0:_ZNK8osgEarth14TileRasterizer8postDrawERN3osg10RenderInfoE
libosgEarth.so.0:_ZNK8osgEarth14VirtualProgram11ShaderEntry6acceptERKN3osg5StateE
libosgEarth.so.0:_ZNK8osgEarth14VirtualProgram11ShaderEntryltERKS1_
libosgEarth.so.0:_ZNK8osgEarth14VirtualProgram12getFunctionsERSt3mapINS_10ShaderComp16FunctionLocationESt8multimapIfNS2_8FunctionESt4lessIfESaISt4pairIKfS5_EEES6_IS3_ESaIS8_IKS3_SC_EEE
libosgEarth.so.0:_ZNK8osgEarth14VirtualProgram12getShaderMapERNS_10vector_mapIjNS0_11ShaderEntryEEE
libosgEarth.so.0:_ZNK8osgEarth14VirtualProgram13getPolyShaderERKNSt7__cxx1112basic_stringIcSt11char_traitsIcESaIcEEE
libosgEarth.so.0:_ZNK8osgEarth14VirtualProgram16compileGLObjectsERN3osg5StateE
libosgEarth.so.0:_ZNK8osgEarth14VirtualProgram16hasGLSLExtensionERKNSt7__cxx1112basic_stringIcSt11char_traitsIcESaIcEEE
libosgEarth.so.0:_ZNK8osgEarth14VirtualProgram16releaseGLObjectsEPN3osg5StateE
libosgEarth.so.0:_ZNK8osgEarth14VirtualProgram19accumulateFunctionsERKN3osg5StateERSt3mapINS_10ShaderComp16FunctionLocationESt8multimapIfNS6_8FunctionESt4lessIfESaISt4pairIKfS9_EEESA_IS7_ESaISC_IKS7_SG_EEE
libosgEarth.so.0:_ZNK8osgEarth14VirtualProgram27addShadersToAccumulationMapERNS_10vector_mapIjNS0_11ShaderEntryEEERKN3osg5StateE
libosgEarth.so.0:_ZNK8osgEarth14VirtualProgram30getAcceptCallbacksVaryPerFrameEv
libosgEarth.so.0:_ZNK8osgEarth14VirtualProgram5applyERN3osg5StateE
libosgEarth.so.0:_ZNK8osgEarth14VirtualProgram7compareERKN3osg14StateAttributeE
libosgEarth.so.0:_ZNK8osgEarth15CubeFaceLocator19convertLocalToModelERKN3osg5Vec3dERS2_
libosgEarth.so.0:_ZNK8osgEarth15CubeFaceLocator19convertModelToLocalERKN3osg5Vec3dERS2_
libosgEarth.so.0:_ZNK8osgEarth15MercatorLocator19convertModelToLocalERKN3osg5Vec3dERS2_
libosgEarth.so.0:_ZNK8osgEarth15MercatorLocator27getGeographicFromGeocentricEv
libosgEarth.so.0:_ZNK8osgEarth15ShaderGenerator6acceptEPKN3osg14StateAttributeE
libosgEarth.so.0:_ZNK8osgEarth15StringTokenizer8tokenizeERKNSt7__cxx1112basic_stringIcSt11char_traitsIcESaIcEEERSt6vectorIS6_SaIS6_EE
libosgEarth.so.0:_ZNK8osgEarth16CacheTileHandler16getProcessStringB5cxx11Ev
libosgEarth.so.0:_ZNK8osgEarth16CacheTileHandler7hasDataERKNS_7TileKeyE
libosgEarth.so.0:_ZNK8osgEarth16DepthOffsetGroup12computeBoundEv
libosgEarth.so.0:_ZNK8osgEarth16DepthOffsetGroup21getDepthOffsetOptionsEv
libosgEarth.so.0:_ZNK8osgEarth16DrapingTechnique16getAttachStencilEv
libosgEarth.so.0:_ZNK8osgEarth16DrapingTechnique18getResolutionRatioEv
libosgEarth.so.0:_ZNK8osgEarth16DrapingTechnique7hasDataERNS_16OverlayDecorator13TechRTTParamsE
libosgEarth.so.0:_ZNK8osgEarth16DrapingTechnique8getBoundERNS_16OverlayDecorator13TechRTTParamsE
libosgEarth.so.0:_ZNK8osgEarth16HorizonClipPlane14ReleaseFunctorclERKNS0_13PerCameraDataE
libosgEarth.so.0:_ZNK8osgEarth16HorizonClipPlane16releaseGLObjectsEPN3osg5StateE
libosgEarth.so.0:_ZNK8osgEarth16MaskLayerOptions9getConfigEv
libosgEarth.so.0:_ZNK8osgEarth16MaskSourceDriver20getMaskSourceOptionsEPKN5osgDB7OptionsE
libosgEarth.so.0:_ZNK8osgEarth16OverlayDecorator16releaseGLObjectsEPN3osg5StateE
libosgEarth.so.0:_ZNK8osgEarth16OverlayDecorator21getMaxHorizonDistanceEv
libosgEarth.so.0:_ZNK8osgEarth16ProxyCullVisitor11getEyePointEv
libosgEarth.so.0:_ZNK8osgEarth16ProxyCullVisitor12getViewPointEv
libosgEarth.so.0:_ZNK8osgEarth16ProxyCullVisitor21getDistanceToEyePointERKN3osg5Vec3fEb
libosgEarth.so.0:_ZNK8osgEarth16ProxyCullVisitor22getDistanceToViewPointERKN3osg5Vec3fEb
libosgEarth.so.0:_ZNK8osgEarth16ProxyCullVisitor23getDistanceFromEyePointERKN3osg5Vec3fEb
libosgEarth.so.0:_ZNK8osgEarth16ResourceReleaser16releaseGLObjectsEPN3osg5StateE
libosgEarth.so.0:_ZNK8osgEarth16ResourceReleaser18drawImplementationERN3osg10RenderInfoE
libosgEarth.so.0:_ZNK8osgEarth16SpatialReference10isGeodeticEv
libosgEarth.so.0:_ZNK8osgEarth16SpatialReference10isMercatorEv
libosgEarth.so.0:_ZNK8osgEarth16SpatialReference10transformZERSt6vectorIN3osg5Vec3dESaIS3_EEPKS0_b
libosgEarth.so.0:_ZNK8osgEarth16SpatialReference11getInitTypeB5cxx11Ev
libosgEarth.so.0:_ZNK8osgEarth16SpatialReference11guessBoundsERNS_6BoundsE
libosgEarth.so.0:_ZNK8osgEarth16SpatialReference11isProjectedEv
libosgEarth.so.0:_ZNK8osgEarth16SpatialReference11transform2DEddPKS0_RdS3_
libosgEarth.so.0:_ZNK8osgEarth16SpatialReference12getDatumNameB5cxx11Ev
libosgEarth.so.0:_ZNK8osgEarth16SpatialReference12getEllipsoidEv
libosgEarth.so.0:_ZNK8osgEarth16SpatialReference12isContiguousEv
libosgEarth.so.0:_ZNK8osgEarth16SpatialReference12isGeocentricEv
libosgEarth.so.0:_ZNK8osgEarth16SpatialReference12isGeographicEv
libosgEarth.so.0:_ZNK8osgEarth16SpatialReference12isNorthPolarEv
libosgEarth.so.0:_ZNK8osgEarth16SpatialReference12isSouthPolarEv
libosgEarth.so.0:_ZNK8osgEarth16SpatialReference13createLocatorEdddd
libosgEarth.so.0:_ZNK8osgEarth16SpatialReference13isUserDefinedEv
libosgEarth.so.0:_ZNK8osgEarth16SpatialReference14getGeodeticSRSEv
libosgEarth.so.0:_ZNK8osgEarth16SpatialReference14isEquivalentToEPKS0_
libosgEarth.so.0:_ZNK8osgEarth16SpatialReference14transformUnitsEdPKS0_d
libosgEarth.so.0:_ZNK8osgEarth16SpatialReference15_isEquivalentToEPKS0_b
libosgEarth.so.0:_ZNK8osgEarth16SpatialReference16getGeocentricSRSEv
libosgEarth.so.0:_ZNK8osgEarth16SpatialReference16getGeographicSRSEv
libosgEarth.so.0:_ZNK8osgEarth16SpatialReference16getVerticalDatumEv
libosgEarth.so.0:_ZNK8osgEarth16SpatialReference16transformToWorldERKN3osg5Vec3dERS2_
libosgEarth.so.0:_ZNK8osgEarth16SpatialReference17getVertInitStringB5cxx11Ev
libosgEarth.so.0:_ZNK8osgEarth16SpatialReference18createLocalToWorldERKN3osg5Vec3dERNS1_7MatrixdE
libosgEarth.so.0:_ZNK8osgEarth16SpatialReference18createWorldToLocalERKN3osg5Vec3dERNS1_7MatrixdE
libosgEarth.so.0:_ZNK8osgEarth16SpatialReference18getHorizInitStringB5cxx11Ev
libosgEarth.so.0:_ZNK8osgEarth16SpatialReference18isVertEquivalentToEPKS0_
libosgEarth.so.0:_ZNK8osgEarth16SpatialReference18transformFromWorldERKN3osg5Vec3dERS2_Pd
libosgEarth.so.0:_ZNK8osgEarth16SpatialReference19createUTMFromLonLatERKNS_5AngleES3_
libosgEarth.so.0:_ZNK8osgEarth16SpatialReference19isHorizEquivalentToEPKS0_
libosgEarth.so.0:_ZNK8osgEarth16SpatialReference19isSphericalMercatorEv
libosgEarth.so.0:_ZNK8osgEarth16SpatialReference20transformExtentToMBREPKS0_RdS3_S3_S3_
libosgEarth.so.0:_ZNK8osgEarth16SpatialReference21createTangentPlaneSRSERKN3osg5Vec3dE
libosgEarth.so.0:_ZNK8osgEarth16SpatialReference21transformExtentPointsEPKS0_ddddPdS3_jj
libosgEarth.so.0:_ZNK8osgEarth16SpatialReference22transformXYPointArraysEPdS1_jPKS0_
libosgEarth.so.0:_ZNK8osgEarth16SpatialReference24createEquirectangularSRSEv
libosgEarth.so.0:_ZNK8osgEarth16SpatialReference26createCoordinateSystemNodeEv
libosgEarth.so.0:_ZNK8osgEarth16SpatialReference28createTransMercFromLongitudeERKNS_5AngleE
libosgEarth.so.0:_ZNK8osgEarth16SpatialReference28populateCoordinateSystemNodeEPN3osg20CoordinateSystemNodeE
libosgEarth.so.0:_ZNK8osgEarth16SpatialReference6getKeyEv
libosgEarth.so.0:_ZNK8osgEarth16SpatialReference6getWKTB5cxx11Ev
libosgEarth.so.0:_ZNK8osgEarth16SpatialReference6isCubeEv
libosgEarth.so.0:_ZNK8osgEarth16SpatialReference7getECEFEv
libosgEarth.so.0:_ZNK8osgEarth16SpatialReference7getNameB5cxx11Ev
libosgEarth.so.0:_ZNK8osgEarth16SpatialReference8getUnitsEv
libosgEarth.so.0:_ZNK8osgEarth16SpatialReference9transformERKN3osg5Vec3dEPKS0_RS2_
libosgEarth.so.0:_ZNK8osgEarth16SpatialReference9transformERSt6vectorIN3osg5Vec3dESaIS3_EEPKS0_
libosgEarth.so.0:_ZNK8osgEarth16TaskRequestQueue14getNumRequestsEv
libosgEarth.so.0:_ZNK8osgEarth16TaskRequestQueue6isFullEv
libosgEarth.so.0:_ZNK8osgEarth16TaskRequestQueue7isEmptyEv
libosgEarth.so.0:_ZNK8osgEarth16TerrainTileModel16compileGLObjectsERN3osg5StateE
libosgEarth.so.0:_ZNK8osgEarth16TerrainTileModel16getNormalTextureEv
libosgEarth.so.0:_ZNK8osgEarth16TerrainTileModel19getElevationTextureEv
libosgEarth.so.0:_ZNK8osgEarth16TerrainTileModel22getNormalTextureMatrixEv
libosgEarth.so.0:_ZNK8osgEarth16TerrainTileModel25getElevationTextureMatrixEv
libosgEarth.so.0:_ZNK8osgEarth16TiXmlDeclaration5CloneEv
libosgEarth.so.0:_ZNK8osgEarth16TiXmlDeclaration5PrintEP8_IO_FILEiPNSt7__cxx1112basic_stringIcSt11char_traitsIcESaIcEEE
libosgEarth.so.0:_ZNK8osgEarth16TiXmlDeclaration6AcceptEPNS_12TiXmlVisitorE
libosgEarth.so.0:_ZNK8osgEarth16TiXmlDeclaration6CopyToEPS0_
libosgEarth.so.0:_ZNK8osgEarth16TileSourceDriver16getInterfaceNameB5cxx11EPKN5osgDB7OptionsE
libosgEarth.so.0:_ZNK8osgEarth16TileSourceDriver20getTileSourceOptionsEPKN5osgDB7OptionsE
libosgEarth.so.0:_ZNK8osgEarth17ClampingTechnique7hasDataERNS_16OverlayDecorator13TechRTTParamsE
libosgEarth.so.0:_ZNK8osgEarth17ClampingTechnique8getBoundERNS_16OverlayDecorator13TechRTTParamsE
libosgEarth.so.0:_ZNK8osgEarth17ElevationEnvelope6getSRSEv
libosgEarth.so.0:_ZNK8osgEarth17ImageLayerOptions9getConfigEv
libosgEarth.so.0:_ZNK8osgEarth17MaskSourceOptions9getConfigEv
libosgEarth.so.0:_ZNK8osgEarth17ModelLayerOptions9getConfigEv
libosgEarth.so.0:_ZNK8osgEarth17ModelSourceDriver21getModelSourceOptionsEPKN5osgDB7OptionsE
libosgEarth.so.0:_ZNK8osgEarth17TerrainEngineNode12computeBoundEv
libosgEarth.so.0:_ZNK8osgEarth17TerrainEngineNode12getResourcesEv
libosgEarth.so.0:_ZNK8osgEarth17TerrainEngineNode23getComputeRangeCallbackEv
libosgEarth.so.0:_ZNK8osgEarth17TiXmlAttributeSet4FindEPKc
libosgEarth.so.0:_ZNK8osgEarth17TiXmlAttributeSet4FindERKNSt7__cxx1112basic_stringIcSt11char_traitsIcESaIcEEE
libosgEarth.so.0:_ZNK8osgEarth17TileSourceOptions9getConfigEv
libosgEarth.so.0:_ZNK8osgEarth17VideoLayerOptions9getConfigEv
libosgEarth.so.0:_ZNK8osgEarth18DepthOffsetOptions9getConfigEv
libosgEarth.so.0:_ZNK8osgEarth18IntersectionPicker12getObjectIDsERKSt8multisetINS_20PrimitiveIntersector12IntersectionESt4lessIS3_ESaIS3_EERSt3setIjS4_IjESaIjEE
libosgEarth.so.0:_ZNK8osgEarth18IntersectionPicker4pickEffRSt8multisetINS_20PrimitiveIntersector12IntersectionESt4lessIS3_ESaIS3_EE
libosgEarth.so.0:_ZNK8osgEarth18ModelSourceOptions9getConfigEv
libosgEarth.so.0:_ZNK8osgEarth18TaskServiceManager3getEi
libosgEarth.so.0:_ZNK8osgEarth18UnifiedCubeProfile16getEquivalentLODEPKNS_7ProfileEj
libosgEarth.so.0:_ZNK8osgEarth18UnifiedCubeProfile20getIntersectingTilesERKNS_9GeoExtentEjRSt6vectorINS_7TileKeyESaIS5_EE
libosgEarth.so.0:_ZNK8osgEarth18UnifiedCubeProfile24transformGcsExtentOnFaceERKNS_9GeoExtentEi
libosgEarth.so.0:_ZNK8osgEarth19ColorFilterRegistry9createOneERKNS_6ConfigE
libosgEarth.so.0:_ZNK8osgEarth19LandCoverDictionary14getClassByNameERKNSt7__cxx1112basic_stringIcSt11char_traitsIcESaIcEEE
libosgEarth.so.0:_ZNK8osgEarth19LandCoverDictionary15getClassByValueEi
libosgEarth.so.0:_ZNK8osgEarth19TerrainLayerOptions9getConfigEv
libosgEarth.so.0:_ZNK8osgEarth19VisibleLayerOptions9getConfigEv
libosgEarth.so.0:_ZNK8osgEarth20CubeSpatialReference12preTransformERSt6vectorIN3osg5Vec3dESaIS3_EE
libosgEarth.so.0:_ZNK8osgEarth20CubeSpatialReference13createLocatorEdddd
libosgEarth.so.0:_ZNK8osgEarth20CubeSpatialReference13postTransformERSt6vectorIN3osg5Vec3dESaIS3_EE
libosgEarth.so.0:_ZNK8osgEarth20CubeSpatialReference20transformExtentToMBREPKNS_16SpatialReferenceERdS4_S4_S4_
libosgEarth.so.0:_ZNK8osgEarth20CubeSpatialReference26transformInFaceExtentToMBREPKNS_16SpatialReferenceEiRdS4_S4_S4_
libosgEarth.so.0:_ZNK8osgEarth20ElevationLayerVector31populateHeightFieldAndNormalMapEPN3osg11HeightFieldEPNS_9NormalMapERKNS_7TileKeyEPKNS_7ProfileENS_22ElevationInterpolationEPNS_16ProgressCallbackE
libosgEarth.so.0:_ZNK8osgEarth21DiscardAlphaFragments7installEPN3osg8StateSetEf
libosgEarth.so.0:_ZNK8osgEarth21DiscardAlphaFragments9uninstallEPN3osg8StateSetE
libosgEarth.so.0:_ZNK8osgEarth21ElevationLayerOptions9getConfigEv
libosgEarth.so.0:_ZNK8osgEarth21LandCoverLayerOptions9getConfigEv
libosgEarth.so.0:_ZNK8osgEarth21LandCoverValueMapping9getConfigEv
libosgEarth.so.0:_ZNK8osgEarth22TransientUserDataStore4sizeEv
libosgEarth.so.0:_ZNK8osgEarth22TransientUserDataStore5fetchEPN3osg10ReferencedERKNSt7__cxx1112basic_stringIcSt11char_traitsIcESaIcEEE
libosgEarth.so.0:_ZNK8osgEarth22TransientUserDataStore6existsEPN3osg10ReferencedERKNSt7__cxx1112basic_stringIcSt11char_traitsIcESaIcEEE
libosgEarth.so.0:_ZNK8osgEarth23ImageLayerTileProcessor7processERN3osg7ref_ptrINS1_5ImageEEE
libosgEarth.so.0:_ZNK8osgEarth23MultiprocessTileVisitor12getBatchSizeEv
libosgEarth.so.0:_ZNK8osgEarth23MultiprocessTileVisitor12getEarthFileB5cxx11Ev
libosgEarth.so.0:_ZNK8osgEarth23MultiprocessTileVisitor15getNumProcessesEv
libosgEarth.so.0:_ZNK8osgEarth23TerrainTileModelFactory18createImageTextureEPN3osg5ImageEPKNS_10ImageLayerE
libosgEarth.so.0:_ZNK8osgEarth23TerrainTileModelFactory19createNormalTextureEPN3osg5ImageEb
libosgEarth.so.0:_ZNK8osgEarth23TerrainTileModelFactory21createCoverageTextureEPN3osg5ImageEPKNS_10ImageLayerE
libosgEarth.so.0:_ZNK8osgEarth23TerrainTileModelFactory22createElevationTextureEPN3osg5ImageE
libosgEarth.so.0:_ZNK8osgEarth24MultithreadedTileVisitor13getNumThreadsEv
libosgEarth.so.0:_ZNK8osgEarth24OcclusionCullingCallback14getMaxAltitudeEv
libosgEarth.so.0:_ZNK8osgEarth24ScreenSpaceLayoutOptions9getConfigEv
libosgEarth.so.0:_ZNK8osgEarth26CompositeTileSourceOptions9getConfigEv
libosgEarth.so.0:_ZNK8osgEarth26LandCoverDictionaryOptions9getConfigEv
libosgEarth.so.0:_ZNK8osgEarth27ImageToHeightFieldConverter13convertToR16FEPKN3osg11HeightFieldE
libosgEarth.so.0:_ZNK8osgEarth27ImageToHeightFieldConverter13convertToR32FEPKN3osg11HeightFieldE
libosgEarth.so.0:_ZNK8osgEarth27ImageToHeightFieldConverter9convert16EPKN3osg11HeightFieldE
libosgEarth.so.0:_ZNK8osgEarth27ImageToHeightFieldConverter9convert16EPKN3osg5ImageE
libosgEarth.so.0:_ZNK8osgEarth27ImageToHeightFieldConverter9convert32EPKN3osg11HeightFieldE
libosgEarth.so.0:_ZNK8osgEarth27ImageToHeightFieldConverter9convert32EPKN3osg5ImageE
libosgEarth.so.0:_ZNK8osgEarth27SuperClusterCullingCallback4cullEPN3osg11NodeVisitorEPNS1_8DrawableEPNS1_5StateE
libosgEarth.so.0:_ZNK8osgEarth28TangentPlaneSpatialReference12preTransformERSt6vectorIN3osg5Vec3dESaIS3_EE
libosgEarth.so.0:_ZNK8osgEarth28TangentPlaneSpatialReference13postTransformERSt6vectorIN3osg5Vec3dESaIS3_EE
libosgEarth.so.0:_ZNK8osgEarth28TangentPlaneSpatialReference15_isEquivalentToEPKNS_16SpatialReferenceE
libosgEarth.so.0:_ZNK8osgEarth29LandCoverCoverageLayerOptions9getConfigEv
libosgEarth.so.0:_ZNK8osgEarth30LightSourceGL3UniformGenerator16releaseGLObjectsEPN3osg5StateE
libosgEarth.so.0:_ZNK8osgEarth31PagedLODWithSceneGraphCallbacks22getSceneGraphCallbacksEv
libosgEarth.so.0:_ZNK8osgEarth3Map10getLayerAtEj
libosgEarth.so.0:_ZNK8osgEarth3Map10getProfileEv
libosgEarth.so.0:_ZNK8osgEarth3Map11getWorldSRSEv
libosgEarth.so.0:_ZNK8osgEarth3Map12getNumLayersEv
libosgEarth.so.0:_ZNK8osgEarth3Map12isGeocentricEv
libosgEarth.so.0:_ZNK8osgEarth3Map13getLayerByUIDEi
libosgEarth.so.0:_ZNK8osgEarth3Map14addMapCallbackEPNS_11MapCallbackE
libosgEarth.so.0:_ZNK8osgEarth3Map14getLayerByNameERKNSt7__cxx1112basic_stringIcSt11char_traitsIcESaIcEEE
libosgEarth.so.0:_ZNK8osgEarth3Map15getAttributionsERSt3setINSt7__cxx1112basic_stringIcSt11char_traitsIcESaIcEEESt4lessIS7_ESaIS7_EE
libosgEarth.so.0:_ZNK8osgEarth3Map15getIndexOfLayerEPKNS_5LayerE
libosgEarth.so.0:_ZNK8osgEarth3Map16getElevationPoolEv
libosgEarth.so.0:_ZNK8osgEarth3Map16getGlobalOptionsEv
libosgEarth.so.0:_ZNK8osgEarth3Map17removeMapCallbackEPNS_11MapCallbackE
libosgEarth.so.0:_ZNK8osgEarth3Map20getDataModelRevisionEv
libosgEarth.so.0:_ZNK8osgEarth3Map6isFastERKNS_7TileKeyERKSt6vectorIN3osg7ref_ptrINS_5LayerEEESaIS8_EE
libosgEarth.so.0:_ZNK8osgEarth3Map8getCacheEv
libosgEarth.so.0:_ZNK8osgEarth3Map9getLayersERSt6vectorIN3osg7ref_ptrINS_5LayerEEESaIS5_EE
libosgEarth.so.0:_ZNK8osgEarth3URI10readObjectEPKN5osgDB7OptionsEPNS_16ProgressCallbackE
libosgEarth.so.0:_ZNK8osgEarth3URI10readStringEPKN5osgDB7OptionsEPNS_16ProgressCallbackE
libosgEarth.so.0:_ZNK8osgEarth3URI6appendERKNSt7__cxx1112basic_stringIcSt11char_traitsIcESaIcEEE
libosgEarth.so.0:_ZNK8osgEarth3URI8isRemoteEv
libosgEarth.so.0:_ZNK8osgEarth3URI8readNodeEPKN5osgDB7OptionsEPNS_16ProgressCallbackE
libosgEarth.so.0:_ZNK8osgEarth3URI9getConfigEv
libosgEarth.so.0:_ZNK8osgEarth3URI9readImageEPKN5osgDB7OptionsEPNS_16ProgressCallbackE
libosgEarth.so.0:_ZNK8osgEarth4Json17ValueIteratorBase10memberNameEv
libosgEarth.so.0:_ZNK8osgEarth4Json17ValueIteratorBase15computeDistanceERKS1_
libosgEarth.so.0:_ZNK8osgEarth4Json17ValueIteratorBase3keyEv
libosgEarth.so.0:_ZNK8osgEarth4Json17ValueIteratorBase5derefEv
libosgEarth.so.0:_ZNK8osgEarth4Json17ValueIteratorBase5indexEv
libosgEarth.so.0:_ZNK8osgEarth4Json17ValueIteratorBase7isEqualERKS1_
libosgEarth.so.0:_ZNK8osgEarth4Json4Path4makeERNS0_5ValueE
libosgEarth.so.0:_ZNK8osgEarth4Json4Path7resolveERKNS0_5ValueE
libosgEarth.so.0:_ZNK8osgEarth4Json4Path7resolveERKNS0_5ValueES4_
libosgEarth.so.0:_ZNK8osgEarth4Json5Value10getCommentB5cxx11ENS0_16CommentPlacementE
libosgEarth.so.0:_ZNK8osgEarth4Json5Value10hasCommentENS0_16CommentPlacementE
libosgEarth.so.0:_ZNK8osgEarth4Json5Value10isIntegralEv
libosgEarth.so.0:_ZNK8osgEarth4Json5Value12isValidIndexEj
libosgEarth.so.0:_ZNK8osgEarth4Json5Value14getMemberNamesB5cxx11Ev
libosgEarth.so.0:_ZNK8osgEarth4Json5Value14toStyledStringB5cxx11Ev
libosgEarth.so.0:_ZNK8osgEarth4Json5Value15isConvertibleToENS0_9ValueTypeE
libosgEarth.so.0:_ZNK8osgEarth4Json5Value3endEv
libosgEarth.so.0:_ZNK8osgEarth4Json5Value3getEPKcRKS1_
libosgEarth.so.0:_ZNK8osgEarth4Json5Value3getERKNSt7__cxx1112basic_stringIcSt11char_traitsIcESaIcEEERKS1_
libosgEarth.so.0:_ZNK8osgEarth4Json5Value3getEjRKS1_
libosgEarth.so.0:_ZNK8osgEarth4Json5Value4sizeEv
libosgEarth.so.0:_ZNK8osgEarth4Json5Value4typeEv
libosgEarth.so.0:_ZNK8osgEarth4Json5Value5asIntEv
libosgEarth.so.0:_ZNK8osgEarth4Json5Value5beginEv
libosgEarth.so.0:_ZNK8osgEarth4Json5Value5emptyEv
libosgEarth.so.0:_ZNK8osgEarth4Json5Value5isIntEv
libosgEarth.so.0:_ZNK8osgEarth4Json5Value6asBoolEv
libosgEarth.so.0:_ZNK8osgEarth4Json5Value6asUIntEv
libosgEarth.so.0:_ZNK8osgEarth4Json5Value6isBoolEv
libosgEarth.so.0:_ZNK8osgEarth4Json5Value6isNullEv
libosgEarth.so.0:_ZNK8osgEarth4Json5Value6isUIntEv
libosgEarth.so.0:_ZNK8osgEarth4Json5Value7isArrayEv
libosgEarth.so.0:_ZNK8osgEarth4Json5Value8CZString14isStaticStringEv
libosgEarth.so.0:_ZNK8osgEarth4Json5Value8CZString5c_strEv
libosgEarth.so.0:_ZNK8osgEarth4Json5Value8CZString5indexEv
libosgEarth.so.0:_ZNK8osgEarth4Json5Value8CZStringeqERKS2_
libosgEarth.so.0:_ZNK8osgEarth4Json5Value8CZStringltERKS2_
libosgEarth.so.0:_ZNK8osgEarth4Json5Value8asDoubleEv
libosgEarth.so.0:_ZNK8osgEarth4Json5Value8asStringB5cxx11Ev
libosgEarth.so.0:_ZNK8osgEarth4Json5Value8isDoubleEv
libosgEarth.so.0:_ZNK8osgEarth4Json5Value8isMemberEPKc
libosgEarth.so.0:_ZNK8osgEarth4Json5Value8isMemberERKNSt7__cxx1112basic_stringIcSt11char_traitsIcESaIcEEE
libosgEarth.so.0:_ZNK8osgEarth4Json5Value8isObjectEv
libosgEarth.so.0:_ZNK8osgEarth4Json5Value8isStringEv
libosgEarth.so.0:_ZNK8osgEarth4Json5Value9asCStringEv
libosgEarth.so.0:_ZNK8osgEarth4Json5Value9isNumericEv
libosgEarth.so.0:_ZNK8osgEarth4Json5ValueeqERKS1_
libosgEarth.so.0:_ZNK8osgEarth4Json5ValuegeERKS1_
libosgEarth.so.0:_ZNK8osgEarth4Json5ValuegtERKS1_
libosgEarth.so.0:_ZNK8osgEarth4Json5ValueixEPKc
libosgEarth.so.0:_ZNK8osgEarth4Json5ValueixERKNSt7__cxx1112basic_stringIcSt11char_traitsIcESaIcEEE
libosgEarth.so.0:_ZNK8osgEarth4Json5ValueixEj
libosgEarth.so.0:_ZNK8osgEarth4Json5ValueleERKS1_
libosgEarth.so.0:_ZNK8osgEarth4Json5ValueltERKS1_
libosgEarth.so.0:_ZNK8osgEarth4Json5ValueneERKS1_
libosgEarth.so.0:_ZNK8osgEarth4Json5ValuentEv
libosgEarth.so.0:_ZNK8osgEarth4Json6Reader24getFormatedErrorMessagesB5cxx11Ev
libosgEarth.so.0:_ZNK8osgEarth4Json6Reader24getLocationLineAndColumnB5cxx11EPKc
libosgEarth.so.0:_ZNK8osgEarth4Json6Reader24getLocationLineAndColumnEPKcRiS4_
libosgEarth.so.0:_ZNK8osgEarth5Geoid14isEquivalentToERKS0_
libosgEarth.so.0:_ZNK8osgEarth5Geoid9getHeightEddRKNS_22ElevationInterpolationE
libosgEarth.so.0:_ZNK8osgEarth5Layer10getCacheIDB5cxx11Ev
libosgEarth.so.0:_ZNK8osgEarth5Layer10getEnabledEv
libosgEarth.so.0:_ZNK8osgEarth5Layer11getStateSetEv
libosgEarth.so.0:_ZNK8osgEarth5Layer11getTypeNameEv
libosgEarth.so.0:_ZNK8osgEarth5Layer14getAttributionB5cxx11Ev
libosgEarth.so.0:_ZNK8osgEarth5Layer15getCullCallbackEv
libosgEarth.so.0:_ZNK8osgEarth5Layer16releaseGLObjectsEPN3osg5StateE
libosgEarth.so.0:_ZNK8osgEarth5Layer17TraversalCallback8traverseEPN3osg4NodeEPNS2_11NodeVisitorE
libosgEarth.so.0:_ZNK8osgEarth5Layer21modifyTileBoundingBoxERKNS_7TileKeyERN3osg15BoundingBoxImplINS4_5Vec3fEEE
libosgEarth.so.0:_ZNK8osgEarth5Layer22getSceneGraphCallbacksEv
libosgEarth.so.0:_ZNK8osgEarth5Layer5applyEPN3osg4NodeEPNS1_11NodeVisitorE
libosgEarth.so.0:_ZNK8osgEarth5Layer9getConfigEv
libosgEarth.so.0:_ZNK8osgEarth5Layer9getExtentEv
libosgEarth.so.0:_ZNK8osgEarth6Bounds16intersectionWithERKS0_
libosgEarth.so.0:_ZNK8osgEarth6Bounds5depthEv
libosgEarth.so.0:_ZNK8osgEarth6Bounds5widthEv
libosgEarth.so.0:_ZNK8osgEarth6Bounds6area2dEv
libosgEarth.so.0:_ZNK8osgEarth6Bounds6heightEv
libosgEarth.so.0:_ZNK8osgEarth6Bounds7isValidEv
libosgEarth.so.0:_ZNK8osgEarth6Bounds8center2dEv
libosgEarth.so.0:_ZNK8osgEarth6Bounds8containsERKS0_
libosgEarth.so.0:_ZNK8osgEarth6Bounds8containsEdd
libosgEarth.so.0:_ZNK8osgEarth6Bounds8radius2dEv
libosgEarth.so.0:_ZNK8osgEarth6Bounds8toStringB5cxx11Ev
libosgEarth.so.0:_ZNK8osgEarth6Bounds9unionWithERKS0_
libosgEarth.so.0:_ZNK8osgEarth6Config4findERKNSt7__cxx1112basic_stringIcSt11char_traitsIcESaIcEEEb
libosgEarth.so.0:_ZNK8osgEarth6Config5childERKNSt7__cxx1112basic_stringIcSt11char_traitsIcESaIcEEE
libosgEarth.so.0:_ZNK8osgEarth6Config6toJSONB5cxx11Eb
libosgEarth.so.0:_ZNK8osgEarth6Config9child_ptrERKNSt7__cxx1112basic_stringIcSt11char_traitsIcESaIcEEE
libosgEarth.so.0:_ZNK8osgEarth6ConfigmiERKS0_
libosgEarth.so.0:_ZNK8osgEarth6Status8toStringB5cxx11Ev
libosgEarth.so.0:_ZNK8osgEarth7Horizon27getDistanceToVisibleHorizonEv
libosgEarth.so.0:_ZNK8osgEarth7Horizon8getPlaneERN3osg5PlaneE
libosgEarth.so.0:_ZNK8osgEarth7Horizon9getRadiusEv
libosgEarth.so.0:_ZNK8osgEarth7Horizon9isVisibleERKN3osg5Vec3dES4_d
libosgEarth.so.0:_ZNK8osgEarth7Horizon9isVisibleERKN3osg5Vec3dEd
libosgEarth.so.0:_ZNK8osgEarth7MapNode10getTerrainEv
libosgEarth.so.0:_ZNK8osgEarth7MapNode12computeBoundEv
libosgEarth.so.0:_ZNK8osgEarth7MapNode12getLayerNodeEPNS_5LayerE
libosgEarth.so.0:_ZNK8osgEarth7MapNode12isGeocentricEv
libosgEarth.so.0:_ZNK8osgEarth7MapNode16getTerrainEngineEv
libosgEarth.so.0:_ZNK8osgEarth7MapNode16releaseGLObjectsEPN3osg5StateE
libosgEarth.so.0:_ZNK8osgEarth7MapNode17getLayerNodeGroupEv
libosgEarth.so.0:_ZNK8osgEarth7MapNode17getMapNodeOptionsEv
libosgEarth.so.0:_ZNK8osgEarth7MapNode19getResourceReleaserEv
libosgEarth.so.0:_ZNK8osgEarth7MapNode26getCascadeDrapingDecoratorEv
libosgEarth.so.0:_ZNK8osgEarth7MapNode6getMapEv
libosgEarth.so.0:_ZNK8osgEarth7MapNode9getConfigEv
libosgEarth.so.0:_ZNK8osgEarth7MapNode9getMapSRSEv
libosgEarth.so.0:_ZNK8osgEarth7Profile11getNumTilesEjRjS1_
libosgEarth.so.0:_ZNK8osgEarth7Profile11getRootKeysERSt6vectorINS_7TileKeyESaIS2_EE
libosgEarth.so.0:_ZNK8osgEarth7Profile11overrideSRSEPKNS_16SpatialReferenceE
libosgEarth.so.0:_ZNK8osgEarth7Profile13createTileKeyEddj
libosgEarth.so.0:_ZNK8osgEarth7Profile14getProfileTypeEv
libosgEarth.so.0:_ZNK8osgEarth7Profile14isEquivalentToEPKS0_
libosgEarth.so.0:_ZNK8osgEarth7Profile15getAllKeysAtLODEjRSt6vectorINS_7TileKeyESaIS2_EE
libosgEarth.so.0:_ZNK8osgEarth7Profile16getEquivalentLODEPKS0_j
libosgEarth.so.0:_ZNK8osgEarth7Profile16getLatLongExtentEv
libosgEarth.so.0:_ZNK8osgEarth7Profile16toProfileOptionsEv
libosgEarth.so.0:_ZNK8osgEarth7Profile17getTileDimensionsEjRdS1_
libosgEarth.so.0:_ZNK8osgEarth7Profile19isHorizEquivalentToEPKS0_
libosgEarth.so.0:_ZNK8osgEarth7Profile20addIntersectingTilesERKNS_9GeoExtentEjRSt6vectorINS_7TileKeyESaIS5_EE
libosgEarth.so.0:_ZNK8osgEarth7Profile20getIntersectingTilesERKNS_7TileKeyERSt6vectorIS1_SaIS1_EE
libosgEarth.so.0:_ZNK8osgEarth7Profile20getIntersectingTilesERKNS_9GeoExtentEjRSt6vectorINS_7TileKeyESaIS5_EE
libosgEarth.so.0:_ZNK8osgEarth7Profile23clampAndTransformExtentERKNS_9GeoExtentEPb
libosgEarth.so.0:_ZNK8osgEarth7Profile34getLevelOfDetailForHorizResolutionEdi
libosgEarth.so.0:_ZNK8osgEarth7Profile4isOKEv
libosgEarth.so.0:_ZNK8osgEarth7Profile6getSRSEv
libosgEarth.so.0:_ZNK8osgEarth7Profile8toStringB5cxx11Ev
libosgEarth.so.0:_ZNK8osgEarth7Profile9getExtentEv
libosgEarth.so.0:_ZNK8osgEarth7Terrain24getWorldCoordsUnderMouseEPN3osg4ViewEffRNS1_5Vec3dE
libosgEarth.so.0:_ZNK8osgEarth7Terrain9getHeightEPKNS_16SpatialReferenceEddPdS4_
libosgEarth.so.0:_ZNK8osgEarth7Terrain9getHeightEPN3osg4NodeEPKNS_16SpatialReferenceEddPdS7_
libosgEarth.so.0:_ZNK8osgEarth7TileKey10getProfileEv
libosgEarth.so.0:_ZNK8osgEarth7TileKey11getQuadrantEv
libosgEarth.so.0:_ZNK8osgEarth7TileKey13mapResolutionEjjj
libosgEarth.so.0:_ZNK8osgEarth7TileKey14createChildKeyEj
libosgEarth.so.0:_ZNK8osgEarth7TileKey15createParentKeyEv
libosgEarth.so.0:_ZNK8osgEarth7TileKey15getPixelExtentsERjS1_S1_S1_RKj
libosgEarth.so.0:_ZNK8osgEarth7TileKey17createAncestorKeyEi
libosgEarth.so.0:_ZNK8osgEarth7TileKey17createNeighborKeyEii
libosgEarth.so.0:_ZNK8osgEarth7TileKey9getTileXYERjS1_
libosgEarth.so.0:_ZNK8osgEarth7XmlText8getValueB5cxx11Ev
libosgEarth.so.0:_ZNK8osgEarth8AsyncLOD12computeBoundEv
libosgEarth.so.0:_ZNK8osgEarth8AsyncLOD7getModeEv
libosgEarth.so.0:_ZNK8osgEarth8AsyncLOD9getPolicyEv
libosgEarth.so.0:_ZNK8osgEarth8AsyncLOD9isVisibleERKNS_9AsyncNodeERN3osg11NodeVisitorE
libosgEarth.so.0:_ZNK8osgEarth8DateTime12getJulianDayEv
libosgEarth.so.0:_ZNK8osgEarth8DateTime16asCompactISO8601B5cxx11Ev
libosgEarth.so.0:_ZNK8osgEarth8DateTime3dayEv
libosgEarth.so.0:_ZNK8osgEarth8DateTime4yearEv
libosgEarth.so.0:_ZNK8osgEarth8DateTime5hoursEv
libosgEarth.so.0:_ZNK8osgEarth8DateTime5monthEv
libosgEarth.so.0:_ZNK8osgEarth8DateTime6timegmEPK2tm
libosgEarth.so.0:_ZNK8osgEarth8DateTime9asISO8601B5cxx11Ev
libosgEarth.so.0:_ZNK8osgEarth8DateTime9asRFC1123B5cxx11Ev
libosgEarth.so.0:_ZNK8osgEarth8DateTimeplEd
libosgEarth.so.0:_ZNK8osgEarth8GeoImage16getUnitsPerPixelEv
libosgEarth.so.0:_ZNK8osgEarth8GeoImage4cropERKNS_9GeoExtentEbjjb
libosgEarth.so.0:_ZNK8osgEarth8GeoImage5validEv
libosgEarth.so.0:_ZNK8osgEarth8GeoImage6getSRSEv
libosgEarth.so.0:_ZNK8osgEarth8GeoImage8getImageEv
libosgEarth.so.0:_ZNK8osgEarth8GeoImage9getExtentEv
libosgEarth.so.0:_ZNK8osgEarth8GeoImage9reprojectEPKNS_16SpatialReferenceEPKNS_9GeoExtentEjjb
libosgEarth.so.0:_ZNK8osgEarth8GeoPoint10distanceToERKS0_
libosgEarth.so.0:_ZNK8osgEarth8GeoPoint10transformZERKNS_12AltitudeModeEPKNS_15TerrainResolverERd
libosgEarth.so.0:_ZNK8osgEarth8GeoPoint11interpolateERKS0_d
libosgEarth.so.0:_ZNK8osgEarth8GeoPoint18createLocalToWorldERN3osg7MatrixdE
libosgEarth.so.0:_ZNK8osgEarth8GeoPoint18createWorldToLocalERN3osg7MatrixdE
libosgEarth.so.0:_ZNK8osgEarth8GeoPoint19createWorldUpVectorERN3osg5Vec3dE
libosgEarth.so.0:_ZNK8osgEarth8GeoPoint7toWorldERN3osg5Vec3dE
libosgEarth.so.0:_ZNK8osgEarth8GeoPoint7toWorldERN3osg5Vec3dEPKNS_15TerrainResolverE
libosgEarth.so.0:_ZNK8osgEarth8GeoPoint8toStringB5cxx11Ev
libosgEarth.so.0:_ZNK8osgEarth8GeoPoint9getConfigEv
libosgEarth.so.0:_ZNK8osgEarth8GeoPoint9transformEPKNS_16SpatialReferenceE
libosgEarth.so.0:_ZNK8osgEarth8GeoPoint9transformEPKNS_16SpatialReferenceERS0_
libosgEarth.so.0:_ZNK8osgEarth8GeoPointeqERKS0_
libosgEarth.so.0:_ZNK8osgEarth8LightGL35applyERN3osg5StateE
libosgEarth.so.0:_ZNK8osgEarth8MapFrame13getMapOptionsEv
libosgEarth.so.0:_ZNK8osgEarth8MapFrame16getElevationPoolEv
libosgEarth.so.0:_ZNK8osgEarth8MapFrame19populateHeightFieldERN3osg7ref_ptrINS1_11HeightFieldEEERKNS_7TileKeyEbPNS_16ProgressCallbackE
libosgEarth.so.0:_ZNK8osgEarth8MapFrame20containsEnabledLayerEi
libosgEarth.so.0:_ZNK8osgEarth8MapFrame31populateHeightFieldAndNormalMapERN3osg7ref_ptrINS1_11HeightFieldEEERNS2_INS_9NormalMapEEERKNS_7TileKeyEbPNS_16ProgressCallbackE
libosgEarth.so.0:_ZNK8osgEarth8MapFrame5validEv
libosgEarth.so.0:_ZNK8osgEarth8MapFrame8isCachedERKNS_7TileKeyE
libosgEarth.so.0:_ZNK8osgEarth8MapFrame9needsSyncEv
libosgEarth.so.0:_ZNK8osgEarth8Registry14getObjectIndexEv
libosgEarth.so.0:_ZNK8osgEarth8Registry15getCapabilitiesEv
libosgEarth.so.0:_ZNK8osgEarth8Registry15getDefaultCacheEv
libosgEarth.so.0:_ZNK8osgEarth8Registry15getNamedProfileERKNSt7__cxx1112basic_stringIcSt11char_traitsIcESaIcEEE
libosgEarth.so.0:_ZNK8osgEarth8Registry15hasCapabilitiesEv
libosgEarth.so.0:_ZNK8osgEarth8Registry16getShaderFactoryEv
libosgEarth.so.0:_ZNK8osgEarth8Registry16getStateSetCacheEv
libosgEarth.so.0:_ZNK8osgEarth8Registry17getDefaultOptionsEv
libosgEarth.so.0:_ZNK8osgEarth8Registry18defaultCachePolicyEv
libosgEarth.so.0:_ZNK8osgEarth8Registry18getShaderGeneratorEv
libosgEarth.so.0:_ZNK8osgEarth8Registry18getURIReadCallbackEv
libosgEarth.so.0:_ZNK8osgEarth8Registry18resolveCachePolicyERNS_8optionalINS_11CachePolicyEEE
libosgEarth.so.0:_ZNK8osgEarth8Registry19getDevicePixelRatioEv
libosgEarth.so.0:_ZNK8osgEarth8Registry19overrideCachePolicyEv
libosgEarth.so.0:_ZNK8osgEarth8Registry24getGlobalGeodeticProfileEv
libosgEarth.so.0:_ZNK8osgEarth8Registry24getGlobalMercatorProfileEv
libosgEarth.so.0:_ZNK8osgEarth8Registry25getDefaultCacheDriverNameB5cxx11Ev
libosgEarth.so.0:_ZNK8osgEarth8Registry27getSphericalMercatorProfileEv
libosgEarth.so.0:_ZNK8osgEarth8Registry29getOffLimitsTextureImageUnitsEv
libosgEarth.so.0:_ZNK8osgEarth8Registry8getUnitsERKNSt7__cxx1112basic_stringIcSt11char_traitsIcESaIcEEE
libosgEarth.so.0:_ZNK8osgEarth8TaskList7getKeysEv
libosgEarth.so.0:_ZNK8osgEarth9CacheSeed10getVisitorEv
libosgEarth.so.0:_ZNK8osgEarth9Extension16getConfigOptionsEv
libosgEarth.so.0:_ZNK8osgEarth9GeoCircle10intersectsERKS0_
libosgEarth.so.0:_ZNK8osgEarth9GeoCircle9transformEPKNS_16SpatialReferenceE
libosgEarth.so.0:_ZNK8osgEarth9GeoCircle9transformEPKNS_16SpatialReferenceERS0_
libosgEarth.so.0:_ZNK8osgEarth9GeoCircleeqERKS0_
libosgEarth.so.0:_ZNK8osgEarth9GeoExtent10intersectsERKS0_b
libosgEarth.so.0:_ZNK8osgEarth9GeoExtent10normalizeXEd
libosgEarth.so.0:_ZNK8osgEarth9GeoExtent11getCentroidERNS_8GeoPointE
libosgEarth.so.0:_ZNK8osgEarth9GeoExtent11getCentroidERdS1_
libosgEarth.so.0:_ZNK8osgEarth9GeoExtent12isGeographicEv
libosgEarth.so.0:_ZNK8osgEarth9GeoExtent14createPolytopeERN3osg8PolytopeE
libosgEarth.so.0:_ZNK8osgEarth9GeoExtent15createScaleBiasERKS0_RN3osg7MatrixdE
libosgEarth.so.0:_ZNK8osgEarth9GeoExtent15createScaleBiasERKS0_RN3osg7MatrixfE
libosgEarth.so.0:_ZNK8osgEarth9GeoExtent19crossesAntimeridianEv
libosgEarth.so.0:_ZNK8osgEarth9GeoExtent19intersectionSameSRSERKS0_
libosgEarth.so.0:_ZNK8osgEarth9GeoExtent23splitAcrossAntimeridianERS0_S1_
libosgEarth.so.0:_ZNK8osgEarth9GeoExtent24computeBoundingGeoCircleEv
libosgEarth.so.0:_ZNK8osgEarth9GeoExtent25createWorldBoundingSphereEdd
libosgEarth.so.0:_ZNK8osgEarth9GeoExtent4areaEv
libosgEarth.so.0:_ZNK8osgEarth9GeoExtent6boundsEv
libosgEarth.so.0:_ZNK8osgEarth9GeoExtent7isValidEv
libosgEarth.so.0:_ZNK8osgEarth9GeoExtent8containsERKNS_6BoundsE
libosgEarth.so.0:_ZNK8osgEarth9GeoExtent8containsERKNS_8GeoPointE
libosgEarth.so.0:_ZNK8osgEarth9GeoExtent8containsERKS0_
libosgEarth.so.0:_ZNK8osgEarth9GeoExtent8containsEddPKNS_16SpatialReferenceE
libosgEarth.so.0:_ZNK8osgEarth9GeoExtent8toStringB5cxx11Ev
libosgEarth.so.0:_ZNK8osgEarth9GeoExtent9getBoundsERdS1_S1_S1_
libosgEarth.so.0:_ZNK8osgEarth9GeoExtent9transformEPKNS_16SpatialReferenceE
libosgEarth.so.0:_ZNK8osgEarth9GeoExtent9transformEPKNS_16SpatialReferenceERS0_
libosgEarth.so.0:_ZNK8osgEarth9GeoExtenteqERKS0_
libosgEarth.so.0:_ZNK8osgEarth9GeoExtentneERKS0_
libosgEarth.so.0:_ZNK8osgEarth9MetaImage12getScaleBiasEii
libosgEarth.so.0:_ZNK8osgEarth9MetaImage4dumpEv
libosgEarth.so.0:_ZNK8osgEarth9MetaImage4readEddRN3osg5Vec4fE
libosgEarth.so.0:_ZNK8osgEarth9MetaImage8getImageEii
libosgEarth.so.0:_ZNK8osgEarth9NormalMap12getCurvatureEjj
libosgEarth.so.0:_ZNK8osgEarth9NormalMap13getNormalByUVEdd
libosgEarth.so.0:_ZNK8osgEarth9NormalMap9getNormalEjj
libosgEarth.so.0:_ZNK8osgEarth9PagedNode13getChildBoundEv
libosgEarth.so.0:_ZNK8osgEarth9PagedNode8hasChildEv
libosgEarth.so.0:_ZNK8osgEarth9TiXmlNode10FirstChildEPKc
libosgEarth.so.0:_ZNK8osgEarth9TiXmlNode11GetDocumentEv
libosgEarth.so.0:_ZNK8osgEarth9TiXmlNode11NextSiblingEPKc
libosgEarth.so.0:_ZNK8osgEarth9TiXmlNode15IterateChildrenEPKS0_
libosgEarth.so.0:_ZNK8osgEarth9TiXmlNode15IterateChildrenEPKcPKS0_
libosgEarth.so.0:_ZNK8osgEarth9TiXmlNode15PreviousSiblingEPKc
libosgEarth.so.0:_ZNK8osgEarth9TiXmlNode17FirstChildElementEPKc
libosgEarth.so.0:_ZNK8osgEarth9TiXmlNode17FirstChildElementEv
libosgEarth.so.0:_ZNK8osgEarth9TiXmlNode18NextSiblingElementEPKc
libosgEarth.so.0:_ZNK8osgEarth9TiXmlNode18NextSiblingElementEv
libosgEarth.so.0:_ZNK8osgEarth9TiXmlNode6CopyToEPS0_
libosgEarth.so.0:_ZNK8osgEarth9TiXmlNode9LastChildEPKc
libosgEarth.so.0:_ZNK8osgEarth9TiXmlText5BlankEv
libosgEarth.so.0:_ZNK8osgEarth9TiXmlText5CloneEv
libosgEarth.so.0:_ZNK8osgEarth9TiXmlText5PrintEP8_IO_FILEi
libosgEarth.so.0:_ZNK8osgEarth9TiXmlText6AcceptEPNS_12TiXmlVisitorE
libosgEarth.so.0:_ZNK8osgEarth9TiXmlText6CopyToEPS0_
libosgEarth.so.0:_ZNK8osgEarth9Viewpoint7getNodeEv
libosgEarth.so.0:_ZNK8osgEarth9Viewpoint7isValidEv
libosgEarth.so.0:_ZNK8osgEarth9Viewpoint8toStringB5cxx11Ev
libosgEarth.so.0:_ZNK8osgEarth9Viewpoint9getConfigEv
libosgEarth.so.0:_ZThn232_N8osgEarth16DepthOffsetGroup21setDepthOffsetOptionsERKNS_18DepthOffsetOptionsE
libosgEarth.so.0:_ZThn232_NK8osgEarth16DepthOffsetGroup21getDepthOffsetOptionsEv
libosgEarth.so.0:_ZThn240_N8osgEarth14TileRasterizerD0Ev
libosgEarth.so.0:_ZThn240_N8osgEarth14TileRasterizerD1Ev
libosgEarth.so.0:_ZThn24_N8osgEarth11ObjectIndex11tagDrawableEPN3osg8DrawableEPNS1_10ReferencedE
libosgEarth.so.0:_ZThn24_N8osgEarth11ObjectIndex15tagAllDrawablesEPN3osg4NodeEPNS1_10ReferencedE
libosgEarth.so.0:_ZThn24_N8osgEarth11ObjectIndex7tagNodeEPN3osg4NodeEPNS1_10ReferencedE
libosgEarth.so.0:_ZThn24_NK8osgEarth7Terrain9getHeightEPKNS_16SpatialReferenceEddPdS4_
libosgEarth.so.0:_ZThn24_NK8osgEarth7Terrain9getHeightEPN3osg4NodeEPKNS_16SpatialReferenceEddPdS7_
libosgEarth.so.0:_ZThn304_N8osgEarth17TerrainEngineNode15createTileModelEPKNS_3MapERKNS_7TileKeyERKNS_21CreateTileModelFilterEPNS_16ProgressCallbackE
libosgEarth.so.0:_ZThn304_N8osgEarth17TerrainEngineNode31notifyOfTerrainTileNodeCreationERKNS_7TileKeyEPN3osg4NodeE
libosgEarth.so.0:_ZThn312_N8osgEarth17TerrainEngineNodeD0Ev
libosgEarth.so.0:_ZThn312_N8osgEarth17TerrainEngineNodeD1Ev
libosgEarth.so.0:_ZThn72_N8osgEarth10MaskSourceD0Ev
libosgEarth.so.0:_ZThn72_N8osgEarth10MaskSourceD1Ev
libosgEarth.so.0:_ZThn72_N8osgEarth11ModelSourceD0Ev
libosgEarth.so.0:_ZThn72_N8osgEarth11ModelSourceD1Ev
libosgEarth.so.0:_ZTv0_n184_N8osgEarth16HorizonClipPlane21resizeGLObjectBuffersEj
libosgEarth.so.0:_ZTv0_n192_NK8osgEarth16HorizonClipPlane16releaseGLObjectsEPN3osg5StateE
libosgEarth.so.0:_ZTv0_n192_NK8osgEarth30LightSourceGL3UniformGenerator16releaseGLObjectsEPN3osg5StateE
libosgEarth.so.0:_ZTv0_n32_N8osgEarth10TileSourceD0Ev
libosgEarth.so.0:_ZTv0_n32_N8osgEarth10TileSourceD1Ev
libosgEarth.so.0:_ZTv0_n72_N8osgEarth30LightSourceGL3UniformGenerator3runEPN3osg6ObjectES3_
libosgEarth.so.0:_ZlsRNSt7__cxx1112basic_stringIcSt11char_traitsIcESaIcEEERKN8osgEarth9TiXmlNodeE
libosgEarth.so.0:_ZlsRSoRKN8osgEarth4Json5ValueE
libosgEarth.so.0:_ZlsRSoRKN8osgEarth9TiXmlNodeE
libosgEarth.so.0:_ZrsRSiRN8osgEarth4Json5ValueE
libosgEarth.so.0:_ZrsRSiRN8osgEarth9TiXmlNodeE
libosgEarth.so.0:osgEarthGetLibraryName
libosgEarth.so.0:osgEarthGetSOVersion
libosgEarth.so.0:osgEarthGetVersion
libosgEarth.so.0:osgEarth_declutter
libosgEarth.so.0:osgdb_ASYNC_PSEUDOLOADER_EXT
libosgEarth.so.0:osgdb_SHADERGEN_PL_EXTENSION
libosgEarth.so.0:osgdb_elevation
libosgEarth.so.0:osgdb_image
libosgEarth.so.0:osgdb_json
libosgEarth.so.0:osgdb_land_cover
libosgEarth.so.0:osgdb_land_cover_dictionary
libosgEarth.so.0:osgdb_model
libosgEarth.so.0:osgdb_osgearth_cachebin
libosgEarth.so.0:osgdb_osgearth_composite
libosgEarth.so.0:osgdb_osgearth_decluttering
libosgEarth.so.0:osgdb_osgearth_pseudo_pagednode
libosgEarth.so.0:osgdb_osgearth_screen_space_layout
libosgEarth.so.0:osgdb_video
libosgEarth.so.0:osgdb_xml
libosgEarth.so.0:wrapper_serializer_ClampableNode
libosgEarth.so.0:wrapper_serializer_DrapeableNode
libosgEarth.so.0:wrapper_serializer_DummyObject
libosgEarth.so.0:wrapper_serializer_InstallViewportSizeUniform
libosgEarth.so.0:wrapper_serializer_LightGL3
libosgEarth.so.0:wrapper_serializer_LineDrawable
libosgEarth.so.0:wrapper_serializer_LineGroup
libosgEarth.so.0:wrapper_serializer_MaterialGL3
libosgEarth.so.0:wrapper_serializer_PointDrawable
libosgEarth.so.0:wrapper_serializer_PointGroup
libosgEarth.so.0:wrapper_serializer_StringObject
libosgEarth.so.0:wrapper_serializer_TextureBuffer
libosgEarth.so.0:wrapper_serializer_VirtualProgram
libosgEarth.so.0:wrapper_serializer_osgEarth_Text
libosgEarthAnnotation.so.0:_ZN8osgEarth10Annotation10CircleNode11setArcStartERKNS_5AngleE
libosgEarthAnnotation.so.0:_ZN8osgEarth10Annotation10CircleNode13buildGeometryEv
libosgEarthAnnotation.so.0:_ZN8osgEarth10Annotation10CircleNode14setNumSegmentsEj
libosgEarthAnnotation.so.0:_ZN8osgEarth10Annotation10CircleNode3setERKNS_8GeoPointERKNS_8DistanceERKNS_9Symbology5StyleERKNS_5AngleESE_b
libosgEarthAnnotation.so.0:_ZN8osgEarth10Annotation10CircleNode6setPieERKb
libosgEarthAnnotation.so.0:_ZN8osgEarth10Annotation10CircleNode9constructEv
libosgEarthAnnotation.so.0:_ZN8osgEarth10Annotation10CircleNode9setArcEndERKNS_5AngleE
libosgEarthAnnotation.so.0:_ZN8osgEarth10Annotation10CircleNode9setRadiusERKNS_8DistanceE
libosgEarthAnnotation.so.0:_ZN8osgEarth10Annotation10CircleNodeC1ERKNS_6ConfigEPKN5osgDB7OptionsE
libosgEarthAnnotation.so.0:_ZN8osgEarth10Annotation10CircleNodeC1Ev
libosgEarthAnnotation.so.0:_ZN8osgEarth10Annotation10CircleNodeC2ERKNS_6ConfigEPKN5osgDB7OptionsE
libosgEarthAnnotation.so.0:_ZN8osgEarth10Annotation10CircleNodeC2Ev
libosgEarthAnnotation.so.0:_ZN8osgEarth10Annotation11EllipseNode11setArcStartERKNS_5AngleE
libosgEarthAnnotation.so.0:_ZN8osgEarth10Annotation11EllipseNode13buildGeometryEv
libosgEarthAnnotation.so.0:_ZN8osgEarth10Annotation11EllipseNode14setNumSegmentsEj
libosgEarthAnnotation.so.0:_ZN8osgEarth10Annotation11EllipseNode14setRadiusMajorERKNS_8DistanceE
libosgEarthAnnotation.so.0:_ZN8osgEarth10Annotation11EllipseNode14setRadiusMinorERKNS_8DistanceE
libosgEarthAnnotation.so.0:_ZN8osgEarth10Annotation11EllipseNode16setRotationAngleERKNS_5AngleE
libosgEarthAnnotation.so.0:_ZN8osgEarth10Annotation11EllipseNode3setERKNS_8GeoPointERKNS_8DistanceES7_RKNS_5AngleERKNS_9Symbology5StyleESA_SA_b
libosgEarthAnnotation.so.0:_ZN8osgEarth10Annotation11EllipseNode6setPieERKb
libosgEarthAnnotation.so.0:_ZN8osgEarth10Annotation11EllipseNode8setRadiiERKNS_8DistanceES4_
libosgEarthAnnotation.so.0:_ZN8osgEarth10Annotation11EllipseNode9constructEv
libosgEarthAnnotation.so.0:_ZN8osgEarth10Annotation11EllipseNode9setArcEndERKNS_5AngleE
libosgEarthAnnotation.so.0:_ZN8osgEarth10Annotation11EllipseNodeC1ERKNS_6ConfigEPKN5osgDB7OptionsE
libosgEarthAnnotation.so.0:_ZN8osgEarth10Annotation11EllipseNodeC1Ev
libosgEarthAnnotation.so.0:_ZN8osgEarth10Annotation11EllipseNodeC2ERKNS_6ConfigEPKN5osgDB7OptionsE
libosgEarthAnnotation.so.0:_ZN8osgEarth10Annotation11EllipseNodeC2Ev
libosgEarthAnnotation.so.0:_ZN8osgEarth10Annotation11FeatureNode10getFeatureEv
libosgEarthAnnotation.so.0:_ZN8osgEarth10Annotation11FeatureNode10setFeatureEPNS_8Features7FeatureE
libosgEarthAnnotation.so.0:_ZN8osgEarth10Annotation11FeatureNode10setMapNodeEPNS_7MapNodeE
libosgEarthAnnotation.so.0:_ZN8osgEarth10Annotation11FeatureNode11onTileAddedERKNS_7TileKeyEPN3osg4NodeERNS_22TerrainCallbackContextE
libosgEarthAnnotation.so.0:_ZN8osgEarth10Annotation11FeatureNode13setStyleSheetEPNS_9Symbology10StyleSheetE
libosgEarthAnnotation.so.0:_ZN8osgEarth10Annotation11FeatureNode5buildEv
libosgEarthAnnotation.so.0:_ZN8osgEarth10Annotation11FeatureNode5clampEPN3osg4NodeEPKNS_7TerrainE
libosgEarthAnnotation.so.0:_ZN8osgEarth10Annotation11FeatureNode5dirtyEv
libosgEarthAnnotation.so.0:_ZN8osgEarth10Annotation11FeatureNode8getIndexEv
libosgEarthAnnotation.so.0:_ZN8osgEarth10Annotation11FeatureNode8setIndexEPNS_8Features19FeatureIndexBuilderE
libosgEarthAnnotation.so.0:_ZN8osgEarth10Annotation11FeatureNode8setStyleERKNS_9Symbology5StyleE
libosgEarthAnnotation.so.0:_ZN8osgEarth10Annotation11FeatureNode8traverseERN3osg11NodeVisitorE
libosgEarthAnnotation.so.0:_ZN8osgEarth10Annotation11FeatureNodeC1EPNS_8Features7FeatureERKNS_9Symbology5StyleERKNS2_23GeometryCompilerOptionsEPNS5_10StyleSheetE
libosgEarthAnnotation.so.0:_ZN8osgEarth10Annotation11FeatureNodeC1ERKNS_6ConfigEPKN5osgDB7OptionsE
libosgEarthAnnotation.so.0:_ZN8osgEarth10Annotation11FeatureNodeC1ERKNSt7__cxx114listIN3osg7ref_ptrINS_8Features7FeatureEEESaIS8_EEERKNS_9Symbology5StyleERKNS6_23GeometryCompilerOptionsEPNSD_10StyleSheetE
libosgEarthAnnotation.so.0:_ZN8osgEarth10Annotation11FeatureNodeC2EPNS_8Features7FeatureERKNS_9Symbology5StyleERKNS2_23GeometryCompilerOptionsEPNS5_10StyleSheetE
libosgEarthAnnotation.so.0:_ZN8osgEarth10Annotation11FeatureNodeC2ERKNS_6ConfigEPKN5osgDB7OptionsE
libosgEarthAnnotation.so.0:_ZN8osgEarth10Annotation11FeatureNodeC2ERKNSt7__cxx114listIN3osg7ref_ptrINS_8Features7FeatureEEESaIS8_EEERKNS_9Symbology5StyleERKNS6_23GeometryCompilerOptionsEPNSD_10StyleSheetE
libosgEarthAnnotation.so.0:_ZN8osgEarth10Annotation12BboxDrawableC1ERKN3osg15BoundingBoxImplINS2_5Vec3fEEERKNS_9Symbology10BBoxSymbolE
libosgEarthAnnotation.so.0:_ZN8osgEarth10Annotation12BboxDrawableC2ERKN3osg15BoundingBoxImplINS2_5Vec3fEEERKNS_9Symbology10BBoxSymbolE
libosgEarthAnnotation.so.0:_ZN8osgEarth10Annotation12ImageOverlay10createNodeEPNS_8Features7FeatureEb
libosgEarthAnnotation.so.0:_ZN8osgEarth10Annotation12ImageOverlay10setCornersERKN3osg5Vec2dES5_S5_S5_
libosgEarthAnnotation.so.0:_ZN8osgEarth10Annotation12ImageOverlay10setMapNodeEPNS_7MapNodeE
libosgEarthAnnotation.so.0:_ZN8osgEarth10Annotation12ImageOverlay11addCallbackEPNS1_20ImageOverlayCallbackE
libosgEarthAnnotation.so.0:_ZN8osgEarth10Annotation12ImageOverlay12setLowerLeftEdd
libosgEarthAnnotation.so.0:_ZN8osgEarth10Annotation12ImageOverlay12setMagFilterEN3osg7Texture10FilterModeE
libosgEarthAnnotation.so.0:_ZN8osgEarth10Annotation12ImageOverlay12setMinFilterEN3osg7Texture10FilterModeE
libosgEarthAnnotation.so.0:_ZN8osgEarth10Annotation12ImageOverlay12setUpperLeftEdd
libosgEarthAnnotation.so.0:_ZN8osgEarth10Annotation12ImageOverlay13setLowerRightEdd
libosgEarthAnnotation.so.0:_ZN8osgEarth10Annotation12ImageOverlay13setUpperRightEdd
libosgEarthAnnotation.so.0:_ZN8osgEarth10Annotation12ImageOverlay13updateFiltersEv
libosgEarthAnnotation.so.0:_ZN8osgEarth10Annotation12ImageOverlay14clampLatitudesEv
libosgEarthAnnotation.so.0:_ZN8osgEarth10Annotation12ImageOverlay14removeCallbackEPNS1_20ImageOverlayCallbackE
libosgEarthAnnotation.so.0:_ZN8osgEarth10Annotation12ImageOverlay15getControlPointENS1_12ControlPointE
libosgEarthAnnotation.so.0:_ZN8osgEarth10Annotation12ImageOverlay15setControlPointENS1_12ControlPointEddb
libosgEarthAnnotation.so.0:_ZN8osgEarth10Annotation12ImageOverlay20setBoundsAndRotationERKNS_6BoundsERKNS_5AngleE
libosgEarthAnnotation.so.0:_ZN8osgEarth10Annotation12ImageOverlay5dirtyEv
libosgEarthAnnotation.so.0:_ZN8osgEarth10Annotation12ImageOverlay7compileEv
libosgEarthAnnotation.so.0:_ZN8osgEarth10Annotation12ImageOverlay7setEastEd
libosgEarthAnnotation.so.0:_ZN8osgEarth10Annotation12ImageOverlay7setWestEd
libosgEarthAnnotation.so.0:_ZN8osgEarth10Annotation12ImageOverlay8setAlphaEf
libosgEarthAnnotation.so.0:_ZN8osgEarth10Annotation12ImageOverlay8setImageEPN3osg5ImageE
libosgEarthAnnotation.so.0:_ZN8osgEarth10Annotation12ImageOverlay8setNorthEd
libosgEarthAnnotation.so.0:_ZN8osgEarth10Annotation12ImageOverlay8setSouthEd
libosgEarthAnnotation.so.0:_ZN8osgEarth10Annotation12ImageOverlay8traverseERN3osg11NodeVisitorE
libosgEarthAnnotation.so.0:_ZN8osgEarth10Annotation12ImageOverlay9constructEv
libosgEarthAnnotation.so.0:_ZN8osgEarth10Annotation12ImageOverlay9setBoundsERKNS_6BoundsE
libosgEarthAnnotation.so.0:_ZN8osgEarth10Annotation12ImageOverlay9setCenterEdd
libosgEarthAnnotation.so.0:_ZN8osgEarth10Annotation12ImageOverlay9setDrapedEb
libosgEarthAnnotation.so.0:_ZN8osgEarth10Annotation12ImageOverlayC1EPNS_7MapNodeEPN3osg5ImageE
libosgEarthAnnotation.so.0:_ZN8osgEarth10Annotation12ImageOverlayC1ERKNS_6ConfigEPKN5osgDB7OptionsE
libosgEarthAnnotation.so.0:_ZN8osgEarth10Annotation12ImageOverlayC2EPNS_7MapNodeEPN3osg5ImageE
libosgEarthAnnotation.so.0:_ZN8osgEarth10Annotation12ImageOverlayC2ERKNS_6ConfigEPKN5osgDB7OptionsE
libosgEarthAnnotation.so.0:_ZN8osgEarth10Annotation13FeatureEditor12setPickColorERKN3osg5Vec4fE
libosgEarthAnnotation.so.0:_ZN8osgEarth10Annotation13FeatureEditor4initEv
libosgEarthAnnotation.so.0:_ZN8osgEarth10Annotation13FeatureEditor7setSizeEf
libosgEarthAnnotation.so.0:_ZN8osgEarth10Annotation13FeatureEditor8setColorERKN3osg5Vec4fE
libosgEarthAnnotation.so.0:_ZN8osgEarth10Annotation13FeatureEditorC1EPNS0_11FeatureNodeE
libosgEarthAnnotation.so.0:_ZN8osgEarth10Annotation13FeatureEditorC2EPNS0_11FeatureNodeE
libosgEarthAnnotation.so.0:_ZN8osgEarth10Annotation13RectangleNode12setLowerLeftERKNS_8GeoPointE
libosgEarthAnnotation.so.0:_ZN8osgEarth10Annotation13RectangleNode12setUpperLeftERKNS_8GeoPointE
libosgEarthAnnotation.so.0:_ZN8osgEarth10Annotation13RectangleNode13setLowerRightERKNS_8GeoPointE
libosgEarthAnnotation.so.0:_ZN8osgEarth10Annotation13RectangleNode13setUpperRightERKNS_8GeoPointE
libosgEarthAnnotation.so.0:_ZN8osgEarth10Annotation13RectangleNode7compileEv
libosgEarthAnnotation.so.0:_ZN8osgEarth10Annotation13RectangleNode7setSizeERKNS_8DistanceES4_
libosgEarthAnnotation.so.0:_ZN8osgEarth10Annotation13RectangleNode8setStyleERKNS_9Symbology5StyleE
libosgEarthAnnotation.so.0:_ZN8osgEarth10Annotation13RectangleNode8setWidthERKNS_8DistanceE
libosgEarthAnnotation.so.0:_ZN8osgEarth10Annotation13RectangleNode9constructEv
libosgEarthAnnotation.so.0:_ZN8osgEarth10Annotation13RectangleNode9setCornerENS1_6CornerERKNS_8GeoPointE
libosgEarthAnnotation.so.0:_ZN8osgEarth10Annotation13RectangleNode9setHeightERKNS_8DistanceE
libosgEarthAnnotation.so.0:_ZN8osgEarth10Annotation13RectangleNodeC1ERKNS_6ConfigEPKN5osgDB7OptionsE
libosgEarthAnnotation.so.0:_ZN8osgEarth10Annotation13RectangleNodeC1ERKNS_8GeoPointERKNS_8DistanceES7_RKNS_9Symbology5StyleE
libosgEarthAnnotation.so.0:_ZN8osgEarth10Annotation13RectangleNodeC1Ev
libosgEarthAnnotation.so.0:_ZN8osgEarth10Annotation13RectangleNodeC2ERKNS_6ConfigEPKN5osgDB7OptionsE
libosgEarthAnnotation.so.0:_ZN8osgEarth10Annotation13RectangleNodeC2ERKNS_8GeoPointERKNS_8DistanceES7_RKNS_9Symbology5StyleE
libosgEarthAnnotation.so.0:_ZN8osgEarth10Annotation13RectangleNodeC2Ev
libosgEarthAnnotation.so.0:_ZN8osgEarth10Annotation13SphereDragger11updateColorEv
libosgEarthAnnotation.so.0:_ZN8osgEarth10Annotation13SphereDragger12setPickColorERKN3osg5Vec4fE
libosgEarthAnnotation.so.0:_ZN8osgEarth10Annotation13SphereDragger5enterEv
libosgEarthAnnotation.so.0:_ZN8osgEarth10Annotation13SphereDragger5leaveEv
libosgEarthAnnotation.so.0:_ZN8osgEarth10Annotation13SphereDragger7setSizeEf
libosgEarthAnnotation.so.0:_ZN8osgEarth10Annotation13SphereDragger8setColorERKN3osg5Vec4fE
libosgEarthAnnotation.so.0:_ZN8osgEarth10Annotation13SphereDraggerC1EPNS_7MapNodeE
libosgEarthAnnotation.so.0:_ZN8osgEarth10Annotation13SphereDraggerC2EPNS_7MapNodeE
libosgEarthAnnotation.so.0:_ZN8osgEarth10Annotation14AnnotationData11mergeConfigERKNS_6ConfigE
libosgEarthAnnotation.so.0:_ZN8osgEarth10Annotation14AnnotationDataC1ERKNS_6ConfigE
libosgEarthAnnotation.so.0:_ZN8osgEarth10Annotation14AnnotationDataC1Ev
libosgEarthAnnotation.so.0:_ZN8osgEarth10Annotation14AnnotationDataC2ERKNS_6ConfigE
libosgEarthAnnotation.so.0:_ZN8osgEarth10Annotation14AnnotationDataC2Ev
libosgEarthAnnotation.so.0:_ZN8osgEarth10Annotation14AnnotationDataD0Ev
libosgEarthAnnotation.so.0:_ZN8osgEarth10Annotation14AnnotationDataD1Ev
libosgEarthAnnotation.so.0:_ZN8osgEarth10Annotation14AnnotationDataD2Ev
libosgEarthAnnotation.so.0:_ZN8osgEarth10Annotation14AnnotationNode10applyStyleERKNS_9Symbology5StyleE
libosgEarthAnnotation.so.0:_ZN8osgEarth10Annotation14AnnotationNode10setDynamicEb
libosgEarthAnnotation.so.0:_ZN8osgEarth10Annotation14AnnotationNode10setMapNodeEPNS_7MapNodeE
libosgEarthAnnotation.so.0:_ZN8osgEarth10Annotation14AnnotationNode11setPriorityEf
libosgEarthAnnotation.so.0:_ZN8osgEarth10Annotation14AnnotationNode17setHorizonCullingEb
libosgEarthAnnotation.so.0:_ZN8osgEarth10Annotation14AnnotationNode18setDefaultLightingEb
libosgEarthAnnotation.so.0:_ZN8osgEarth10Annotation14AnnotationNode18setDepthAdjustmentEb
libosgEarthAnnotation.so.0:_ZN8osgEarth10Annotation14AnnotationNode20applyRenderSymbologyERKNS_9Symbology5StyleE
libosgEarthAnnotation.so.0:_ZN8osgEarth10Annotation14AnnotationNode8traverseERN3osg11NodeVisitorE
libosgEarthAnnotation.so.0:_ZN8osgEarth10Annotation14AnnotationNode9constructEv
libosgEarthAnnotation.so.0:_ZN8osgEarth10Annotation14AnnotationNodeC1ERKNS_6ConfigEPKN5osgDB7OptionsE
libosgEarthAnnotation.so.0:_ZN8osgEarth10Annotation14AnnotationNodeC1Ev
libosgEarthAnnotation.so.0:_ZN8osgEarth10Annotation14AnnotationNodeC2ERKNS_6ConfigEPKN5osgDB7OptionsE
libosgEarthAnnotation.so.0:_ZN8osgEarth10Annotation14AnnotationNodeC2Ev
libosgEarthAnnotation.so.0:_ZN8osgEarth10Annotation14AnnotationNodeD0Ev
libosgEarthAnnotation.so.0:_ZN8osgEarth10Annotation14AnnotationNodeD1Ev
libosgEarthAnnotation.so.0:_ZN8osgEarth10Annotation14AnnotationNodeD2Ev
libosgEarthAnnotation.so.0:_ZN8osgEarth10Annotation15AddPointHandler14setMouseButtonEN5osgGA15GUIEventAdapter15MouseButtonMaskE
libosgEarthAnnotation.so.0:_ZN8osgEarth10Annotation15AddPointHandler6handleERKN5osgGA15GUIEventAdapterERNS2_16GUIActionAdapterE
libosgEarthAnnotation.so.0:_ZN8osgEarth10Annotation15AddPointHandler8addPointEffPN9osgViewer4ViewE
libosgEarthAnnotation.so.0:_ZN8osgEarth10Annotation15AddPointHandlerC1EPNS0_11FeatureNodeE
libosgEarthAnnotation.so.0:_ZN8osgEarth10Annotation15AddPointHandlerC2EPNS0_11FeatureNodeE
libosgEarthAnnotation.so.0:_ZN8osgEarth10Annotation15AnnotationLayer11deserializeEv
libosgEarthAnnotation.so.0:_ZN8osgEarth10Annotation15AnnotationLayer4initEv
libosgEarthAnnotation.so.0:_ZN8osgEarth10Annotation15AnnotationLayer8addChildEPNS0_14AnnotationNodeE
libosgEarthAnnotation.so.0:_ZN8osgEarth10Annotation15AnnotationLayerC1ERKNS0_22AnnotationLayerOptionsE
libosgEarthAnnotation.so.0:_ZN8osgEarth10Annotation15AnnotationLayerC1Ev
libosgEarthAnnotation.so.0:_ZN8osgEarth10Annotation15AnnotationLayerC2ERKNS0_22AnnotationLayerOptionsE
libosgEarthAnnotation.so.0:_ZN8osgEarth10Annotation15AnnotationLayerC2Ev
libosgEarthAnnotation.so.0:_ZN8osgEarth10Annotation15AnnotationUtils12createSphereEfRKN3osg5Vec4fEf
libosgEarthAnnotation.so.0:_ZN8osgEarth10Annotation15AnnotationUtils15createEllipsoidEfffRKN3osg5Vec4fEfffff
libosgEarthAnnotation.so.0:_ZN8osgEarth10Annotation15AnnotationUtils16createHemisphereEfRKN3osg5Vec4fEf
libosgEarthAnnotation.so.0:_ZN8osgEarth10Annotation15AnnotationUtils17getAltitudePolicyERKNS_9Symbology5StyleERNS1_14AltitudePolicyE
libosgEarthAnnotation.so.0:_ZN8osgEarth10Annotation15AnnotationUtils18createTextDrawableERKNSt7__cxx1112basic_stringIcSt11char_traitsIcESaIcEEEPKNS_9Symbology10TextSymbolERKN3osg15BoundingBoxImplINSE_5Vec3fEEE
libosgEarthAnnotation.so.0:_ZN8osgEarth10Annotation15AnnotationUtils19createImageGeometryEPN3osg5ImageERKNS2_5Vec2sEjdd
libosgEarthAnnotation.so.0:_ZN8osgEarth10Annotation15AnnotationUtils19installTwoPassAlphaEPN3osg4NodeE
libosgEarthAnnotation.so.0:_ZN8osgEarth10Annotation15AnnotationUtils20createFullScreenQuadERKN3osg5Vec4fE
libosgEarthAnnotation.so.0:_ZN8osgEarth10Annotation15AnnotationUtils20installOverlayParentEPN3osg4NodeERKNS_9Symbology5StyleE
libosgEarthAnnotation.so.0:_ZN8osgEarth10Annotation15AnnotationUtils23createEllipsoidGeometryEfffRKN3osg5Vec4fEfffff
libosgEarthAnnotation.so.0:_ZN8osgEarth10Annotation15AnnotationUtils25convertTextSymbolEncodingENS_9Symbology10TextSymbol8EncodingE
libosgEarthAnnotation.so.0:_ZN8osgEarth10Annotation15AnnotationUtils26styleRequiresAlphaBlendingERKNS_9Symbology5StyleE
libosgEarthAnnotation.so.0:_ZN8osgEarth10Annotation15GeoPositionNode10applyStyleERKNS_9Symbology5StyleE
libosgEarthAnnotation.so.0:_ZN8osgEarth10Annotation15GeoPositionNode10setMapNodeEPNS_7MapNodeE
libosgEarthAnnotation.so.0:_ZN8osgEarth10Annotation15GeoPositionNode11setPositionERKNS_8GeoPointE
libosgEarthAnnotation.so.0:_ZN8osgEarth10Annotation15GeoPositionNode19setOcclusionCullingEb
libosgEarthAnnotation.so.0:_ZN8osgEarth10Annotation15GeoPositionNode30setOcclusionCullingMaxAltitudeEd
libosgEarthAnnotation.so.0:_ZN8osgEarth10Annotation15GeoPositionNode9constructEv
libosgEarthAnnotation.so.0:_ZN8osgEarth10Annotation15GeoPositionNode9setConfigERKNS_6ConfigE
libosgEarthAnnotation.so.0:_ZN8osgEarth10Annotation15GeoPositionNodeC1ERKNS_6ConfigEPKN5osgDB7OptionsE
libosgEarthAnnotation.so.0:_ZN8osgEarth10Annotation15GeoPositionNodeC1Ev
libosgEarthAnnotation.so.0:_ZN8osgEarth10Annotation15GeoPositionNodeC2ERKNS_6ConfigEPKN5osgDB7OptionsE
libosgEarthAnnotation.so.0:_ZN8osgEarth10Annotation15GeoPositionNodeC2Ev
libosgEarthAnnotation.so.0:_ZN8osgEarth10Annotation16AnnotationEditorC1Ev
libosgEarthAnnotation.so.0:_ZN8osgEarth10Annotation16AnnotationEditorC2Ev
libosgEarthAnnotation.so.0:_ZN8osgEarth10Annotation16CircleNodeEditor10setBearingERKNS_5AngleE
libosgEarthAnnotation.so.0:_ZN8osgEarth10Annotation16CircleNodeEditor14computeBearingEv
libosgEarthAnnotation.so.0:_ZN8osgEarth10Annotation16CircleNodeEditor14updateDraggersEv
libosgEarthAnnotation.so.0:_ZN8osgEarth10Annotation16CircleNodeEditorC1EPNS0_10CircleNodeE
libosgEarthAnnotation.so.0:_ZN8osgEarth10Annotation16CircleNodeEditorC2EPNS0_10CircleNodeE
libosgEarthAnnotation.so.0:_ZN8osgEarth10Annotation16CircleNodeEditorD0Ev
libosgEarthAnnotation.so.0:_ZN8osgEarth10Annotation16CircleNodeEditorD1Ev
libosgEarthAnnotation.so.0:_ZN8osgEarth10Annotation16CircleNodeEditorD2Ev
libosgEarthAnnotation.so.0:_ZN8osgEarth10Annotation17EllipseNodeEditor14updateDraggersEv
libosgEarthAnnotation.so.0:_ZN8osgEarth10Annotation17EllipseNodeEditorC1EPNS0_11EllipseNodeE
libosgEarthAnnotation.so.0:_ZN8osgEarth10Annotation17EllipseNodeEditorC2EPNS0_11EllipseNodeE
libosgEarthAnnotation.so.0:_ZN8osgEarth10Annotation17EllipseNodeEditorD0Ev
libosgEarthAnnotation.so.0:_ZN8osgEarth10Annotation17EllipseNodeEditorD1Ev
libosgEarthAnnotation.so.0:_ZN8osgEarth10Annotation17EllipseNodeEditorD2Ev
libosgEarthAnnotation.so.0:_ZN8osgEarth10Annotation17LocalGeometryNode10setMapNodeEPNS_7MapNodeE
libosgEarthAnnotation.so.0:_ZN8osgEarth10Annotation17LocalGeometryNode11onTileAddedERKNS_7TileKeyEPN3osg4NodeERNS_22TerrainCallbackContextE
libosgEarthAnnotation.so.0:_ZN8osgEarth10Annotation17LocalGeometryNode11setGeometryEPNS_9Symbology8GeometryE
libosgEarthAnnotation.so.0:_ZN8osgEarth10Annotation17LocalGeometryNode11setPositionERKNS_8GeoPointE
libosgEarthAnnotation.so.0:_ZN8osgEarth10Annotation17LocalGeometryNode15compileGeometryEv
libosgEarthAnnotation.so.0:_ZN8osgEarth10Annotation17LocalGeometryNode23togglePerVertexClampingEv
libosgEarthAnnotation.so.0:_ZN8osgEarth10Annotation17LocalGeometryNode5clampEPN3osg4NodeEPKNS_7TerrainE
libosgEarthAnnotation.so.0:_ZN8osgEarth10Annotation17LocalGeometryNode7reclampEv
libosgEarthAnnotation.so.0:_ZN8osgEarth10Annotation17LocalGeometryNode8setStyleERKNS_9Symbology5StyleE
libosgEarthAnnotation.so.0:_ZN8osgEarth10Annotation17LocalGeometryNode8traverseERN3osg11NodeVisitorE
libosgEarthAnnotation.so.0:_ZN8osgEarth10Annotation17LocalGeometryNode9constructEv
libosgEarthAnnotation.so.0:_ZN8osgEarth10Annotation17LocalGeometryNodeC1EPNS_9Symbology8GeometryERKNS2_5StyleE
libosgEarthAnnotation.so.0:_ZN8osgEarth10Annotation17LocalGeometryNodeC1ERKNS_6ConfigEPKN5osgDB7OptionsE
libosgEarthAnnotation.so.0:_ZN8osgEarth10Annotation17LocalGeometryNodeC1Ev
libosgEarthAnnotation.so.0:_ZN8osgEarth10Annotation17LocalGeometryNodeC2EPNS_9Symbology8GeometryERKNS2_5StyleE
libosgEarthAnnotation.so.0:_ZN8osgEarth10Annotation17LocalGeometryNodeC2ERKNS_6ConfigEPKN5osgDB7OptionsE
libosgEarthAnnotation.so.0:_ZN8osgEarth10Annotation17LocalGeometryNodeC2Ev
libosgEarthAnnotation.so.0:_ZN8osgEarth10Annotation18AnnotationRegistry3addERKNSt7__cxx1112basic_stringIcSt11char_traitsIcESaIcEEEPNS0_17AnnotationFactoryE
libosgEarthAnnotation.so.0:_ZN8osgEarth10Annotation18AnnotationRegistry8instanceEv
libosgEarthAnnotation.so.0:_ZN8osgEarth10Annotation18ImageOverlayEditor10addDraggerENS0_12ImageOverlay12ControlPointE
libosgEarthAnnotation.so.0:_ZN8osgEarth10Annotation18ImageOverlayEditor14updateDraggersEv
libosgEarthAnnotation.so.0:_ZN8osgEarth10Annotation18ImageOverlayEditorC1EPNS0_12ImageOverlayEb
libosgEarthAnnotation.so.0:_ZN8osgEarth10Annotation18ImageOverlayEditorC2EPNS0_12ImageOverlayEb
libosgEarthAnnotation.so.0:_ZN8osgEarth10Annotation18ImageOverlayEditorD0Ev
libosgEarthAnnotation.so.0:_ZN8osgEarth10Annotation18ImageOverlayEditorD1Ev
libosgEarthAnnotation.so.0:_ZN8osgEarth10Annotation18ImageOverlayEditorD2Ev
libosgEarthAnnotation.so.0:_ZN8osgEarth10Annotation19RectangleNodeEditor14updateDraggersEv
libosgEarthAnnotation.so.0:_ZN8osgEarth10Annotation19RectangleNodeEditorC1EPNS0_13RectangleNodeE
libosgEarthAnnotation.so.0:_ZN8osgEarth10Annotation19RectangleNodeEditorC2EPNS0_13RectangleNodeE
libosgEarthAnnotation.so.0:_ZN8osgEarth10Annotation19RectangleNodeEditorD0Ev
libosgEarthAnnotation.so.0:_ZN8osgEarth10Annotation19RectangleNodeEditorD1Ev
libosgEarthAnnotation.so.0:_ZN8osgEarth10Annotation19RectangleNodeEditorD2Ev
libosgEarthAnnotation.so.0:_ZN8osgEarth10Annotation21GeoPositionNodeEditor11setPositionERKNS_8GeoPointE
libosgEarthAnnotation.so.0:_ZN8osgEarth10Annotation21GeoPositionNodeEditor14updateDraggersEv
libosgEarthAnnotation.so.0:_ZN8osgEarth10Annotation21GeoPositionNodeEditorC1EPNS0_15GeoPositionNodeE
libosgEarthAnnotation.so.0:_ZN8osgEarth10Annotation21GeoPositionNodeEditorC2EPNS0_15GeoPositionNodeE
libosgEarthAnnotation.so.0:_ZN8osgEarth10Annotation21GeoPositionNodeEditorD0Ev
libosgEarthAnnotation.so.0:_ZN8osgEarth10Annotation21GeoPositionNodeEditorD1Ev
libosgEarthAnnotation.so.0:_ZN8osgEarth10Annotation21GeoPositionNodeEditorD2Ev
libosgEarthAnnotation.so.0:_ZN8osgEarth10Annotation25GeoPositionNodeAutoScalerC1ERKN3osg5Vec3dEdd
libosgEarthAnnotation.so.0:_ZN8osgEarth10Annotation25GeoPositionNodeAutoScalerC2ERKN3osg5Vec3dEdd
libosgEarthAnnotation.so.0:_ZN8osgEarth10Annotation25GeoPositionNodeAutoScalerclEPN3osg4NodeEPNS2_11NodeVisitorE
libosgEarthAnnotation.so.0:_ZN8osgEarth10Annotation7Dragger11setPositionERKNS_8GeoPointE
libosgEarthAnnotation.so.0:_ZN8osgEarth10Annotation7Dragger11setPositionERKNS_8GeoPointEb
libosgEarthAnnotation.so.0:_ZN8osgEarth10Annotation7Dragger19firePositionChangedEv
libosgEarthAnnotation.so.0:_ZN8osgEarth10Annotation7Dragger26addPositionChangedCallbackEPNS1_23PositionChangedCallbackE
libosgEarthAnnotation.so.0:_ZN8osgEarth10Annotation7Dragger29removePositionChangedCallbackEPNS1_23PositionChangedCallbackE
libosgEarthAnnotation.so.0:_ZN8osgEarth10Annotation7Dragger5enterEv
libosgEarthAnnotation.so.0:_ZN8osgEarth10Annotation7Dragger5leaveEv
libosgEarthAnnotation.so.0:_ZN8osgEarth10Annotation7Dragger6handleERKN5osgGA15GUIEventAdapterERNS2_16GUIActionAdapterE
libosgEarthAnnotation.so.0:_ZN8osgEarth10Annotation7Dragger8setHoverEb
libosgEarthAnnotation.so.0:_ZN8osgEarth10Annotation7Dragger8traverseERN3osg11NodeVisitorE
libosgEarthAnnotation.so.0:_ZN8osgEarth10Annotation7DraggerC1EPNS_7MapNodeEiRKNS1_8DragModeE
libosgEarthAnnotation.so.0:_ZN8osgEarth10Annotation7DraggerC2EPNS_7MapNodeEiRKNS1_8DragModeE
libosgEarthAnnotation.so.0:_ZN8osgEarth10Annotation7DraggerD0Ev
libosgEarthAnnotation.so.0:_ZN8osgEarth10Annotation7DraggerD1Ev
libosgEarthAnnotation.so.0:_ZN8osgEarth10Annotation7DraggerD2Ev
libosgEarthAnnotation.so.0:_ZN8osgEarth10Annotation9LabelNode10setDynamicEb
libosgEarthAnnotation.so.0:_ZN8osgEarth10Annotation9LabelNode11setPriorityEf
libosgEarthAnnotation.so.0:_ZN8osgEarth10Annotation9LabelNode16updateLayoutDataEv
libosgEarthAnnotation.so.0:_ZN8osgEarth10Annotation9LabelNode5dirtyEv
libosgEarthAnnotation.so.0:_ZN8osgEarth10Annotation9LabelNode7compileEv
libosgEarthAnnotation.so.0:_ZN8osgEarth10Annotation9LabelNode7setTextERKNSt7__cxx1112basic_stringIcSt11char_traitsIcESaIcEEE
libosgEarthAnnotation.so.0:_ZN8osgEarth10Annotation9LabelNode8setStyleERKNS_9Symbology5StyleE
libosgEarthAnnotation.so.0:_ZN8osgEarth10Annotation9LabelNode9constructEv
libosgEarthAnnotation.so.0:_ZN8osgEarth10Annotation9LabelNodeC1ERKNS_6ConfigEPKN5osgDB7OptionsE
libosgEarthAnnotation.so.0:_ZN8osgEarth10Annotation9LabelNodeC1ERKNS_8GeoPointERKNSt7__cxx1112basic_stringIcSt11char_traitsIcESaIcEEERKNS_9Symbology5StyleE
libosgEarthAnnotation.so.0:_ZN8osgEarth10Annotation9LabelNodeC1ERKNSt7__cxx1112basic_stringIcSt11char_traitsIcESaIcEEERKNS_9Symbology5StyleE
libosgEarthAnnotation.so.0:_ZN8osgEarth10Annotation9LabelNodeC1Ev
libosgEarthAnnotation.so.0:_ZN8osgEarth10Annotation9LabelNodeC2ERKNS_6ConfigEPKN5osgDB7OptionsE
libosgEarthAnnotation.so.0:_ZN8osgEarth10Annotation9LabelNodeC2ERKNS_8GeoPointERKNSt7__cxx1112basic_stringIcSt11char_traitsIcESaIcEEERKNS_9Symbology5StyleE
libosgEarthAnnotation.so.0:_ZN8osgEarth10Annotation9LabelNodeC2ERKNSt7__cxx1112basic_stringIcSt11char_traitsIcESaIcEEERKNS_9Symbology5StyleE
libosgEarthAnnotation.so.0:_ZN8osgEarth10Annotation9LabelNodeC2Ev
libosgEarthAnnotation.so.0:_ZN8osgEarth10Annotation9ModelNode12compileModelEv
libosgEarthAnnotation.so.0:_ZN8osgEarth10Annotation9ModelNode8setStyleERKNS_9Symbology5StyleE
libosgEarthAnnotation.so.0:_ZN8osgEarth10Annotation9ModelNode9constructEv
libosgEarthAnnotation.so.0:_ZN8osgEarth10Annotation9ModelNodeC1EPNS_7MapNodeERKNS_9Symbology5StyleEPKN5osgDB7OptionsE
libosgEarthAnnotation.so.0:_ZN8osgEarth10Annotation9ModelNodeC1ERKNS_6ConfigEPKN5osgDB7OptionsE
libosgEarthAnnotation.so.0:_ZN8osgEarth10Annotation9ModelNodeC2EPNS_7MapNodeERKNS_9Symbology5StyleEPKN5osgDB7OptionsE
libosgEarthAnnotation.so.0:_ZN8osgEarth10Annotation9ModelNodeC2ERKNS_6ConfigEPKN5osgDB7OptionsE
libosgEarthAnnotation.so.0:_ZN8osgEarth10Annotation9PlaceNode10setDynamicEb
libosgEarthAnnotation.so.0:_ZN8osgEarth10Annotation9PlaceNode11setPriorityEf
libosgEarthAnnotation.so.0:_ZN8osgEarth10Annotation9PlaceNode12setIconImageEPN3osg5ImageE
libosgEarthAnnotation.so.0:_ZN8osgEarth10Annotation9PlaceNode16updateLayoutDataEv
libosgEarthAnnotation.so.0:_ZN8osgEarth10Annotation9PlaceNode5dirtyEv
libosgEarthAnnotation.so.0:_ZN8osgEarth10Annotation9PlaceNode7compileEv
libosgEarthAnnotation.so.0:_ZN8osgEarth10Annotation9PlaceNode7setTextERKNSt7__cxx1112basic_stringIcSt11char_traitsIcESaIcEEE
libosgEarthAnnotation.so.0:_ZN8osgEarth10Annotation9PlaceNode8setStyleERKNS_9Symbology5StyleE
libosgEarthAnnotation.so.0:_ZN8osgEarth10Annotation9PlaceNode8setStyleERKNS_9Symbology5StyleEPKN5osgDB7OptionsE
libosgEarthAnnotation.so.0:_ZN8osgEarth10Annotation9PlaceNode9constructEv
libosgEarthAnnotation.so.0:_ZN8osgEarth10Annotation9PlaceNode9setConfigERKNS_6ConfigE
libosgEarthAnnotation.so.0:_ZN8osgEarth10Annotation9PlaceNodeC1ERKNS_6ConfigEPKN5osgDB7OptionsE
libosgEarthAnnotation.so.0:_ZN8osgEarth10Annotation9PlaceNodeC1ERKNS_8GeoPointERKNSt7__cxx1112basic_stringIcSt11char_traitsIcESaIcEEERKNS_9Symbology5StyleEPN3osg5ImageE
libosgEarthAnnotation.so.0:_ZN8osgEarth10Annotation9PlaceNodeC1ERKNSt7__cxx1112basic_stringIcSt11char_traitsIcESaIcEEERKNS_9Symbology5StyleEPN3osg5ImageE
libosgEarthAnnotation.so.0:_ZN8osgEarth10Annotation9PlaceNodeC1Ev
libosgEarthAnnotation.so.0:_ZN8osgEarth10Annotation9PlaceNodeC2ERKNS_6ConfigEPKN5osgDB7OptionsE
libosgEarthAnnotation.so.0:_ZN8osgEarth10Annotation9PlaceNodeC2ERKNS_8GeoPointERKNSt7__cxx1112basic_stringIcSt11char_traitsIcESaIcEEERKNS_9Symbology5StyleEPN3osg5ImageE
libosgEarthAnnotation.so.0:_ZN8osgEarth10Annotation9PlaceNodeC2ERKNSt7__cxx1112basic_stringIcSt11char_traitsIcESaIcEEERKNS_9Symbology5StyleEPN3osg5ImageE
libosgEarthAnnotation.so.0:_ZN8osgEarth10Annotation9PlaceNodeC2Ev
libosgEarthAnnotation.so.0:_ZN8osgEarth10Annotation9TrackNode11addDrawableERKNSt7__cxx1112basic_stringIcSt11char_traitsIcESaIcEEEPN3osg8DrawableE
libosgEarthAnnotation.so.0:_ZN8osgEarth10Annotation9TrackNode11setPriorityEf
libosgEarthAnnotation.so.0:_ZN8osgEarth10Annotation9TrackNode13setFieldValueERKNSt7__cxx1112basic_stringIcSt11char_traitsIcESaIcEEERKN7osgText6StringE
libosgEarthAnnotation.so.0:_ZN8osgEarth10Annotation9TrackNode16updateLayoutDataEv
libosgEarthAnnotation.so.0:_ZN8osgEarth10Annotation9TrackNode7compileEv
libosgEarthAnnotation.so.0:_ZN8osgEarth10Annotation9TrackNode9constructEv
libosgEarthAnnotation.so.0:_ZN8osgEarth10Annotation9TrackNodeC1ERKNS_8GeoPointEPN3osg5ImageERKSt3mapINSt7__cxx1112basic_stringIcSt11char_traitsIcESaIcEEENS0_14TrackNodeFieldESt4lessISE_ESaISt4pairIKSE_SF_EEE
libosgEarthAnnotation.so.0:_ZN8osgEarth10Annotation9TrackNodeC1ERKNS_8GeoPointERKNS_9Symbology5StyleERKSt3mapINSt7__cxx1112basic_stringIcSt11char_traitsIcESaIcEEENS0_14TrackNodeFieldESt4lessISF_ESaISt4pairIKSF_SG_EEE
libosgEarthAnnotation.so.0:_ZN8osgEarth10Annotation9TrackNodeC2ERKNS_8GeoPointEPN3osg5ImageERKSt3mapINSt7__cxx1112basic_stringIcSt11char_traitsIcESaIcEEENS0_14TrackNodeFieldESt4lessISE_ESaISt4pairIKSE_SF_EEE
libosgEarthAnnotation.so.0:_ZN8osgEarth10Annotation9TrackNodeC2ERKNS_8GeoPointERKNS_9Symbology5StyleERKSt3mapINSt7__cxx1112basic_stringIcSt11char_traitsIcESaIcEEENS0_14TrackNodeFieldESt4lessISF_ESaISt4pairIKSF_SG_EEE
libosgEarthAnnotation.so.0:_ZN8osgEarth11Serializers9PlaceNode26wrapper_propfunc_PlaceNodeEPN5osgDB13ObjectWrapperE
libosgEarthAnnotation.so.0:_ZNK8osgEarth10Annotation10CircleNode11getArcStartEv
libosgEarthAnnotation.so.0:_ZNK8osgEarth10Annotation10CircleNode14getNumSegmentsEv
libosgEarthAnnotation.so.0:_ZNK8osgEarth10Annotation10CircleNode6getPieEv
libosgEarthAnnotation.so.0:_ZNK8osgEarth10Annotation10CircleNode9getArcEndEv
libosgEarthAnnotation.so.0:_ZNK8osgEarth10Annotation10CircleNode9getConfigEv
libosgEarthAnnotation.so.0:_ZNK8osgEarth10Annotation10CircleNode9getRadiusEv
libosgEarthAnnotation.so.0:_ZNK8osgEarth10Annotation11EllipseNode11getArcStartEv
libosgEarthAnnotation.so.0:_ZNK8osgEarth10Annotation11EllipseNode14getNumSegmentsEv
libosgEarthAnnotation.so.0:_ZNK8osgEarth10Annotation11EllipseNode14getRadiusMajorEv
libosgEarthAnnotation.so.0:_ZNK8osgEarth10Annotation11EllipseNode14getRadiusMinorEv
libosgEarthAnnotation.so.0:_ZNK8osgEarth10Annotation11EllipseNode16getRotationAngleEv
libosgEarthAnnotation.so.0:_ZNK8osgEarth10Annotation11EllipseNode6getPieEv
libosgEarthAnnotation.so.0:_ZNK8osgEarth10Annotation11EllipseNode9getArcEndEv
libosgEarthAnnotation.so.0:_ZNK8osgEarth10Annotation11EllipseNode9getConfigEv
libosgEarthAnnotation.so.0:_ZNK8osgEarth10Annotation11FeatureNode13getStyleSheetEv
libosgEarthAnnotation.so.0:_ZNK8osgEarth10Annotation11FeatureNode8getStyleEv
libosgEarthAnnotation.so.0:_ZNK8osgEarth10Annotation11FeatureNode9getConfigEv
libosgEarthAnnotation.so.0:_ZNK8osgEarth10Annotation12ImageOverlay12getMagFilterEv
libosgEarthAnnotation.so.0:_ZNK8osgEarth10Annotation12ImageOverlay12getMinFilterEv
libosgEarthAnnotation.so.0:_ZNK8osgEarth10Annotation12ImageOverlay8getAlphaEv
libosgEarthAnnotation.so.0:_ZNK8osgEarth10Annotation12ImageOverlay8getImageEv
libosgEarthAnnotation.so.0:_ZNK8osgEarth10Annotation12ImageOverlay9getBoundsEv
libosgEarthAnnotation.so.0:_ZNK8osgEarth10Annotation12ImageOverlay9getCenterEv
libosgEarthAnnotation.so.0:_ZNK8osgEarth10Annotation12ImageOverlay9getConfigEv
libosgEarthAnnotation.so.0:_ZNK8osgEarth10Annotation12ImageOverlay9getDrapedEv
libosgEarthAnnotation.so.0:_ZNK8osgEarth10Annotation13FeatureEditor12getPickColorEv
libosgEarthAnnotation.so.0:_ZNK8osgEarth10Annotation13FeatureEditor7getSizeEv
libosgEarthAnnotation.so.0:_ZNK8osgEarth10Annotation13FeatureEditor8getColorEv
libosgEarthAnnotation.so.0:_ZNK8osgEarth10Annotation13RectangleNode12getLowerLeftEv
libosgEarthAnnotation.so.0:_ZNK8osgEarth10Annotation13RectangleNode12getUpperLeftEv
libosgEarthAnnotation.so.0:_ZNK8osgEarth10Annotation13RectangleNode13getLowerRightEv
libosgEarthAnnotation.so.0:_ZNK8osgEarth10Annotation13RectangleNode13getUpperRightEv
libosgEarthAnnotation.so.0:_ZNK8osgEarth10Annotation13RectangleNode8getStyleEv
libosgEarthAnnotation.so.0:_ZNK8osgEarth10Annotation13RectangleNode8getWidthEv
libosgEarthAnnotation.so.0:_ZNK8osgEarth10Annotation13RectangleNode9getConfigEv
libosgEarthAnnotation.so.0:_ZNK8osgEarth10Annotation13RectangleNode9getCornerENS1_6CornerE
libosgEarthAnnotation.so.0:_ZNK8osgEarth10Annotation13RectangleNode9getHeightEv
libosgEarthAnnotation.so.0:_ZNK8osgEarth10Annotation13SphereDragger12getPickColorEv
libosgEarthAnnotation.so.0:_ZNK8osgEarth10Annotation13SphereDragger7getSizeEv
libosgEarthAnnotation.so.0:_ZNK8osgEarth10Annotation13SphereDragger8getColorEv
libosgEarthAnnotation.so.0:_ZNK8osgEarth10Annotation14AnnotationData9getConfigEv
libosgEarthAnnotation.so.0:_ZNK8osgEarth10Annotation14AnnotationNode17getHorizonCullingEv
libosgEarthAnnotation.so.0:_ZNK8osgEarth10Annotation15AddPointHandler14getMouseButtonEv
libosgEarthAnnotation.so.0:_ZNK8osgEarth10Annotation15AnnotationLayer7getNodeEv
libosgEarthAnnotation.so.0:_ZNK8osgEarth10Annotation15AnnotationLayer8getGroupEv
libosgEarthAnnotation.so.0:_ZNK8osgEarth10Annotation15GeoPositionNode19getOcclusionCullingEv
libosgEarthAnnotation.so.0:_ZNK8osgEarth10Annotation15GeoPositionNode30getOcclusionCullingMaxAltitudeEv
libosgEarthAnnotation.so.0:_ZNK8osgEarth10Annotation15GeoPositionNode9getConfigEv
libosgEarthAnnotation.so.0:_ZNK8osgEarth10Annotation17LocalGeometryNode9getConfigEv
libosgEarthAnnotation.so.0:_ZNK8osgEarth10Annotation18AnnotationRegistry6createEPNS_7MapNodeERKNS_6ConfigEPKN5osgDB7OptionsERPN3osg5GroupE
libosgEarthAnnotation.so.0:_ZNK8osgEarth10Annotation18AnnotationRegistry9createOneEPNS_7MapNodeERKNS_6ConfigEPKN5osgDB7OptionsE
libosgEarthAnnotation.so.0:_ZNK8osgEarth10Annotation18AnnotationRegistry9getConfigEPN3osg4NodeE
libosgEarthAnnotation.so.0:_ZNK8osgEarth10Annotation7Dragger10getHoveredEv
libosgEarthAnnotation.so.0:_ZNK8osgEarth10Annotation7Dragger11getDraggingEv
libosgEarthAnnotation.so.0:_ZNK8osgEarth10Annotation9LabelNode9getConfigEv
libosgEarthAnnotation.so.0:_ZNK8osgEarth10Annotation9ModelNode9getConfigEv
libosgEarthAnnotation.so.0:_ZNK8osgEarth10Annotation9PlaceNode9getConfigEv
libosgEarthAnnotation.so.0:_ZNK8osgEarth10Annotation9TrackNode11getDrawableERKNSt7__cxx1112basic_stringIcSt11char_traitsIcESaIcEEE
libosgEarthAnnotation.so.0:_ZThn232_N8osgEarth10Annotation11FeatureNode10setMapNodeEPNS_7MapNodeE
libosgEarthAnnotation.so.0:_ZThn232_N8osgEarth10Annotation12ImageOverlay10setMapNodeEPNS_7MapNodeE
libosgEarthAnnotation.so.0:_ZThn232_N8osgEarth10Annotation14AnnotationNode10setMapNodeEPNS_7MapNodeE
libosgEarthAnnotation.so.0:_ZThn232_N8osgEarth10Annotation14AnnotationNodeD0Ev
libosgEarthAnnotation.so.0:_ZThn232_N8osgEarth10Annotation14AnnotationNodeD1Ev
libosgEarthAnnotation.so.0:_ZThn232_N8osgEarth10Annotation15GeoPositionNode10setMapNodeEPNS_7MapNodeE
libosgEarthAnnotation.so.0:_ZThn232_N8osgEarth10Annotation17LocalGeometryNode10setMapNodeEPNS_7MapNodeE
libosgEarthAnnotation.so.0:_ZThn232_N8osgEarth10Annotation7DraggerD0Ev
libosgEarthAnnotation.so.0:_ZThn232_N8osgEarth10Annotation7DraggerD1Ev
libosgEarthAnnotation.so.0:osgdb_annotations
libosgEarthAnnotation.so.0:osgearth_annotation_circle
libosgEarthAnnotation.so.0:osgearth_annotation_ellipse
libosgEarthAnnotation.so.0:osgearth_annotation_feature
libosgEarthAnnotation.so.0:osgearth_annotation_imageoverlay
libosgEarthAnnotation.so.0:osgearth_annotation_label
libosgEarthAnnotation.so.0:osgearth_annotation_local_geometry
libosgEarthAnnotation.so.0:osgearth_annotation_model
libosgEarthAnnotation.so.0:osgearth_annotation_place
libosgEarthAnnotation.so.0:osgearth_annotation_rectangle
libosgEarthAnnotation.so.0:wrapper_serializer_PlaceNode
libosgEarthFeatures.so.0:_Z10IsFieldSetPvi
libosgEarthFeatures.so.0:_Z10decodeLineRKN6mapnik6vector12tile_featureERKN8osgEarth7TileKeyEj
libosgEarthFeatures.so.0:_Z11decodePointRKN6mapnik6vector12tile_featureERKN8osgEarth7TileKeyEj
libosgEarthFeatures.so.0:_Z12tileGeometryPN8osgEarth9Symbology8GeometryEPKNS_16SpatialReferenceEjjRSt6vectorIN3osg7ref_ptrIS1_EESaIS9_EE
libosgEarthFeatures.so.0:_Z13decodePolygonRKN6mapnik6vector12tile_featureERKN8osgEarth7TileKeyEj
libosgEarthFeatures.so.0:_Z14zig_zag_decodei
libosgEarthFeatures.so.0:_Z16downsizeGeometryPN8osgEarth9Symbology8GeometryEPKNS_16SpatialReferenceEjRSt6vectorIN3osg7ref_ptrIS1_EESaIS9_EE
libosgEarthFeatures.so.0:_Z17tesselateGeometryPN3osg8GeometryE
libosgEarthFeatures.so.0:_Z21prepareForTesselationPN8osgEarth9Symbology8GeometryEPKNS_16SpatialReferenceEdjRSt6vectorIN3osg7ref_ptrIS1_EESaIS9_EE
libosgEarthFeatures.so.0:_Z25convertToDrawElementsUIntPN3osg8GeometryE
libosgEarthFeatures.so.0:_ZN6google8protobuf5Arena18CreateMaybeMessageIN6mapnik6vector10tile_layerEJEEEPT_PS1_DpOT0_
libosgEarthFeatures.so.0:_ZN6google8protobuf5Arena18CreateMaybeMessageIN6mapnik6vector10tile_valueEJEEEPT_PS1_DpOT0_
libosgEarthFeatures.so.0:_ZN6google8protobuf5Arena18CreateMaybeMessageIN6mapnik6vector12tile_featureEJEEEPT_PS1_DpOT0_
libosgEarthFeatures.so.0:_ZN6google8protobuf5Arena18CreateMaybeMessageIN6mapnik6vector4tileEJEEEPT_PS1_DpOT0_
libosgEarthFeatures.so.0:_ZN6mapnik6vector10tile_layer12InternalSwapEPS1_
libosgEarthFeatures.so.0:_ZN6mapnik6vector10tile_layer14_InternalParseEPKcPN6google8protobuf8internal12ParseContextE
libosgEarthFeatures.so.0:_ZN6mapnik6vector10tile_layer16default_instanceEv
libosgEarthFeatures.so.0:_ZN6mapnik6vector10tile_layer21CheckTypeAndMergeFromERKN6google8protobuf11MessageLiteE
libosgEarthFeatures.so.0:_ZN6mapnik6vector10tile_layer21InitAsDefaultInstanceEv
libosgEarthFeatures.so.0:_ZN6mapnik6vector10tile_layer5ClearEv
libosgEarthFeatures.so.0:_ZN6mapnik6vector10tile_layer8CopyFromERKS1_
libosgEarthFeatures.so.0:_ZN6mapnik6vector10tile_layer9ArenaDtorEPv
libosgEarthFeatures.so.0:_ZN6mapnik6vector10tile_layer9MergeFromERKS1_
libosgEarthFeatures.so.0:_ZN6mapnik6vector10tile_layerC1EPN6google8protobuf5ArenaE
libosgEarthFeatures.so.0:_ZN6mapnik6vector10tile_layerC1ERKS1_
libosgEarthFeatures.so.0:_ZN6mapnik6vector10tile_layerC2EPN6google8protobuf5ArenaE
libosgEarthFeatures.so.0:_ZN6mapnik6vector10tile_layerC2ERKS1_
libosgEarthFeatures.so.0:_ZN6mapnik6vector10tile_layerD0Ev
libosgEarthFeatures.so.0:_ZN6mapnik6vector10tile_layerD1Ev
libosgEarthFeatures.so.0:_ZN6mapnik6vector10tile_layerD2Ev
libosgEarthFeatures.so.0:_ZN6mapnik6vector10tile_value12InternalSwapEPS1_
libosgEarthFeatures.so.0:_ZN6mapnik6vector10tile_value14_InternalParseEPKcPN6google8protobuf8internal12ParseContextE
libosgEarthFeatures.so.0:_ZN6mapnik6vector10tile_value16default_instanceEv
libosgEarthFeatures.so.0:_ZN6mapnik6vector10tile_value21CheckTypeAndMergeFromERKN6google8protobuf11MessageLiteE
libosgEarthFeatures.so.0:_ZN6mapnik6vector10tile_value21InitAsDefaultInstanceEv
libosgEarthFeatures.so.0:_ZN6mapnik6vector10tile_value5ClearEv
libosgEarthFeatures.so.0:_ZN6mapnik6vector10tile_value8CopyFromERKS1_
libosgEarthFeatures.so.0:_ZN6mapnik6vector10tile_value9ArenaDtorEPv
libosgEarthFeatures.so.0:_ZN6mapnik6vector10tile_value9MergeFromERKS1_
libosgEarthFeatures.so.0:_ZN6mapnik6vector10tile_valueC1EPN6google8protobuf5ArenaE
libosgEarthFeatures.so.0:_ZN6mapnik6vector10tile_valueC1ERKS1_
libosgEarthFeatures.so.0:_ZN6mapnik6vector10tile_valueC2EPN6google8protobuf5ArenaE
libosgEarthFeatures.so.0:_ZN6mapnik6vector10tile_valueC2ERKS1_
libosgEarthFeatures.so.0:_ZN6mapnik6vector10tile_valueD0Ev
libosgEarthFeatures.so.0:_ZN6mapnik6vector10tile_valueD1Ev
libosgEarthFeatures.so.0:_ZN6mapnik6vector10tile_valueD2Ev
libosgEarthFeatures.so.0:_ZN6mapnik6vector12tile_feature12InternalSwapEPS1_
libosgEarthFeatures.so.0:_ZN6mapnik6vector12tile_feature14_InternalParseEPKcPN6google8protobuf8internal12ParseContextE
libosgEarthFeatures.so.0:_ZN6mapnik6vector12tile_feature16default_instanceEv
libosgEarthFeatures.so.0:_ZN6mapnik6vector12tile_feature21CheckTypeAndMergeFromERKN6google8protobuf11MessageLiteE
libosgEarthFeatures.so.0:_ZN6mapnik6vector12tile_feature21InitAsDefaultInstanceEv
libosgEarthFeatures.so.0:_ZN6mapnik6vector12tile_feature5ClearEv
libosgEarthFeatures.so.0:_ZN6mapnik6vector12tile_feature8CopyFromERKS1_
libosgEarthFeatures.so.0:_ZN6mapnik6vector12tile_feature9ArenaDtorEPv
libosgEarthFeatures.so.0:_ZN6mapnik6vector12tile_feature9MergeFromERKS1_
libosgEarthFeatures.so.0:_ZN6mapnik6vector12tile_featureC1EPN6google8protobuf5ArenaE
libosgEarthFeatures.so.0:_ZN6mapnik6vector12tile_featureC1ERKS1_
libosgEarthFeatures.so.0:_ZN6mapnik6vector12tile_featureC2EPN6google8protobuf5ArenaE
libosgEarthFeatures.so.0:_ZN6mapnik6vector12tile_featureC2ERKS1_
libosgEarthFeatures.so.0:_ZN6mapnik6vector12tile_featureD0Ev
libosgEarthFeatures.so.0:_ZN6mapnik6vector12tile_featureD1Ev
libosgEarthFeatures.so.0:_ZN6mapnik6vector12tile_featureD2Ev
libosgEarthFeatures.so.0:_ZN6mapnik6vector18tile_GeomType_NameB5cxx11ENS0_13tile_GeomTypeE
libosgEarthFeatures.so.0:_ZN6mapnik6vector19tile_GeomType_ParseERKNSt7__cxx1112basic_stringIcSt11char_traitsIcESaIcEEEPNS0_13tile_GeomTypeE
libosgEarthFeatures.so.0:_ZN6mapnik6vector21tile_GeomType_IsValidEi
libosgEarthFeatures.so.0:_ZN6mapnik6vector4tile12InternalSwapEPS1_
libosgEarthFeatures.so.0:_ZN6mapnik6vector4tile14_InternalParseEPKcPN6google8protobuf8internal12ParseContextE
libosgEarthFeatures.so.0:_ZN6mapnik6vector4tile16default_instanceEv
libosgEarthFeatures.so.0:_ZN6mapnik6vector4tile21CheckTypeAndMergeFromERKN6google8protobuf11MessageLiteE
libosgEarthFeatures.so.0:_ZN6mapnik6vector4tile21InitAsDefaultInstanceEv
libosgEarthFeatures.so.0:_ZN6mapnik6vector4tile5ClearEv
libosgEarthFeatures.so.0:_ZN6mapnik6vector4tile8CopyFromERKS1_
libosgEarthFeatures.so.0:_ZN6mapnik6vector4tile9ArenaDtorEPv
libosgEarthFeatures.so.0:_ZN6mapnik6vector4tile9MergeFromERKS1_
libosgEarthFeatures.so.0:_ZN6mapnik6vector4tileC1EPN6google8protobuf5ArenaE
libosgEarthFeatures.so.0:_ZN6mapnik6vector4tileC1ERKS1_
libosgEarthFeatures.so.0:_ZN6mapnik6vector4tileC2EPN6google8protobuf5ArenaE
libosgEarthFeatures.so.0:_ZN6mapnik6vector4tileC2ERKS1_
libosgEarthFeatures.so.0:_ZN6mapnik6vector4tileD0Ev
libosgEarthFeatures.so.0:_ZN6mapnik6vector4tileD1Ev
libosgEarthFeatures.so.0:_ZN6mapnik6vector4tileD2Ev
libosgEarthFeatures.so.0:_ZN8OgrUtils10encodePartEPKN8osgEarth9Symbology8GeometryE18OGRwkbGeometryType
libosgEarthFeatures.so.0:_ZN8OgrUtils11encodeShapeEPKN8osgEarth9Symbology8GeometryE18OGRwkbGeometryTypeS5_
libosgEarthFeatures.so.0:_ZN8OgrUtils13createFeatureEPvPKN8osgEarth16SpatialReferenceE
libosgEarthFeatures.so.0:_ZN8OgrUtils13createFeatureEPvPKN8osgEarth8Features14FeatureProfileE
libosgEarthFeatures.so.0:_ZN8OgrUtils13createPolygonEPv
libosgEarthFeatures.so.0:_ZN8OgrUtils14createGeometryEPv
libosgEarthFeatures.so.0:_ZN8OgrUtils16getAttributeTypeE12OGRFieldType
libosgEarthFeatures.so.0:_ZN8OgrUtils17createOgrGeometryEPKN8osgEarth9Symbology8GeometryE18OGRwkbGeometryType
libosgEarthFeatures.so.0:_ZN8OgrUtils18getOGRGeometryTypeEPKN8osgEarth9Symbology8GeometryE
libosgEarthFeatures.so.0:_ZN8OgrUtils18getOGRGeometryTypeERKN8osgEarth9Symbology8Geometry4TypeE
libosgEarthFeatures.so.0:_ZN8OgrUtils8populateEPvPN8osgEarth9Symbology8GeometryEi
libosgEarthFeatures.so.0:_ZN8osgEarth11Serializers27FeatureSourceIndexNodeClass10readFIDMapERN5osgDB11InputStreamERNS_8Features22FeatureSourceIndexNodeE
libosgEarthFeatures.so.0:_ZN8osgEarth11Serializers27FeatureSourceIndexNodeClass11checkFIDMapERKNS_8Features22FeatureSourceIndexNodeE
libosgEarthFeatures.so.0:_ZN8osgEarth11Serializers27FeatureSourceIndexNodeClass11writeFIDMapERN5osgDB12OutputStreamERKNS_8Features22FeatureSourceIndexNodeE
libosgEarthFeatures.so.0:_ZN8osgEarth11Serializers27FeatureSourceIndexNodeClass39wrapper_propfunc_FeatureSourceIndexNodeEPN5osgDB13ObjectWrapperE
libosgEarthFeatures.so.0:_ZN8osgEarth8Features10CropFilter4pushERNSt7__cxx114listIN3osg7ref_ptrINS0_7FeatureEEESaIS7_EEERNS0_13FilterContextE
libosgEarthFeatures.so.0:_ZN8osgEarth8Features10CropFilterC1ENS1_6MethodE
libosgEarthFeatures.so.0:_ZN8osgEarth8Features10CropFilterC2ENS1_6MethodE
libosgEarthFeatures.so.0:_ZN8osgEarth8Features11LabelSourceD0Ev
libosgEarthFeatures.so.0:_ZN8osgEarth8Features11LabelSourceD1Ev
libosgEarthFeatures.so.0:_ZN8osgEarth8Features11LabelSourceD2Ev
libosgEarthFeatures.so.0:_ZN8osgEarth8Features11ScaleFilter4pushERNSt7__cxx114listIN3osg7ref_ptrINS0_7FeatureEEESaIS7_EEERNS0_13FilterContextE
libosgEarthFeatures.so.0:_ZN8osgEarth8Features11ScaleFilterC1Ed
libosgEarthFeatures.so.0:_ZN8osgEarth8Features11ScaleFilterC1Ev
libosgEarthFeatures.so.0:_ZN8osgEarth8Features11ScaleFilterC2Ed
libosgEarthFeatures.so.0:_ZN8osgEarth8Features11ScaleFilterC2Ev
libosgEarthFeatures.so.0:_ZN8osgEarth8Features12BufferFilter11isSupportedEv
libosgEarthFeatures.so.0:_ZN8osgEarth8Features12BufferFilter4pushERNSt7__cxx114listIN3osg7ref_ptrINS0_7FeatureEEESaIS7_EEERNS0_13FilterContextE
libosgEarthFeatures.so.0:_ZN8osgEarth8Features12BufferFilterC1ERKNS_6ConfigE
libosgEarthFeatures.so.0:_ZN8osgEarth8Features12BufferFilterC1ERKS1_
libosgEarthFeatures.so.0:_ZN8osgEarth8Features12BufferFilterC1Ev
libosgEarthFeatures.so.0:_ZN8osgEarth8Features12BufferFilterC2ERKNS_6ConfigE
libosgEarthFeatures.so.0:_ZN8osgEarth8Features12BufferFilterC2ERKS1_
libosgEarthFeatures.so.0:_ZN8osgEarth8Features12BufferFilterC2Ev
libosgEarthFeatures.so.0:_ZN8osgEarth8Features12FeatureLevel10fromConfigERKNS_6ConfigE
libosgEarthFeatures.so.0:_ZN8osgEarth8Features12FeatureLevelC1ERKNS_6ConfigE
libosgEarthFeatures.so.0:_ZN8osgEarth8Features12FeatureLevelC1Eff
libosgEarthFeatures.so.0:_ZN8osgEarth8Features12FeatureLevelC1EffRKNSt7__cxx1112basic_stringIcSt11char_traitsIcESaIcEEE
libosgEarthFeatures.so.0:_ZN8osgEarth8Features12FeatureLevelC2ERKNS_6ConfigE
libosgEarthFeatures.so.0:_ZN8osgEarth8Features12FeatureLevelC2Eff
libosgEarthFeatures.so.0:_ZN8osgEarth8Features12FeatureLevelC2EffRKNSt7__cxx1112basic_stringIcSt11char_traitsIcESaIcEEE
libosgEarthFeatures.so.0:_ZN8osgEarth8Features12ScriptFilter11isSupportedEv
libosgEarthFeatures.so.0:_ZN8osgEarth8Features12ScriptFilter4ctorEv
libosgEarthFeatures.so.0:_ZN8osgEarth8Features12ScriptFilter4pushEPNS0_7FeatureERNS0_13FilterContextE
libosgEarthFeatures.so.0:_ZN8osgEarth8Features12ScriptFilter4pushERNSt7__cxx114listIN3osg7ref_ptrINS0_7FeatureEEESaIS7_EEERNS0_13FilterContextE
libosgEarthFeatures.so.0:_ZN8osgEarth8Features12ScriptFilterC1ERKNS_6ConfigE
libosgEarthFeatures.so.0:_ZN8osgEarth8Features12ScriptFilterC1Ev
libosgEarthFeatures.so.0:_ZN8osgEarth8Features12ScriptFilterC2ERKNS_6ConfigE
libosgEarthFeatures.so.0:_ZN8osgEarth8Features12ScriptFilterC2Ev
libosgEarthFeatures.so.0:_ZN8osgEarth8Features13FeatureCursor4fillERNSt7__cxx114listIN3osg7ref_ptrINS0_7FeatureEEESaIS7_EEE
libosgEarthFeatures.so.0:_ZN8osgEarth8Features13FeatureCursorC1EPNS_16ProgressCallbackE
libosgEarthFeatures.so.0:_ZN8osgEarth8Features13FeatureCursorC2EPNS_16ProgressCallbackE
libosgEarthFeatures.so.0:_ZN8osgEarth8Features13FeatureCursorD0Ev
libosgEarthFeatures.so.0:_ZN8osgEarth8Features13FeatureCursorD1Ev
libosgEarthFeatures.so.0:_ZN8osgEarth8Features13FeatureCursorD2Ev
libosgEarthFeatures.so.0:_ZN8osgEarth8Features13FeatureFilterD0Ev
libosgEarthFeatures.so.0:_ZN8osgEarth8Features13FeatureFilterD1Ev
libosgEarthFeatures.so.0:_ZN8osgEarth8Features13FeatureFilterD2Ev
libosgEarthFeatures.so.0:_ZN8osgEarth8Features13FeatureSource14addToBlacklistEm
libosgEarthFeatures.so.0:_ZN8osgEarth8Features13FeatureSource14clearBlacklistEv
libosgEarthFeatures.so.0:_ZN8osgEarth8Features13FeatureSource14setReadOptionsEPKN5osgDB7OptionsE
libosgEarthFeatures.so.0:_ZN8osgEarth8Features13FeatureSource17setFeatureProfileEPKNS0_14FeatureProfileE
libosgEarthFeatures.so.0:_ZN8osgEarth8Features13FeatureSource19createFeatureCursorEPNS_16ProgressCallbackE
libosgEarthFeatures.so.0:_ZN8osgEarth8Features13FeatureSource19removeFromBlacklistEm
libosgEarthFeatures.so.0:_ZN8osgEarth8Features13FeatureSource4openEPKN5osgDB7OptionsE
libosgEarthFeatures.so.0:_ZN8osgEarth8Features13FeatureSource4openEv
libosgEarthFeatures.so.0:_ZN8osgEarth8Features13FeatureSource6createEPKNS0_14FeatureProfileERKSt3mapINSt7__cxx1112basic_stringIcSt11char_traitsIcESaIcEEENS0_13AttributeTypeESt4lessISB_ESaISt4pairIKSB_SC_EEERKNS_9Symbology8Geometry4TypeEPKN5osgDB7OptionsE
libosgEarthFeatures.so.0:_ZN8osgEarth8Features13FeatureSourceC1ERKNS_13ConfigOptionsE
libosgEarthFeatures.so.0:_ZN8osgEarth8Features13FeatureSourceC1Ev
libosgEarthFeatures.so.0:_ZN8osgEarth8Features13FeatureSourceC2ERKNS_13ConfigOptionsE
libosgEarthFeatures.so.0:_ZN8osgEarth8Features13FeatureSourceC2Ev
libosgEarthFeatures.so.0:_ZN8osgEarth8Features13FeatureSourceD0Ev
libosgEarthFeatures.so.0:_ZN8osgEarth8Features13FeatureSourceD1Ev
libosgEarthFeatures.so.0:_ZN8osgEarth8Features13FeatureSourceD2Ev
libosgEarthFeatures.so.0:_ZN8osgEarth8Features13FilterContext10getSessionEv
libosgEarthFeatures.so.0:_ZN8osgEarth8Features13FilterContext10setProfileEPKNS0_14FeatureProfileE
libosgEarthFeatures.so.0:_ZN8osgEarth8Features13FilterContext13resourceCacheEv
libosgEarthFeatures.so.0:_ZN8osgEarth8Features13FilterContextC1EPNS0_7SessionEPKNS0_14FeatureProfileERKNS_9GeoExtentEPNS0_19FeatureIndexBuilderE
libosgEarthFeatures.so.0:_ZN8osgEarth8Features13FilterContextC1ERKS1_
libosgEarthFeatures.so.0:_ZN8osgEarth8Features13FilterContextC1Ev
libosgEarthFeatures.so.0:_ZN8osgEarth8Features13FilterContextC2EPNS0_7SessionEPKNS0_14FeatureProfileERKNS_9GeoExtentEPNS0_19FeatureIndexBuilderE
libosgEarthFeatures.so.0:_ZN8osgEarth8Features13FilterContextC2ERKS1_
libosgEarthFeatures.so.0:_ZN8osgEarth8Features13FilterContextC2Ev
libosgEarthFeatures.so.0:_ZN8osgEarth8Features13FilterContextD1Ev
libosgEarthFeatures.so.0:_ZN8osgEarth8Features13FilterContextD2Ev
libosgEarthFeatures.so.0:_ZN8osgEarth8Features13GeometryUtils13geometryToGMLB5cxx11EPKNS_9Symbology8GeometryE
libosgEarthFeatures.so.0:_ZN8osgEarth8Features13GeometryUtils13geometryToKMLB5cxx11EPKNS_9Symbology8GeometryE
libosgEarthFeatures.so.0:_ZN8osgEarth8Features13GeometryUtils13geometryToWKTB5cxx11EPKNS_9Symbology8GeometryE
libosgEarthFeatures.so.0:_ZN8osgEarth8Features13GeometryUtils15geometryFromWKTERKNSt7__cxx1112basic_stringIcSt11char_traitsIcESaIcEEE
libosgEarthFeatures.so.0:_ZN8osgEarth8Features13GeometryUtils15getGeometryAreaEPKNS_9Symbology8GeometryE
libosgEarthFeatures.so.0:_ZN8osgEarth8Features13GeometryUtils17geometryToGeoJSONB5cxx11EPKNS_9Symbology8GeometryE
libosgEarthFeatures.so.0:_ZN8osgEarth8Features13GeometryUtils19geometryFromGeoJSONERKNSt7__cxx1112basic_stringIcSt11char_traitsIcESaIcEEE
libosgEarthFeatures.so.0:_ZN8osgEarth8Features13ScatterFilter11lineScatterEPKNS_9Symbology8GeometryEPKNS_16SpatialReferenceERKNS0_13FilterContextEPNS2_8PointSetE
libosgEarthFeatures.so.0:_ZN8osgEarth8Features13ScatterFilter11polyScatterEPKNS_9Symbology8GeometryEPKNS_16SpatialReferenceERKNS0_13FilterContextEPNS2_8PointSetE
libosgEarthFeatures.so.0:_ZN8osgEarth8Features13ScatterFilter4pushERNSt7__cxx114listIN3osg7ref_ptrINS0_7FeatureEEESaIS7_EEERNS0_13FilterContextE
libosgEarthFeatures.so.0:_ZN8osgEarth8Features13ScatterFilterC1Ev
libosgEarthFeatures.so.0:_ZN8osgEarth8Features13ScatterFilterC2Ev
libosgEarthFeatures.so.0:_ZN8osgEarth8Features14AltitudeFilter12pushAndClampERNSt7__cxx114listIN3osg7ref_ptrINS0_7FeatureEEESaIS7_EEERNS0_13FilterContextE
libosgEarthFeatures.so.0:_ZN8osgEarth8Features14AltitudeFilter16pushAndDontClampERNSt7__cxx114listIN3osg7ref_ptrINS0_7FeatureEEESaIS7_EEERNS0_13FilterContextE
libosgEarthFeatures.so.0:_ZN8osgEarth8Features14AltitudeFilter22setPropertiesFromStyleERKNS_9Symbology5StyleE
libosgEarthFeatures.so.0:_ZN8osgEarth8Features14AltitudeFilter4pushERNSt7__cxx114listIN3osg7ref_ptrINS0_7FeatureEEESaIS7_EEERNS0_13FilterContextE
libosgEarthFeatures.so.0:_ZN8osgEarth8Features14AltitudeFilterC1Ev
libosgEarthFeatures.so.0:_ZN8osgEarth8Features14AltitudeFilterC2Ev
libosgEarthFeatures.so.0:_ZN8osgEarth8Features14CentroidFilter4pushERNSt7__cxx114listIN3osg7ref_ptrINS0_7FeatureEEESaIS7_EEERNS0_13FilterContextE
libosgEarthFeatures.so.0:_ZN8osgEarth8Features14CentroidFilterC1Ev
libosgEarthFeatures.so.0:_ZN8osgEarth8Features14CentroidFilterC2Ev
libosgEarthFeatures.so.0:_ZN8osgEarth8Features14FeatureProfile10setProfileEPKNS_7ProfileE
libosgEarthFeatures.so.0:_ZN8osgEarth8Features14FeatureProfile11setMaxLevelEi
libosgEarthFeatures.so.0:_ZN8osgEarth8Features14FeatureProfile13setFirstLevelEi
libosgEarthFeatures.so.0:_ZN8osgEarth8Features14FeatureProfile8setTiledEb
libosgEarthFeatures.so.0:_ZN8osgEarth8Features14FeatureProfileC1ERKNS_9GeoExtentE
libosgEarthFeatures.so.0:_ZN8osgEarth8Features14FeatureProfileC2ERKNS_9GeoExtentE
libosgEarthFeatures.so.0:_ZN8osgEarth8Features14ResampleFilter11isSupportedEv
libosgEarthFeatures.so.0:_ZN8osgEarth8Features14ResampleFilter4pushEPNS0_7FeatureERNS0_13FilterContextE
libosgEarthFeatures.so.0:_ZN8osgEarth8Features14ResampleFilter4pushERNSt7__cxx114listIN3osg7ref_ptrINS0_7FeatureEEESaIS7_EEERNS0_13FilterContextE
libosgEarthFeatures.so.0:_ZN8osgEarth8Features14ResampleFilterC1ERKNS_6ConfigE
libosgEarthFeatures.so.0:_ZN8osgEarth8Features14ResampleFilterC1Edd
libosgEarthFeatures.so.0:_ZN8osgEarth8Features14ResampleFilterC1Ev
libosgEarthFeatures.so.0:_ZN8osgEarth8Features14ResampleFilterC2ERKNS_6ConfigE
libosgEarthFeatures.so.0:_ZN8osgEarth8Features14ResampleFilterC2Edd
libosgEarthFeatures.so.0:_ZN8osgEarth8Features14ResampleFilterC2Ev
libosgEarthFeatures.so.0:_ZN8osgEarth8Features14TextSymbolizerC1EPKNS_9Symbology10TextSymbolE
libosgEarthFeatures.so.0:_ZN8osgEarth8Features14TextSymbolizerC2EPKNS_9Symbology10TextSymbolE
libosgEarthFeatures.so.0:_ZN8osgEarth8Features15BuildTextFilter4pushERNSt7__cxx114listIN3osg7ref_ptrINS0_7FeatureEEESaIS7_EEERNS0_13FilterContextE
libosgEarthFeatures.so.0:_ZN8osgEarth8Features15BuildTextFilterC1ERKNS_9Symbology5StyleE
libosgEarthFeatures.so.0:_ZN8osgEarth8Features15BuildTextFilterC2ERKNS_9Symbology5StyleE
libosgEarthFeatures.so.0:_ZN8osgEarth8Features15TransformFilter4pushEPNS0_7FeatureERNS0_13FilterContextE
libosgEarthFeatures.so.0:_ZN8osgEarth8Features15TransformFilter4pushERNSt7__cxx114listIN3osg7ref_ptrINS0_7FeatureEEESaIS7_EEERNS0_13FilterContextE
libosgEarthFeatures.so.0:_ZN8osgEarth8Features15TransformFilterC1EPKNS_16SpatialReferenceE
libosgEarthFeatures.so.0:_ZN8osgEarth8Features15TransformFilterC1ERKN3osg7MatrixdE
libosgEarthFeatures.so.0:_ZN8osgEarth8Features15TransformFilterC1Ev
libosgEarthFeatures.so.0:_ZN8osgEarth8Features15TransformFilterC2EPKNS_16SpatialReferenceE
libosgEarthFeatures.so.0:_ZN8osgEarth8Features15TransformFilterC2ERKN3osg7MatrixdE
libosgEarthFeatures.so.0:_ZN8osgEarth8Features15TransformFilterC2Ev
libosgEarthFeatures.so.0:_ZN8osgEarth8Features16FeatureMaskLayer10addedToMapEPKNS_3MapE
libosgEarthFeatures.so.0:_ZN8osgEarth8Features16FeatureMaskLayer14removedFromMapEPKNS_3MapE
libosgEarthFeatures.so.0:_ZN8osgEarth8Features16FeatureMaskLayer16setFeatureSourceEPNS0_13FeatureSourceE
libosgEarthFeatures.so.0:_ZN8osgEarth8Features16FeatureMaskLayer21setFeatureSourceLayerEPNS0_18FeatureSourceLayerE
libosgEarthFeatures.so.0:_ZN8osgEarth8Features16FeatureMaskLayer23getOrCreateMaskBoundaryEfPKNS_16SpatialReferenceEPNS_16ProgressCallbackE
libosgEarthFeatures.so.0:_ZN8osgEarth8Features16FeatureMaskLayer4openEv
libosgEarthFeatures.so.0:_ZN8osgEarth8Features16FeatureMaskLayer6createEv
libosgEarthFeatures.so.0:_ZN8osgEarth8Features16FeatureMaskLayerC1EPNS0_23FeatureMaskLayerOptionsE
libosgEarthFeatures.so.0:_ZN8osgEarth8Features16FeatureMaskLayerC1ERKNS0_23FeatureMaskLayerOptionsE
libosgEarthFeatures.so.0:_ZN8osgEarth8Features16FeatureMaskLayerC2EPNS0_23FeatureMaskLayerOptionsE
libosgEarthFeatures.so.0:_ZN8osgEarth8Features16FeatureMaskLayerC2ERKNS0_23FeatureMaskLayerOptionsE
libosgEarthFeatures.so.0:_ZN8osgEarth8Features16FeatureMaskLayerD0Ev
libosgEarthFeatures.so.0:_ZN8osgEarth8Features16FeatureMaskLayerD1Ev
libosgEarthFeatures.so.0:_ZN8osgEarth8Features16FeatureMaskLayerD2Ev
libosgEarthFeatures.so.0:_ZN8osgEarth8Features16GeometryCompiler7compileEPNS0_13FeatureCursorERKNS_9Symbology5StyleERKNS0_13FilterContextE
libosgEarthFeatures.so.0:_ZN8osgEarth8Features16GeometryCompiler7compileEPNS0_7FeatureERKNS0_13FilterContextE
libosgEarthFeatures.so.0:_ZN8osgEarth8Features16GeometryCompiler7compileEPNS0_7FeatureERKNS_9Symbology5StyleERKNS0_13FilterContextE
libosgEarthFeatures.so.0:_ZN8osgEarth8Features16GeometryCompiler7compileEPNS_9Symbology8GeometryERKNS0_13FilterContextE
libosgEarthFeatures.so.0:_ZN8osgEarth8Features16GeometryCompiler7compileEPNS_9Symbology8GeometryERKNS2_5StyleE
libosgEarthFeatures.so.0:_ZN8osgEarth8Features16GeometryCompiler7compileEPNS_9Symbology8GeometryERKNS2_5StyleERKNS0_13FilterContextE
libosgEarthFeatures.so.0:_ZN8osgEarth8Features16GeometryCompiler7compileERNSt7__cxx114listIN3osg7ref_ptrINS0_7FeatureEEESaIS7_EEERKNS_9Symbology5StyleERKNS0_13FilterContextE
libosgEarthFeatures.so.0:_ZN8osgEarth8Features16GeometryCompilerC1ERKNS0_23GeometryCompilerOptionsE
libosgEarthFeatures.so.0:_ZN8osgEarth8Features16GeometryCompilerC1Ev
libosgEarthFeatures.so.0:_ZN8osgEarth8Features16GeometryCompilerC2ERKNS0_23GeometryCompilerOptionsE
libosgEarthFeatures.so.0:_ZN8osgEarth8Features16GeometryCompilerC2Ev
libosgEarthFeatures.so.0:_ZN8osgEarth8Features17ConvertTypeFilter4pushERNSt7__cxx114listIN3osg7ref_ptrINS0_7FeatureEEESaIS7_EEERNS0_13FilterContextE
libosgEarthFeatures.so.0:_ZN8osgEarth8Features17ConvertTypeFilterC1ERKNS_6ConfigE
libosgEarthFeatures.so.0:_ZN8osgEarth8Features17ConvertTypeFilterC1ERKNS_9Symbology8Geometry4TypeE
libosgEarthFeatures.so.0:_ZN8osgEarth8Features17ConvertTypeFilterC1ERKS1_
libosgEarthFeatures.so.0:_ZN8osgEarth8Features17ConvertTypeFilterC1Ev
libosgEarthFeatures.so.0:_ZN8osgEarth8Features17ConvertTypeFilterC2ERKNS_6ConfigE
libosgEarthFeatures.so.0:_ZN8osgEarth8Features17ConvertTypeFilterC2ERKNS_9Symbology8Geometry4TypeE
libosgEarthFeatures.so.0:_ZN8osgEarth8Features17ConvertTypeFilterC2ERKS1_
libosgEarthFeatures.so.0:_ZN8osgEarth8Features17ConvertTypeFilterC2Ev
libosgEarthFeatures.so.0:_ZN8osgEarth8Features17FeatureListCursor11nextFeatureEv
libosgEarthFeatures.so.0:_ZN8osgEarth8Features17FeatureListCursorC1ERKNSt7__cxx114listIN3osg7ref_ptrINS0_7FeatureEEESaIS7_EEE
libosgEarthFeatures.so.0:_ZN8osgEarth8Features17FeatureListCursorC2ERKNSt7__cxx114listIN3osg7ref_ptrINS0_7FeatureEEESaIS7_EEE
libosgEarthFeatures.so.0:_ZN8osgEarth8Features17FeatureListCursorD0Ev
libosgEarthFeatures.so.0:_ZN8osgEarth8Features17FeatureListCursorD1Ev
libosgEarthFeatures.so.0:_ZN8osgEarth8Features17FeatureListCursorD2Ev
libosgEarthFeatures.so.0:_ZN8osgEarth8Features17FeatureListSource10getFeatureEm
libosgEarthFeatures.so.0:_ZN8osgEarth8Features17FeatureListSource13deleteFeatureEm
libosgEarthFeatures.so.0:_ZN8osgEarth8Features17FeatureListSource13insertFeatureEPNS0_7FeatureE
libosgEarthFeatures.so.0:_ZN8osgEarth8Features17FeatureListSource19createFeatureCursorERKNS_9Symbology5QueryEPNS_16ProgressCallbackE
libosgEarthFeatures.so.0:_ZN8osgEarth8Features17FeatureListSource20createFeatureProfileEv
libosgEarthFeatures.so.0:_ZN8osgEarth8Features17FeatureListSourceC1ERKNS_9GeoExtentE
libosgEarthFeatures.so.0:_ZN8osgEarth8Features17FeatureListSourceC1Ev
libosgEarthFeatures.so.0:_ZN8osgEarth8Features17FeatureListSourceC2ERKNS_9GeoExtentE
libosgEarthFeatures.so.0:_ZN8osgEarth8Features17FeatureListSourceC2Ev
libosgEarthFeatures.so.0:_ZN8osgEarth8Features17FeatureModelGraph10getSessionEv
libosgEarthFeatures.so.0:_ZN8osgEarth8Features17FeatureModelGraph11setupPagingEv
libosgEarthFeatures.so.0:_ZN8osgEarth8Features17FeatureModelGraph16buildStyleGroupsEPKNS_9Symbology13StyleSelectorERKNS2_5QueryEPNS0_19FeatureIndexBuilderEPN3osg5GroupEPKN5osgDB7OptionsEPNS_16ProgressCallbackE
libosgEarthFeatures.so.0:_ZN8osgEarth8Features17FeatureModelGraph16createStyleGroupERKNS_9Symbology5StyleERKNS2_5QueryEPNS0_19FeatureIndexBuilderEPKN5osgDB7OptionsEPNS_16ProgressCallbackE
libosgEarthFeatures.so.0:_ZN8osgEarth8Features17FeatureModelGraph16createStyleGroupERKNS_9Symbology5StyleERNSt7__cxx114listIN3osg7ref_ptrINS0_7FeatureEEESaISB_EEERKNS0_13FilterContextEPKN5osgDB7OptionsE
libosgEarthFeatures.so.0:_ZN8osgEarth8Features17FeatureModelGraph16writeTileToCacheERKNSt7__cxx1112basic_stringIcSt11char_traitsIcESaIcEEEPN3osg5GroupEPKN5osgDB7OptionsE
libosgEarthFeatures.so.0:_ZN8osgEarth8Features17FeatureModelGraph17readTileFromCacheERKNSt7__cxx1112basic_stringIcSt11char_traitsIcESaIcEEEPKN5osgDB7OptionsE
libosgEarthFeatures.so.0:_ZN8osgEarth8Features17FeatureModelGraph18createOrUpdateNodeEPNS0_13FeatureCursorERKNS_9Symbology5StyleERNS0_13FilterContextEPKN5osgDB7OptionsERN3osg7ref_ptrINSE_4NodeEEE
libosgEarthFeatures.so.0:_ZN8osgEarth8Features17FeatureModelGraph20applyRenderSymbologyERKNS_9Symbology5StyleEPN3osg4NodeE
libosgEarthFeatures.so.0:_ZN8osgEarth8Features17FeatureModelGraph21buildSubTilePagedLODsEjjjPN3osg5GroupEPKN5osgDB7OptionsE
libosgEarthFeatures.so.0:_ZN8osgEarth8Features17FeatureModelGraph21runPreMergeOperationsEPN3osg4NodeE
libosgEarthFeatures.so.0:_ZN8osgEarth8Features17FeatureModelGraph22runPostMergeOperationsEPN3osg4NodeE
libosgEarthFeatures.so.0:_ZN8osgEarth8Features17FeatureModelGraph22setSceneGraphCallbacksEPNS_19SceneGraphCallbacksE
libosgEarthFeatures.so.0:_ZN8osgEarth8Features17FeatureModelGraph27queryAndSortIntoStyleGroupsERKNS_9Symbology5QueryERKNS2_16StringExpressionEPNS0_19FeatureIndexBuilderEPN3osg5GroupEPKN5osgDB7OptionsEPNS_16ProgressCallbackE
libosgEarthFeatures.so.0:_ZN8osgEarth8Features17FeatureModelGraph32getOrCreateStyleGroupFromFactoryERKNS_9Symbology5StyleE
libosgEarthFeatures.so.0:_ZN8osgEarth8Features17FeatureModelGraph4ctorEv
libosgEarthFeatures.so.0:_ZN8osgEarth8Features17FeatureModelGraph4loadEjjjRKNSt7__cxx1112basic_stringIcSt11char_traitsIcESaIcEEEPKN5osgDB7OptionsE
libosgEarthFeatures.so.0:_ZN8osgEarth8Features17FeatureModelGraph5buildERKNS_9Symbology5StyleERKNS2_5QueryERKNS_9GeoExtentEPNS0_19FeatureIndexBuilderEPKN5osgDB7OptionsEPNS_16ProgressCallbackE
libosgEarthFeatures.so.0:_ZN8osgEarth8Features17FeatureModelGraph5dirtyEv
libosgEarthFeatures.so.0:_ZN8osgEarth8Features17FeatureModelGraph6redrawEv
libosgEarthFeatures.so.0:_ZN8osgEarth8Features17FeatureModelGraph8traverseERN3osg11NodeVisitorE
libosgEarthFeatures.so.0:_ZN8osgEarth8Features17FeatureModelGraph9buildTileERKNS0_12FeatureLevelERKNS_9GeoExtentEPKNS_7TileKeyEPKN5osgDB7OptionsE
libosgEarthFeatures.so.0:_ZN8osgEarth8Features17FeatureModelGraph9setStylesEPNS_9Symbology10StyleSheetE
libosgEarthFeatures.so.0:_ZN8osgEarth8Features17FeatureModelGraphC1EPNS0_7SessionERKNS0_25FeatureModelSourceOptionsEPNS0_18FeatureNodeFactoryEPNS_11ModelSourceEPNS_19SceneGraphCallbacksE
libosgEarthFeatures.so.0:_ZN8osgEarth8Features17FeatureModelGraphC1EPNS0_7SessionERKNS0_25FeatureModelSourceOptionsEPNS0_18FeatureNodeFactoryEPNS_19SceneGraphCallbacksE
libosgEarthFeatures.so.0:_ZN8osgEarth8Features17FeatureModelGraphC2EPNS0_7SessionERKNS0_25FeatureModelSourceOptionsEPNS0_18FeatureNodeFactoryEPNS_11ModelSourceEPNS_19SceneGraphCallbacksE
libosgEarthFeatures.so.0:_ZN8osgEarth8Features17FeatureModelGraphC2EPNS0_7SessionERKNS0_25FeatureModelSourceOptionsEPNS0_18FeatureNodeFactoryEPNS_19SceneGraphCallbacksE
libosgEarthFeatures.so.0:_ZN8osgEarth8Features17FeatureModelGraphD0Ev
libosgEarthFeatures.so.0:_ZN8osgEarth8Features17FeatureModelGraphD1Ev
libosgEarthFeatures.so.0:_ZN8osgEarth8Features17FeatureModelGraphD2Ev
libosgEarthFeatures.so.0:_ZN8osgEarth8Features17FeatureModelLayer10addedToMapEPKNS_3MapE
libosgEarthFeatures.so.0:_ZN8osgEarth8Features17FeatureModelLayer14removedFromMapEPKNS_3MapE
libosgEarthFeatures.so.0:_ZN8osgEarth8Features17FeatureModelLayer16setFeatureSourceEPNS0_13FeatureSourceE
libosgEarthFeatures.so.0:_ZN8osgEarth8Features17FeatureModelLayer21setFeatureSourceLayerEPNS0_18FeatureSourceLayerE
libosgEarthFeatures.so.0:_ZN8osgEarth8Features17FeatureModelLayer24createFeatureNodeFactoryEv
libosgEarthFeatures.so.0:_ZN8osgEarth8Features17FeatureModelLayer27setFeatureModelLayerOptionsERKNS0_24FeatureModelLayerOptionsE
libosgEarthFeatures.so.0:_ZN8osgEarth8Features17FeatureModelLayer35setCreateFeatureNodeFactoryCallbackEPNS1_32CreateFeatureNodeFactoryCallbackE
libosgEarthFeatures.so.0:_ZN8osgEarth8Features17FeatureModelLayer4initEv
libosgEarthFeatures.so.0:_ZN8osgEarth8Features17FeatureModelLayer4openEv
libosgEarthFeatures.so.0:_ZN8osgEarth8Features17FeatureModelLayer5dirtyEv
libosgEarthFeatures.so.0:_ZN8osgEarth8Features17FeatureModelLayer6createEv
libosgEarthFeatures.so.0:_ZN8osgEarth8Features17FeatureModelLayerC1ERKNS0_24FeatureModelLayerOptionsE
libosgEarthFeatures.so.0:_ZN8osgEarth8Features17FeatureModelLayerC1Ev
libosgEarthFeatures.so.0:_ZN8osgEarth8Features17FeatureModelLayerC2ERKNS0_24FeatureModelLayerOptionsE
libosgEarthFeatures.so.0:_ZN8osgEarth8Features17FeatureModelLayerC2Ev
libosgEarthFeatures.so.0:_ZN8osgEarth8Features17FeatureModelLayerD0Ev
libosgEarthFeatures.so.0:_ZN8osgEarth8Features17FeatureModelLayerD1Ev
libosgEarthFeatures.so.0:_ZN8osgEarth8Features17FeatureModelLayerD2Ev
libosgEarthFeatures.so.0:_ZN8osgEarth8Features17FeatureTileSource10initializeEPKN5osgDB7OptionsE
libosgEarthFeatures.so.0:_ZN8osgEarth8Features17FeatureTileSource11createImageERKNS_7TileKeyEPNS_16ProgressCallbackE
libosgEarthFeatures.so.0:_ZN8osgEarth8Features17FeatureTileSource11getFeaturesERKNS_9Symbology5QueryERKNS_9GeoExtentERNSt7__cxx114listIN3osg7ref_ptrINS0_7FeatureEEESaISE_EEEPNS_16ProgressCallbackE
libosgEarthFeatures.so.0:_ZN8osgEarth8Features17FeatureTileSource16setFeatureSourceEPNS0_13FeatureSourceE
libosgEarthFeatures.so.0:_ZN8osgEarth8Features17FeatureTileSource30queryAndRenderFeaturesForStyleERKNS_9Symbology5StyleERKNS2_5QueryEPN3osg10ReferencedERKNS_9GeoExtentEPNS9_5ImageEPNS_16ProgressCallbackE
libosgEarthFeatures.so.0:_ZN8osgEarth8Features17FeatureTileSourceC1ERKNS_17TileSourceOptionsE
libosgEarthFeatures.so.0:_ZN8osgEarth8Features17FeatureTileSourceC2ERKNS_17TileSourceOptionsE
libosgEarthFeatures.so.0:_ZN8osgEarth8Features18FeatureModelSource10initializeEPKN5osgDB7OptionsE
libosgEarthFeatures.so.0:_ZN8osgEarth8Features18FeatureModelSource14setReadOptionsEPKN5osgDB7OptionsE
libosgEarthFeatures.so.0:_ZN8osgEarth8Features18FeatureModelSource16setFeatureSourceEPNS0_13FeatureSourceE
libosgEarthFeatures.so.0:_ZN8osgEarth8Features18FeatureModelSource24createNodeImplementationEPKNS_3MapEPNS_16ProgressCallbackE
libosgEarthFeatures.so.0:_ZN8osgEarth8Features18FeatureModelSourceC1ERKNS0_25FeatureModelSourceOptionsE
libosgEarthFeatures.so.0:_ZN8osgEarth8Features18FeatureModelSourceC2ERKNS0_25FeatureModelSourceOptionsE
libosgEarthFeatures.so.0:_ZN8osgEarth8Features18FeatureNodeFactory21getOrCreateStyleGroupERKNS_9Symbology5StyleEPNS0_7SessionE
libosgEarthFeatures.so.0:_ZN8osgEarth8Features18FeatureSourceIndex11tagDrawableEPN3osg8DrawableEPNS0_7FeatureE
libosgEarthFeatures.so.0:_ZN8osgEarth8Features18FeatureSourceIndex15tagAllDrawablesEPN3osg4NodeEPNS0_7FeatureE
libosgEarthFeatures.so.0:_ZN8osgEarth8Features18FeatureSourceIndex6updateEPN3osg4NodeERSt3mapIjjSt4lessIjESaISt4pairIKjjEEERKS5_ImNS2_7ref_ptrINS0_9RefIDPairEEES6_ImESaIS8_IKmSG_EEERSL_
libosgEarthFeatures.so.0:_ZN8osgEarth8Features18FeatureSourceIndex6updateEPN3osg8DrawableERSt3mapIjjSt4lessIjESaISt4pairIKjjEEERKS5_ImNS2_7ref_ptrINS0_9RefIDPairEEES6_ImESaIS8_IKmSG_EEERSL_
libosgEarthFeatures.so.0:_ZN8osgEarth8Features18FeatureSourceIndex7tagNodeEPN3osg4NodeEPNS0_7FeatureE
libosgEarthFeatures.so.0:_ZN8osgEarth8Features18FeatureSourceIndexC1EPNS0_13FeatureSourceEPNS_11ObjectIndexERKNS0_25FeatureSourceIndexOptionsE
libosgEarthFeatures.so.0:_ZN8osgEarth8Features18FeatureSourceIndexC2EPNS0_13FeatureSourceEPNS_11ObjectIndexERKNS0_25FeatureSourceIndexOptionsE
libosgEarthFeatures.so.0:_ZN8osgEarth8Features18FeatureSourceIndexD0Ev
libosgEarthFeatures.so.0:_ZN8osgEarth8Features18FeatureSourceIndexD1Ev
libosgEarthFeatures.so.0:_ZN8osgEarth8Features18FeatureSourceIndexD2Ev
libosgEarthFeatures.so.0:_ZN8osgEarth8Features18FeatureSourceLayer16setFeatureSourceEPNS0_13FeatureSourceE
libosgEarthFeatures.so.0:_ZN8osgEarth8Features18FeatureSourceLayer4openEv
libosgEarthFeatures.so.0:_ZN8osgEarth8Features18FeatureSourceLayerC1EPNS0_25FeatureSourceLayerOptionsE
libosgEarthFeatures.so.0:_ZN8osgEarth8Features18FeatureSourceLayerC1ERKNS0_25FeatureSourceLayerOptionsE
libosgEarthFeatures.so.0:_ZN8osgEarth8Features18FeatureSourceLayerC1Ev
libosgEarthFeatures.so.0:_ZN8osgEarth8Features18FeatureSourceLayerC2EPNS0_25FeatureSourceLayerOptionsE
libosgEarthFeatures.so.0:_ZN8osgEarth8Features18FeatureSourceLayerC2ERKNS0_25FeatureSourceLayerOptionsE
libosgEarthFeatures.so.0:_ZN8osgEarth8Features18FeatureSourceLayerC2Ev
libosgEarthFeatures.so.0:_ZN8osgEarth8Features18LabelSourceFactory6createERKNS0_18LabelSourceOptionsE
libosgEarthFeatures.so.0:_ZN8osgEarth8Features18LabelSourceOptions10fromConfigERKNS_6ConfigE
libosgEarthFeatures.so.0:_ZN8osgEarth8Features18LabelSourceOptions11mergeConfigERKNS_6ConfigE
libosgEarthFeatures.so.0:_ZN8osgEarth8Features18LabelSourceOptionsD0Ev
libosgEarthFeatures.so.0:_ZN8osgEarth8Features18LabelSourceOptionsD1Ev
libosgEarthFeatures.so.0:_ZN8osgEarth8Features18LabelSourceOptionsD2Ev
libosgEarthFeatures.so.0:_ZN8osgEarth8Features18TessellateOperator13tessellateGeoERKN3osg5Vec3dES5_jNS_16GeoInterpolationERSt6vectorIS3_SaIS3_EE
libosgEarthFeatures.so.0:_ZN8osgEarth8Features18TessellateOperator16tessellateLinearERKN3osg5Vec3dES5_jRSt6vectorIS3_SaIS3_EE
libosgEarthFeatures.so.0:_ZN8osgEarth8Features18TessellateOperatorC1Ev
libosgEarthFeatures.so.0:_ZN8osgEarth8Features18TessellateOperatorC2Ev
libosgEarthFeatures.so.0:_ZN8osgEarth8Features19BuildGeometryFilter12buildPolygonEPNS_9Symbology8GeometryEPKNS_16SpatialReferenceES7_bPN3osg8GeometryERKNS8_7MatrixdE
libosgEarthFeatures.so.0:_ZN8osgEarth8Features19BuildGeometryFilter12processLinesERNSt7__cxx114listIN3osg7ref_ptrINS0_7FeatureEEESaIS7_EEERNS0_13FilterContextE
libosgEarthFeatures.so.0:_ZN8osgEarth8Features19BuildGeometryFilter13processPointsERNSt7__cxx114listIN3osg7ref_ptrINS0_7FeatureEEESaIS7_EEERNS0_13FilterContextE
libosgEarthFeatures.so.0:_ZN8osgEarth8Features19BuildGeometryFilter15processPolygonsERNSt7__cxx114listIN3osg7ref_ptrINS0_7FeatureEEESaIS7_EEERNS0_13FilterContextE
libosgEarthFeatures.so.0:_ZN8osgEarth8Features19BuildGeometryFilter19tileAndBuildPolygonEPNS_9Symbology8GeometryEPKNS_16SpatialReferenceES7_bbPN3osg8GeometryERKNS8_7MatrixdE
libosgEarthFeatures.so.0:_ZN8osgEarth8Features19BuildGeometryFilter23processPolygonizedLinesERNSt7__cxx114listIN3osg7ref_ptrINS0_7FeatureEEESaIS7_EEEbRNS0_13FilterContextE
libosgEarthFeatures.so.0:_ZN8osgEarth8Features19BuildGeometryFilter4pushERNSt7__cxx114listIN3osg7ref_ptrINS0_7FeatureEEESaIS7_EEERNS0_13FilterContextE
libosgEarthFeatures.so.0:_ZN8osgEarth8Features19BuildGeometryFilterC1ERKNS_9Symbology5StyleE
libosgEarthFeatures.so.0:_ZN8osgEarth8Features19BuildGeometryFilterC2ERKNS_9Symbology5StyleE
libosgEarthFeatures.so.0:_ZN8osgEarth8Features19FeatureModelOptions10fromConfigERKNS_6ConfigE
libosgEarthFeatures.so.0:_ZN8osgEarth8Features19FeatureModelOptionsC1ERKNS_13ConfigOptionsE
libosgEarthFeatures.so.0:_ZN8osgEarth8Features19FeatureModelOptionsC2ERKNS_13ConfigOptionsE
libosgEarthFeatures.so.0:_ZN8osgEarth8Features19ImageToFeatureLayer10addedToMapEPKNS_3MapE
libosgEarthFeatures.so.0:_ZN8osgEarth8Features19ImageToFeatureLayer13setImageLayerEPNS_10ImageLayerE
libosgEarthFeatures.so.0:_ZN8osgEarth8Features19ImageToFeatureLayer14removedFromMapEPKNS_3MapE
libosgEarthFeatures.so.0:_ZN8osgEarth8Features19ImageToFeatureLayer4initEv
libosgEarthFeatures.so.0:_ZN8osgEarth8Features19ImageToFeatureLayerC1ERKNS0_26ImageToFeatureLayerOptionsE
libosgEarthFeatures.so.0:_ZN8osgEarth8Features19ImageToFeatureLayerC1Ev
libosgEarthFeatures.so.0:_ZN8osgEarth8Features19ImageToFeatureLayerC2ERKNS0_26ImageToFeatureLayerOptionsE
libosgEarthFeatures.so.0:_ZN8osgEarth8Features19ImageToFeatureLayerC2Ev
libosgEarthFeatures.so.0:_ZN8osgEarth8Features19ScriptEngineFactory17createWithProfileERKNS0_6ScriptERKNSt7__cxx1112basic_stringIcSt11char_traitsIcESaIcEEESC_b
libosgEarthFeatures.so.0:_ZN8osgEarth8Features19ScriptEngineFactory6createERKNS0_19ScriptEngineOptionsEb
libosgEarthFeatures.so.0:_ZN8osgEarth8Features19ScriptEngineFactory6createERKNS0_6ScriptERKNSt7__cxx1112basic_stringIcSt11char_traitsIcESaIcEEEb
libosgEarthFeatures.so.0:_ZN8osgEarth8Features19ScriptEngineFactory6createERKNSt7__cxx1112basic_stringIcSt11char_traitsIcESaIcEEES9_b
libosgEarthFeatures.so.0:_ZN8osgEarth8Features19ScriptEngineFactory8instanceEv
libosgEarthFeatures.so.0:_ZN8osgEarth8Features19ScriptEngineOptions10fromConfigERKNS_6ConfigE
libosgEarthFeatures.so.0:_ZN8osgEarth8Features19ScriptEngineOptions11mergeConfigERKNS_6ConfigE
libosgEarthFeatures.so.0:_ZN8osgEarth8Features20FeatureDisplayLayout10fromConfigERKNS_6ConfigE
libosgEarthFeatures.so.0:_ZN8osgEarth8Features20FeatureDisplayLayout8addLevelERKNS0_12FeatureLevelE
libosgEarthFeatures.so.0:_ZN8osgEarth8Features20FeatureDisplayLayoutC1ERKNS_6ConfigE
libosgEarthFeatures.so.0:_ZN8osgEarth8Features20FeatureDisplayLayoutC2ERKNS_6ConfigE
libosgEarthFeatures.so.0:_ZN8osgEarth8Features20FeatureSourceFactory6createERKNS0_20FeatureSourceOptionsE
libosgEarthFeatures.so.0:_ZN8osgEarth8Features20FeatureSourceMappingC1EPNS0_13FeatureSourceEPNS0_16FeaturePredicateE
libosgEarthFeatures.so.0:_ZN8osgEarth8Features20FeatureSourceMappingC2EPNS0_13FeatureSourceEPNS0_16FeaturePredicateE
libosgEarthFeatures.so.0:_ZN8osgEarth8Features20FeatureSourceOptions10fromConfigERKNS_6ConfigE
libosgEarthFeatures.so.0:_ZN8osgEarth8Features20FeatureSourceOptionsC1ERKNS_13ConfigOptionsE
libosgEarthFeatures.so.0:_ZN8osgEarth8Features20FeatureSourceOptionsC2ERKNS_13ConfigOptionsE
libosgEarthFeatures.so.0:_ZN8osgEarth8Features20FeatureSourceOptionsD0Ev
libosgEarthFeatures.so.0:_ZN8osgEarth8Features20FeatureSourceOptionsD1Ev
libosgEarthFeatures.so.0:_ZN8osgEarth8Features20FeatureSourceOptionsD2Ev
libosgEarthFeatures.so.0:_ZN8osgEarth8Features20FeaturesToNodeFilter17computeLocalizersERKNS0_13FilterContextE
libosgEarthFeatures.so.0:_ZN8osgEarth8Features20FeaturesToNodeFilter17computeLocalizersERKNS0_13FilterContextERKNS_9GeoExtentERN3osg7MatrixdESA_
libosgEarthFeatures.so.0:_ZN8osgEarth8Features20FeaturesToNodeFilter19applyPointSymbologyEPN3osg8StateSetEPKNS_9Symbology11PointSymbolE
libosgEarthFeatures.so.0:_ZN8osgEarth8Features20FeaturesToNodeFilter20transformAndLocalizeERKN3osg5Vec3dEPKNS_16SpatialReferenceERS3_S8_RKNS2_7MatrixdEb
libosgEarthFeatures.so.0:_ZN8osgEarth8Features20FeaturesToNodeFilter20transformAndLocalizeERKSt6vectorIN3osg5Vec3dESaIS4_EEPKNS_16SpatialReferenceEPNS3_13TemplateArrayINS3_5Vec3fELNS3_5Array4TypeE28ELi3ELi5126EEESB_RKNS3_7MatrixdEb
libosgEarthFeatures.so.0:_ZN8osgEarth8Features20FeaturesToNodeFilter20transformAndLocalizeERKSt6vectorIN3osg5Vec3dESaIS4_EEPKNS_16SpatialReferenceEPNS3_13TemplateArrayINS3_5Vec3fELNS3_5Array4TypeE28ELi3ELi5126EEESH_SB_RKNS3_7MatrixdEb
libosgEarthFeatures.so.0:_ZN8osgEarth8Features20FeaturesToNodeFilterD0Ev
libosgEarthFeatures.so.0:_ZN8osgEarth8Features20FeaturesToNodeFilterD1Ev
libosgEarthFeatures.so.0:_ZN8osgEarth8Features20FeaturesToNodeFilterD2Ev
libosgEarthFeatures.so.0:_ZN8osgEarth8Features20VirtualFeatureSource10initializeEPKN5osgDB7OptionsE
libosgEarthFeatures.so.0:_ZN8osgEarth8Features20VirtualFeatureSource19createFeatureCursorERKNS_9Symbology5QueryEPNS_16ProgressCallbackE
libosgEarthFeatures.so.0:_ZN8osgEarth8Features20VirtualFeatureSource20createFeatureProfileEv
libosgEarthFeatures.so.0:_ZN8osgEarth8Features20VirtualFeatureSource3addEPNS0_13FeatureSourceEPNS0_16FeaturePredicateE
libosgEarthFeatures.so.0:_ZN8osgEarth8Features20VirtualFeatureSourceC1Ev
libosgEarthFeatures.so.0:_ZN8osgEarth8Features20VirtualFeatureSourceC2Ev
libosgEarthFeatures.so.0:_ZN8osgEarth8Features20VirtualFeatureSourceD0Ev
libosgEarthFeatures.so.0:_ZN8osgEarth8Features20VirtualFeatureSourceD1Ev
libosgEarthFeatures.so.0:_ZN8osgEarth8Features20VirtualFeatureSourceD2Ev
libosgEarthFeatures.so.0:_ZN8osgEarth8Features21ExtrudeGeometryFilter11addDrawableEPN3osg8DrawableEPNS2_8StateSetERKNSt7__cxx1112basic_stringIcSt11char_traitsIcESaIcEEEPNS0_7FeatureEPNS0_19FeatureIndexBuilderE
libosgEarthFeatures.so.0:_ZN8osgEarth8Features21ExtrudeGeometryFilter14buildStructureEPKNS_9Symbology8GeometryEdbfPKNS2_12SkinResourceES8_RNS1_9StructureERNS0_13FilterContextE
libosgEarthFeatures.so.0:_ZN8osgEarth8Features21ExtrudeGeometryFilter17buildRoofGeometryERKNS1_9StructureEPN3osg8GeometryERKNS5_5Vec4fEPKNS_9Symbology12SkinResourceE
libosgEarthFeatures.so.0:_ZN8osgEarth8Features21ExtrudeGeometryFilter17buildWallGeometryERKNS1_9StructureEPN3osg8GeometryERKNS5_5Vec4fESA_PKNS_9Symbology12SkinResourceE
libosgEarthFeatures.so.0:_ZN8osgEarth8Features21ExtrudeGeometryFilter20buildOutlineGeometryERKNS1_9StructureE
libosgEarthFeatures.so.0:_ZN8osgEarth8Features21ExtrudeGeometryFilter4pushERNSt7__cxx114listIN3osg7ref_ptrINS0_7FeatureEEESaIS7_EEERNS0_13FilterContextE
libosgEarthFeatures.so.0:_ZN8osgEarth8Features21ExtrudeGeometryFilter5resetERKNS0_13FilterContextE
libosgEarthFeatures.so.0:_ZN8osgEarth8Features21ExtrudeGeometryFilter7processERNSt7__cxx114listIN3osg7ref_ptrINS0_7FeatureEEESaIS7_EEERNS0_13FilterContextE
libosgEarthFeatures.so.0:_ZN8osgEarth8Features21ExtrudeGeometryFilter8setStyleERKNS_9Symbology5StyleE
libosgEarthFeatures.so.0:_ZN8osgEarth8Features21ExtrudeGeometryFilterC1Ev
libosgEarthFeatures.so.0:_ZN8osgEarth8Features21ExtrudeGeometryFilterC2Ev
libosgEarthFeatures.so.0:_ZN8osgEarth8Features21FeatureFilterRegistry3addEPNS0_20FeatureFilterFactoryE
libosgEarthFeatures.so.0:_ZN8osgEarth8Features21FeatureFilterRegistry6createERKNS_6ConfigEPKN5osgDB7OptionsE
libosgEarthFeatures.so.0:_ZN8osgEarth8Features21FeatureFilterRegistry8instanceEv
libosgEarthFeatures.so.0:_ZN8osgEarth8Features21FeatureFilterRegistryC1Ev
libosgEarthFeatures.so.0:_ZN8osgEarth8Features21FeatureFilterRegistryC2Ev
libosgEarthFeatures.so.0:_ZN8osgEarth8Features21GeometryFeatureCursor11nextFeatureEv
libosgEarthFeatures.so.0:_ZN8osgEarth8Features21GeometryFeatureCursorC1EPNS_9Symbology8GeometryE
libosgEarthFeatures.so.0:_ZN8osgEarth8Features21GeometryFeatureCursorC1EPNS_9Symbology8GeometryEPKNS0_14FeatureProfileEPKNS0_18FeatureFilterChainE
libosgEarthFeatures.so.0:_ZN8osgEarth8Features21GeometryFeatureCursorC2EPNS_9Symbology8GeometryE
libosgEarthFeatures.so.0:_ZN8osgEarth8Features21GeometryFeatureCursorC2EPNS_9Symbology8GeometryEPKNS0_14FeatureProfileEPKNS0_18FeatureFilterChainE
libosgEarthFeatures.so.0:_ZN8osgEarth8Features21GeometryFeatureCursorD0Ev
libosgEarthFeatures.so.0:_ZN8osgEarth8Features21GeometryFeatureCursorD1Ev
libosgEarthFeatures.so.0:_ZN8osgEarth8Features21GeometryFeatureCursorD2Ev
libosgEarthFeatures.so.0:_ZN8osgEarth8Features21PolygonizeLinesFilter4pushERNSt7__cxx114listIN3osg7ref_ptrINS0_7FeatureEEESaIS7_EEERNS0_13FilterContextE
libosgEarthFeatures.so.0:_ZN8osgEarth8Features21PolygonizeLinesFilterC1ERKNS_9Symbology5StyleE
libosgEarthFeatures.so.0:_ZN8osgEarth8Features21PolygonizeLinesFilterC2ERKNS_9Symbology5StyleE
libosgEarthFeatures.so.0:_ZN8osgEarth8Features21SubstituteModelFilter12findResourceERKNS_3URIEPKNS_9Symbology14InstanceSymbolERNS0_13FilterContextERSt3setIS2_St4lessIS2_ESaIS2_EERN3osg7ref_ptrINS5_16InstanceResourceEEE
libosgEarthFeatures.so.0:_ZN8osgEarth8Features21SubstituteModelFilter4pushERNSt7__cxx114listIN3osg7ref_ptrINS0_7FeatureEEESaIS7_EEERNS0_13FilterContextE
libosgEarthFeatures.so.0:_ZN8osgEarth8Features21SubstituteModelFilter7processERKNSt7__cxx114listIN3osg7ref_ptrINS0_7FeatureEEESaIS7_EEEPKNS_9Symbology14InstanceSymbolEPNS0_7SessionEPNS4_5GroupERNS0_13FilterContextE
libosgEarthFeatures.so.0:_ZN8osgEarth8Features21SubstituteModelFilterC1ERKNS_9Symbology5StyleE
libosgEarthFeatures.so.0:_ZN8osgEarth8Features21SubstituteModelFilterC2ERKNS_9Symbology5StyleE
libosgEarthFeatures.so.0:_ZN8osgEarth8Features22FeatureSourceIndexNode11reIndexNodeEPN3osg4NodeERSt3mapIjjSt4lessIjESaISt4pairIKjjEEERS5_ImNS2_7ref_ptrINS0_9RefIDPairEEES6_ImESaIS8_IKmSG_EEE
libosgEarthFeatures.so.0:_ZN8osgEarth8Features22FeatureSourceIndexNode11tagDrawableEPN3osg8DrawableEPNS0_7FeatureE
libosgEarthFeatures.so.0:_ZN8osgEarth8Features22FeatureSourceIndexNode12reconstituteEPN3osg4NodeEPNS0_18FeatureSourceIndexE
libosgEarthFeatures.so.0:_ZN8osgEarth8Features22FeatureSourceIndexNode15reIndexDrawableEPN3osg8DrawableERSt3mapIjjSt4lessIjESaISt4pairIKjjEEERS5_ImNS2_7ref_ptrINS0_9RefIDPairEEES6_ImESaIS8_IKmSG_EEE
libosgEarthFeatures.so.0:_ZN8osgEarth8Features22FeatureSourceIndexNode15tagAllDrawablesEPN3osg4NodeEPNS0_7FeatureE
libosgEarthFeatures.so.0:_ZN8osgEarth8Features22FeatureSourceIndexNode3getEPN3osg4NodeE
libosgEarthFeatures.so.0:_ZN8osgEarth8Features22FeatureSourceIndexNode7reIndexERSt3mapIjjSt4lessIjESaISt4pairIKjjEEE
libosgEarthFeatures.so.0:_ZN8osgEarth8Features22FeatureSourceIndexNode7tagNodeEPN3osg4NodeEPNS0_7FeatureE
libosgEarthFeatures.so.0:_ZN8osgEarth8Features22FeatureSourceIndexNode9setFIDMapERKSt3mapImN3osg7ref_ptrINS0_9RefIDPairEEESt4lessImESaISt4pairIKmS6_EEE
libosgEarthFeatures.so.0:_ZN8osgEarth8Features22FeatureSourceIndexNodeC1EPNS0_18FeatureSourceIndexE
libosgEarthFeatures.so.0:_ZN8osgEarth8Features22FeatureSourceIndexNodeC1ERKS1_RKN3osg6CopyOpE
libosgEarthFeatures.so.0:_ZN8osgEarth8Features22FeatureSourceIndexNodeC1Ev
libosgEarthFeatures.so.0:_ZN8osgEarth8Features22FeatureSourceIndexNodeC2EPNS0_18FeatureSourceIndexE
libosgEarthFeatures.so.0:_ZN8osgEarth8Features22FeatureSourceIndexNodeC2ERKS1_RKN3osg6CopyOpE
libosgEarthFeatures.so.0:_ZN8osgEarth8Features22FeatureSourceIndexNodeC2Ev
libosgEarthFeatures.so.0:_ZN8osgEarth8Features22FeatureSourceIndexNodeD0Ev
libosgEarthFeatures.so.0:_ZN8osgEarth8Features22FeatureSourceIndexNodeD1Ev
libosgEarthFeatures.so.0:_ZN8osgEarth8Features22FeatureSourceIndexNodeD2Ev
libosgEarthFeatures.so.0:_ZN8osgEarth8Features22GeomFeatureNodeFactory18createOrUpdateNodeEPNS0_13FeatureCursorERKNS_9Symbology5StyleERKNS0_13FilterContextERN3osg7ref_ptrINSB_4NodeEEE
libosgEarthFeatures.so.0:_ZN8osgEarth8Features22GeomFeatureNodeFactoryC1ERKNS0_23GeometryCompilerOptionsE
libosgEarthFeatures.so.0:_ZN8osgEarth8Features22GeomFeatureNodeFactoryC2ERKNS0_23GeometryCompilerOptionsE
libosgEarthFeatures.so.0:_ZN8osgEarth8Features23FeatureMaskLayerOptions10fromConfigERKNS_6ConfigE
libosgEarthFeatures.so.0:_ZN8osgEarth8Features23FeatureMaskLayerOptions11mergeConfigERKNS_6ConfigE
libosgEarthFeatures.so.0:_ZN8osgEarth8Features23FeatureMaskLayerOptionsC1ERKNS_13ConfigOptionsE
libosgEarthFeatures.so.0:_ZN8osgEarth8Features23FeatureMaskLayerOptionsC2ERKNS_13ConfigOptionsE
libosgEarthFeatures.so.0:_ZN8osgEarth8Features23GeometryCompilerOptions10fromConfigERKNS_6ConfigE
libosgEarthFeatures.so.0:_ZN8osgEarth8Features23GeometryCompilerOptions11setDefaultsERKS1_
libosgEarthFeatures.so.0:_ZN8osgEarth8Features23GeometryCompilerOptionsC1ERKNS_13ConfigOptionsE
libosgEarthFeatures.so.0:_ZN8osgEarth8Features23GeometryCompilerOptionsC1Eb
libosgEarthFeatures.so.0:_ZN8osgEarth8Features23GeometryCompilerOptionsC2ERKNS_13ConfigOptionsE
libosgEarthFeatures.so.0:_ZN8osgEarth8Features23GeometryCompilerOptionsC2Eb
libosgEarthFeatures.so.0:_ZN8osgEarth8Features23PolygonizeLinesOperatorC1ERKNS_9Symbology6StrokeE
libosgEarthFeatures.so.0:_ZN8osgEarth8Features23PolygonizeLinesOperatorC2ERKNS_9Symbology6StrokeE
libosgEarthFeatures.so.0:_ZN8osgEarth8Features24FeatureModelLayerOptions10fromConfigERKNS_6ConfigE
libosgEarthFeatures.so.0:_ZN8osgEarth8Features24FeatureModelLayerOptions11mergeConfigERKNS_6ConfigE
libosgEarthFeatures.so.0:_ZN8osgEarth8Features24FeatureModelLayerOptionsC1ERKNS_13ConfigOptionsE
libosgEarthFeatures.so.0:_ZN8osgEarth8Features24FeatureModelLayerOptionsC2ERKNS_13ConfigOptionsE
libosgEarthFeatures.so.0:_ZN8osgEarth8Features24FeatureTileSourceOptions10fromConfigERKNS_6ConfigE
libosgEarthFeatures.so.0:_ZN8osgEarth8Features24FeatureTileSourceOptions11mergeConfigERKNS_6ConfigE
libosgEarthFeatures.so.0:_ZN8osgEarth8Features24FeatureTileSourceOptionsC1ERKNS_13ConfigOptionsE
libosgEarthFeatures.so.0:_ZN8osgEarth8Features24FeatureTileSourceOptionsC2ERKNS_13ConfigOptionsE
libosgEarthFeatures.so.0:_ZN8osgEarth8Features25FeatureModelSourceOptions10fromConfigERKNS_6ConfigE
libosgEarthFeatures.so.0:_ZN8osgEarth8Features25FeatureModelSourceOptionsC1ERKNS_13ConfigOptionsE
libosgEarthFeatures.so.0:_ZN8osgEarth8Features25FeatureModelSourceOptionsC2ERKNS_13ConfigOptionsE
libosgEarthFeatures.so.0:_ZN8osgEarth8Features25FeatureSourceIndexOptionsC1ERKNS_6ConfigE
libosgEarthFeatures.so.0:_ZN8osgEarth8Features25FeatureSourceIndexOptionsC2ERKNS_6ConfigE
libosgEarthFeatures.so.0:_ZN8osgEarth8Features3MVT4readERSiRKNS_7TileKeyERNSt7__cxx114listIN3osg7ref_ptrINS0_7FeatureEEESaISB_EEE
libosgEarthFeatures.so.0:_ZN8osgEarth8Features6FilterD0Ev
libosgEarthFeatures.so.0:_ZN8osgEarth8Features6FilterD1Ev
libosgEarthFeatures.so.0:_ZN8osgEarth8Features6FilterD2Ev
libosgEarthFeatures.so.0:_ZN8osgEarth8Features7Feature11setGeometryEPNS_9Symbology8GeometryE
libosgEarthFeatures.so.0:_ZN8osgEarth8Features7Feature17featuresToGeoJSONERKNSt7__cxx114listIN3osg7ref_ptrIS1_EESaIS6_EEE
libosgEarthFeatures.so.0:_ZN8osgEarth8Features7Feature19splitAcrossDateLineERNSt7__cxx114listIN3osg7ref_ptrIS1_EESaIS6_EEE
libosgEarthFeatures.so.0:_ZN8osgEarth8Features7Feature24getWorldBoundingPolytopeERKN3osg18BoundingSphereImplINS2_5Vec3dEEEPKNS_16SpatialReferenceERNS2_8PolytopeE
libosgEarthFeatures.so.0:_ZN8osgEarth8Features7Feature3setERKNSt7__cxx1112basic_stringIcSt11char_traitsIcESaIcEEERKNS0_14AttributeValueE
libosgEarthFeatures.so.0:_ZN8osgEarth8Features7Feature3setERKNSt7__cxx1112basic_stringIcSt11char_traitsIcESaIcEEES9_
libosgEarthFeatures.so.0:_ZN8osgEarth8Features7Feature3setERKNSt7__cxx1112basic_stringIcSt11char_traitsIcESaIcEEEb
libosgEarthFeatures.so.0:_ZN8osgEarth8Features7Feature3setERKNSt7__cxx1112basic_stringIcSt11char_traitsIcESaIcEEEd
libosgEarthFeatures.so.0:_ZN8osgEarth8Features7Feature3setERKNSt7__cxx1112basic_stringIcSt11char_traitsIcESaIcEEEi
libosgEarthFeatures.so.0:_ZN8osgEarth8Features7Feature5dirtyEv
libosgEarthFeatures.so.0:_ZN8osgEarth8Features7Feature6setFIDEm
libosgEarthFeatures.so.0:_ZN8osgEarth8Features7Feature6setSRSEPKNS_16SpatialReferenceE
libosgEarthFeatures.so.0:_ZN8osgEarth8Features7Feature7setNullERKNSt7__cxx1112basic_stringIcSt11char_traitsIcESaIcEEE
libosgEarthFeatures.so.0:_ZN8osgEarth8Features7Feature7setNullERKNSt7__cxx1112basic_stringIcSt11char_traitsIcESaIcEEENS0_13AttributeTypeE
libosgEarthFeatures.so.0:_ZN8osgEarth8Features7Feature9transformEPKNS_16SpatialReferenceE
libosgEarthFeatures.so.0:_ZN8osgEarth8Features7FeatureC1EPNS_9Symbology8GeometryEPKNS_16SpatialReferenceERKNS2_5StyleEm
libosgEarthFeatures.so.0:_ZN8osgEarth8Features7FeatureC1ERKS1_RKN3osg6CopyOpE
libosgEarthFeatures.so.0:_ZN8osgEarth8Features7FeatureC1Em
libosgEarthFeatures.so.0:_ZN8osgEarth8Features7FeatureC2EPNS_9Symbology8GeometryEPKNS_16SpatialReferenceERKNS2_5StyleEm
libosgEarthFeatures.so.0:_ZN8osgEarth8Features7FeatureC2ERKS1_RKN3osg6CopyOpE
libosgEarthFeatures.so.0:_ZN8osgEarth8Features7FeatureC2Em
libosgEarthFeatures.so.0:_ZN8osgEarth8Features7FeatureD0Ev
libosgEarthFeatures.so.0:_ZN8osgEarth8Features7FeatureD1Ev
libosgEarthFeatures.so.0:_ZN8osgEarth8Features7FeatureD2Ev
libosgEarthFeatures.so.0:_ZN8osgEarth8Features7Session16getResourceCacheEv
libosgEarthFeatures.so.0:_ZN8osgEarth8Features7Session16getStateSetCacheEv
libosgEarthFeatures.so.0:_ZN8osgEarth8Features7Session16initScriptEngineEv
libosgEarthFeatures.so.0:_ZN8osgEarth8Features7Session16setFeatureSourceEPNS0_13FeatureSourceE
libosgEarthFeatures.so.0:_ZN8osgEarth8Features7Session16setResourceCacheEPNS_9Symbology13ResourceCacheE
libosgEarthFeatures.so.0:_ZN8osgEarth8Features7Session4initEv
libosgEarthFeatures.so.0:_ZN8osgEarth8Features7Session9setStylesEPNS_9Symbology10StyleSheetE
libosgEarthFeatures.so.0:_ZN8osgEarth8Features7SessionC1EPKNS_3MapE
libosgEarthFeatures.so.0:_ZN8osgEarth8Features7SessionC1EPKNS_3MapEPNS_9Symbology10StyleSheetE
libosgEarthFeatures.so.0:_ZN8osgEarth8Features7SessionC1EPKNS_3MapEPNS_9Symbology10StyleSheetEPNS0_13FeatureSourceEPKN5osgDB7OptionsE
libosgEarthFeatures.so.0:_ZN8osgEarth8Features7SessionC1ERKS1_RKN3osg6CopyOpE
libosgEarthFeatures.so.0:_ZN8osgEarth8Features7SessionC1Ev
libosgEarthFeatures.so.0:_ZN8osgEarth8Features7SessionC2EPKNS_3MapE
libosgEarthFeatures.so.0:_ZN8osgEarth8Features7SessionC2EPKNS_3MapEPNS_9Symbology10StyleSheetE
libosgEarthFeatures.so.0:_ZN8osgEarth8Features7SessionC2EPKNS_3MapEPNS_9Symbology10StyleSheetEPNS0_13FeatureSourceEPKN5osgDB7OptionsE
libosgEarthFeatures.so.0:_ZN8osgEarth8Features7SessionC2ERKS1_RKN3osg6CopyOpE
libosgEarthFeatures.so.0:_ZN8osgEarth8Features7SessionC2Ev
libosgEarthFeatures.so.0:_ZN8osgEarth8Features7SessionD0Ev
libosgEarthFeatures.so.0:_ZN8osgEarth8Features7SessionD1Ev
libosgEarthFeatures.so.0:_ZN8osgEarth8Features7SessionD2Ev
libosgEarthFeatures.so.0:_ZN8osgEarth8Features7ShadersC1Ev
libosgEarthFeatures.so.0:_ZN8osgEarth8Features7ShadersC2Ev
libosgEarthFeatures.so.0:_ZNK6mapnik6vector10tile_layer11GetTypeNameB5cxx11Ev
libosgEarthFeatures.so.0:_ZNK6mapnik6vector10tile_layer12ByteSizeLongEv
libosgEarthFeatures.so.0:_ZNK6mapnik6vector10tile_layer13IsInitializedEv
libosgEarthFeatures.so.0:_ZNK6mapnik6vector10tile_layer13SetCachedSizeEi
libosgEarthFeatures.so.0:_ZNK6mapnik6vector10tile_layer18_InternalSerializeEPhPN6google8protobuf2io19EpsCopyOutputStreamE
libosgEarthFeatures.so.0:_ZNK6mapnik6vector10tile_layer30RequiredFieldsByteSizeFallbackEv
libosgEarthFeatures.so.0:_ZNK6mapnik6vector10tile_value11GetTypeNameB5cxx11Ev
libosgEarthFeatures.so.0:_ZNK6mapnik6vector10tile_value12ByteSizeLongEv
libosgEarthFeatures.so.0:_ZNK6mapnik6vector10tile_value13IsInitializedEv
libosgEarthFeatures.so.0:_ZNK6mapnik6vector10tile_value13SetCachedSizeEi
libosgEarthFeatures.so.0:_ZNK6mapnik6vector10tile_value18_InternalSerializeEPhPN6google8protobuf2io19EpsCopyOutputStreamE
libosgEarthFeatures.so.0:_ZNK6mapnik6vector12tile_feature11GetTypeNameB5cxx11Ev
libosgEarthFeatures.so.0:_ZNK6mapnik6vector12tile_feature12ByteSizeLongEv
libosgEarthFeatures.so.0:_ZNK6mapnik6vector12tile_feature13IsInitializedEv
libosgEarthFeatures.so.0:_ZNK6mapnik6vector12tile_feature13SetCachedSizeEi
libosgEarthFeatures.so.0:_ZNK6mapnik6vector12tile_feature18_InternalSerializeEPhPN6google8protobuf2io19EpsCopyOutputStreamE
libosgEarthFeatures.so.0:_ZNK6mapnik6vector4tile11GetTypeNameB5cxx11Ev
libosgEarthFeatures.so.0:_ZNK6mapnik6vector4tile12ByteSizeLongEv
libosgEarthFeatures.so.0:_ZNK6mapnik6vector4tile13IsInitializedEv
libosgEarthFeatures.so.0:_ZNK6mapnik6vector4tile13SetCachedSizeEi
libosgEarthFeatures.so.0:_ZNK6mapnik6vector4tile18_InternalSerializeEPhPN6google8protobuf2io19EpsCopyOutputStreamE
libosgEarthFeatures.so.0:_ZNK8osgEarth8Features12BufferFilter9getConfigEv
libosgEarthFeatures.so.0:_ZNK8osgEarth8Features12FeatureLevel9getConfigEv
libosgEarthFeatures.so.0:_ZNK8osgEarth8Features13FeatureSource10getFiltersEv
libosgEarthFeatures.so.0:_ZNK8osgEarth8Features13FeatureSource12applyFiltersERNSt7__cxx114listIN3osg7ref_ptrINS0_7FeatureEEESaIS7_EEERKNS_9GeoExtentE
libosgEarthFeatures.so.0:_ZNK8osgEarth8Features13FeatureSource13isBlacklistedEm
libosgEarthFeatures.so.0:_ZNK8osgEarth8Features13FeatureSource9getSchemaB5cxx11Ev
libosgEarthFeatures.so.0:_ZNK8osgEarth8Features13FilterContext10getHistoryB5cxx11Ev
libosgEarthFeatures.so.0:_ZNK8osgEarth8Features13FilterContext10getSessionEv
libosgEarthFeatures.so.0:_ZNK8osgEarth8Features13FilterContext12getDBOptionsEv
libosgEarthFeatures.so.0:_ZNK8osgEarth8Features13FilterContext12getOutputSRSEv
libosgEarthFeatures.so.0:_ZNK8osgEarth8Features13FilterContext15isGeoreferencedEv
libosgEarthFeatures.so.0:_ZNK8osgEarth8Features13FilterContext5toMapERKN3osg5Vec3dE
libosgEarthFeatures.so.0:_ZNK8osgEarth8Features13FilterContext7fromMapERKN3osg5Vec3dE
libosgEarthFeatures.so.0:_ZNK8osgEarth8Features13FilterContext7toLocalEPNS_9Symbology8GeometryE
libosgEarthFeatures.so.0:_ZNK8osgEarth8Features13FilterContext7toWorldEPNS_9Symbology8GeometryE
libosgEarthFeatures.so.0:_ZNK8osgEarth8Features13FilterContext8toStringB5cxx11Ev
libosgEarthFeatures.so.0:_ZNK8osgEarth8Features14AttributeValue6getIntEi
libosgEarthFeatures.so.0:_ZNK8osgEarth8Features14AttributeValue7getBoolEb
libosgEarthFeatures.so.0:_ZNK8osgEarth8Features14AttributeValue9getDoubleEd
libosgEarthFeatures.so.0:_ZNK8osgEarth8Features14AttributeValue9getStringB5cxx11Ev
libosgEarthFeatures.so.0:_ZNK8osgEarth8Features14FeatureProfile10getProfileEv
libosgEarthFeatures.so.0:_ZNK8osgEarth8Features14FeatureProfile11getMaxLevelEv
libosgEarthFeatures.so.0:_ZNK8osgEarth8Features14FeatureProfile13getFirstLevelEv
libosgEarthFeatures.so.0:_ZNK8osgEarth8Features14FeatureProfile8getTiledEv
libosgEarthFeatures.so.0:_ZNK8osgEarth8Features14TextSymbolizer11getEncodingEv
libosgEarthFeatures.so.0:_ZNK8osgEarth8Features14TextSymbolizer5applyEPN7osgText4TextE
libosgEarthFeatures.so.0:_ZNK8osgEarth8Features14TextSymbolizer5applyEPN7osgText4TextEPNS0_7FeatureEPKNS0_13FilterContextEPKN3osg15BoundingBoxImplINSA_5Vec3fEEE
libosgEarthFeatures.so.0:_ZNK8osgEarth8Features17ConvertTypeFilter9getConfigEv
libosgEarthFeatures.so.0:_ZNK8osgEarth8Features17FeatureListCursor7hasMoreEv
libosgEarthFeatures.so.0:_ZNK8osgEarth8Features17FeatureModelGraph21getBoundInWorldCoordsERKNS_9GeoExtentE
libosgEarthFeatures.so.0:_ZNK8osgEarth8Features17FeatureModelLayer16getFeatureSourceEv
libosgEarthFeatures.so.0:_ZNK8osgEarth8Features17FeatureModelLayer35getCreateFeatureNodeFactoryCallbackEv
libosgEarthFeatures.so.0:_ZNK8osgEarth8Features17FeatureModelLayer38createFeatureNodeFactoryImplementationEv
libosgEarthFeatures.so.0:_ZNK8osgEarth8Features17FeatureModelLayer7getNodeEv
libosgEarthFeatures.so.0:_ZNK8osgEarth8Features17FeatureModelLayer9getExtentEv
libosgEarthFeatures.so.0:_ZNK8osgEarth8Features17LabelSourceDriver21getLabelSourceOptionsEPKN5osgDB7OptionsE
libosgEarthFeatures.so.0:_ZNK8osgEarth8Features18FeatureSourceIndex10getFeatureEj
libosgEarthFeatures.so.0:_ZNK8osgEarth8Features18FeatureSourceIndex11getObjectIDEm
libosgEarthFeatures.so.0:_ZNK8osgEarth8Features18FeatureSourceLayer16getFeatureSourceEv
libosgEarthFeatures.so.0:_ZNK8osgEarth8Features18LabelSourceOptions9getConfigEv
libosgEarthFeatures.so.0:_ZNK8osgEarth8Features18ScriptEngineDriver22getScriptEngineOptionsEPKN5osgDB7OptionsE
libosgEarthFeatures.so.0:_ZNK8osgEarth8Features18TessellateOperator4pushERNSt7__cxx114listIN3osg7ref_ptrINS0_7FeatureEEESaIS7_EEERNS0_13FilterContextE
libosgEarthFeatures.so.0:_ZNK8osgEarth8Features18TessellateOperatorclEPNS0_7FeatureERNS0_13FilterContextE
libosgEarthFeatures.so.0:_ZNK8osgEarth8Features19FeatureFilterDriver16getConfigOptionsEPKN5osgDB7OptionsE
libosgEarthFeatures.so.0:_ZNK8osgEarth8Features19FeatureModelOptions9getConfigEv
libosgEarthFeatures.so.0:_ZNK8osgEarth8Features19FeatureSourceDriver23getFeatureSourceOptionsEPKN5osgDB7OptionsE
libosgEarthFeatures.so.0:_ZNK8osgEarth8Features19ScriptEngineOptions9getConfigEv
libosgEarthFeatures.so.0:_ZNK8osgEarth8Features20FeatureDisplayLayout12getNumLevelsEv
libosgEarthFeatures.so.0:_ZNK8osgEarth8Features20FeatureDisplayLayout8getLevelEj
libosgEarthFeatures.so.0:_ZNK8osgEarth8Features20FeatureDisplayLayout9chooseLODERKNS0_12FeatureLevelEd
libosgEarthFeatures.so.0:_ZNK8osgEarth8Features20FeatureDisplayLayout9getConfigEv
libosgEarthFeatures.so.0:_ZNK8osgEarth8Features20FeatureSourceOptions9getConfigEv
libosgEarthFeatures.so.0:_ZNK8osgEarth8Features20FeaturesToNodeFilter10delocalizeEPN3osg4NodeE
libosgEarthFeatures.so.0:_ZNK8osgEarth8Features20FeaturesToNodeFilter10delocalizeEPN3osg4NodeERKNS2_7MatrixdE
libosgEarthFeatures.so.0:_ZNK8osgEarth8Features20FeaturesToNodeFilter17delocalizeAsGroupEPN3osg4NodeE
libosgEarthFeatures.so.0:_ZNK8osgEarth8Features20FeaturesToNodeFilter17delocalizeAsGroupEPN3osg4NodeERKNS2_7MatrixdE
libosgEarthFeatures.so.0:_ZNK8osgEarth8Features20FeaturesToNodeFilter21createDelocalizeGroupERKN3osg7MatrixdE
libosgEarthFeatures.so.0:_ZNK8osgEarth8Features20FeaturesToNodeFilter21createDelocalizeGroupEv
libosgEarthFeatures.so.0:_ZNK8osgEarth8Features20VirtualFeatureSource9getSchemaB5cxx11Ev
libosgEarthFeatures.so.0:_ZNK8osgEarth8Features21GeometryFeatureCursor7hasMoreEv
libosgEarthFeatures.so.0:_ZNK8osgEarth8Features22FeatureSourceIndexNode10getAllFIDsERSt6vectorImSaImEE
libosgEarthFeatures.so.0:_ZNK8osgEarth8Features23FeatureMaskLayerOptions9getConfigEv
libosgEarthFeatures.so.0:_ZNK8osgEarth8Features23GeometryCompilerOptions9getConfigEv
libosgEarthFeatures.so.0:_ZNK8osgEarth8Features23PolygonizeLinesOperator14installShadersEPN3osg4NodeE
libosgEarthFeatures.so.0:_ZNK8osgEarth8Features23PolygonizeLinesOperatorclEPN3osg13TemplateArrayINS2_5Vec3fELNS2_5Array4TypeE28ELi3ELi5126EEES8_PNS1_8CallbackEb
libosgEarthFeatures.so.0:_ZNK8osgEarth8Features24FeatureModelLayerOptions9getConfigEv
libosgEarthFeatures.so.0:_ZNK8osgEarth8Features24FeatureTileSourceOptions9getConfigEv
libosgEarthFeatures.so.0:_ZNK8osgEarth8Features25FeatureModelSourceOptions9getConfigEv
libosgEarthFeatures.so.0:_ZNK8osgEarth8Features25FeatureSourceIndexOptions9getConfigEv
libosgEarthFeatures.so.0:_ZNK8osgEarth8Features7Feature10getGeoJSONB5cxx11Ev
libosgEarthFeatures.so.0:_ZNK8osgEarth8Features7Feature13getWorldBoundEPKNS_16SpatialReferenceERN3osg18BoundingSphereImplINS5_5Vec3dEEE
libosgEarthFeatures.so.0:_ZNK8osgEarth8Features7Feature15calculateExtentEv
libosgEarthFeatures.so.0:_ZNK8osgEarth8Features7Feature24getWorldBoundingPolytopeEPKNS_16SpatialReferenceERN3osg8PolytopeE
libosgEarthFeatures.so.0:_ZNK8osgEarth8Features7Feature4evalB5cxx11ERNS_9Symbology16StringExpressionEPKNS0_13FilterContextE
libosgEarthFeatures.so.0:_ZNK8osgEarth8Features7Feature4evalB5cxx11ERNS_9Symbology16StringExpressionEPNS0_7SessionE
libosgEarthFeatures.so.0:_ZNK8osgEarth8Features7Feature4evalERNS_9Symbology17NumericExpressionEPKNS0_13FilterContextE
libosgEarthFeatures.so.0:_ZNK8osgEarth8Features7Feature4evalERNS_9Symbology17NumericExpressionEPNS0_7SessionE
libosgEarthFeatures.so.0:_ZNK8osgEarth8Features7Feature5isSetERKNSt7__cxx1112basic_stringIcSt11char_traitsIcESaIcEEE
libosgEarthFeatures.so.0:_ZNK8osgEarth8Features7Feature6getFIDEv
libosgEarthFeatures.so.0:_ZNK8osgEarth8Features7Feature6getIntERKNSt7__cxx1112basic_stringIcSt11char_traitsIcESaIcEEEi
libosgEarthFeatures.so.0:_ZNK8osgEarth8Features7Feature7getBoolERKNSt7__cxx1112basic_stringIcSt11char_traitsIcESaIcEEEb
libosgEarthFeatures.so.0:_ZNK8osgEarth8Features7Feature7hasAttrERKNSt7__cxx1112basic_stringIcSt11char_traitsIcESaIcEEE
libosgEarthFeatures.so.0:_ZNK8osgEarth8Features7Feature9getDoubleERKNSt7__cxx1112basic_stringIcSt11char_traitsIcESaIcEEEd
libosgEarthFeatures.so.0:_ZNK8osgEarth8Features7Feature9getExtentEv
libosgEarthFeatures.so.0:_ZNK8osgEarth8Features7Feature9getStringERKNSt7__cxx1112basic_stringIcSt11char_traitsIcESaIcEEE
libosgEarthFeatures.so.0:_ZNK8osgEarth8Features7Session12getDBOptionsEv
libosgEarthFeatures.so.0:_ZNK8osgEarth8Features7Session15getScriptEngineEv
libosgEarthFeatures.so.0:_ZNK8osgEarth8Features7Session16getFeatureSourceEv
libosgEarthFeatures.so.0:_ZNK8osgEarth8Features7Session6getMapEv
libosgEarthFeatures.so.0:_ZNK8osgEarth8Features7Session9getMapSRSEv
libosgEarthFeatures.so.0:_ZThn232_N8osgEarth8Features22FeatureSourceIndexNode11tagDrawableEPN3osg8DrawableEPNS0_7FeatureE
libosgEarthFeatures.so.0:_ZThn232_N8osgEarth8Features22FeatureSourceIndexNode15tagAllDrawablesEPN3osg4NodeEPNS0_7FeatureE
libosgEarthFeatures.so.0:_ZThn232_N8osgEarth8Features22FeatureSourceIndexNode7tagNodeEPN3osg4NodeEPNS0_7FeatureE
libosgEarthFeatures.so.0:_ZThn72_N8osgEarth8Features11LabelSourceD0Ev
libosgEarthFeatures.so.0:_ZThn72_N8osgEarth8Features11LabelSourceD1Ev
libosgEarthFeatures.so.0:_ZThn72_N8osgEarth8Features13FeatureSourceD0Ev
libosgEarthFeatures.so.0:_ZThn72_N8osgEarth8Features13FeatureSourceD1Ev
libosgEarthFeatures.so.0:_ZThn72_N8osgEarth8Features20VirtualFeatureSourceD0Ev
libosgEarthFeatures.so.0:_ZThn72_N8osgEarth8Features20VirtualFeatureSourceD1Ev
libosgEarthFeatures.so.0:osgdb_feature_mask
libosgEarthFeatures.so.0:osgdb_feature_model
libosgEarthFeatures.so.0:osgdb_feature_source
libosgEarthFeatures.so.0:osgdb_image_to_feature
libosgEarthFeatures.so.0:osgdb_osgearth_pseudo_fmg
libosgEarthFeatures.so.0:osgearth_simple_featurefilter_buffer
libosgEarthFeatures.so.0:osgearth_simple_featurefilter_convert
libosgEarthFeatures.so.0:osgearth_simple_featurefilter_resample
libosgEarthFeatures.so.0:osgearth_simple_featurefilter_script
libosgEarthFeatures.so.0:wrapper_serializer_FeatureSourceIndexNode
libosgEarthSplat.so.0:_Z15addFeatureToMapPN8osgEarth8Features7FeatureERKNS_9Symbology5StyleERSt6vectorISt4pairIS4_NSt7__cxx114listIN3osg7ref_ptrIS1_EESaISD_EEEESaISG_EE
libosgEarthSplat.so.0:_Z27sortFeaturesIntoStyleGroupsPN8osgEarth9Symbology10StyleSheetERNSt7__cxx114listIN3osg7ref_ptrINS_8Features7FeatureEEESaIS9_EEERNS7_13FilterContextERSt6vectorISt4pairINS0_5StyleESB_ESaISI_EE
libosgEarthSplat.so.0:_ZN8osgEarth5Splat10SplatClassC1ERKNS_6ConfigE
libosgEarthSplat.so.0:_ZN8osgEarth5Splat10SplatClassC1Ev
libosgEarthSplat.so.0:_ZN8osgEarth5Splat10SplatClassC2ERKNS_6ConfigE
libosgEarthSplat.so.0:_ZN8osgEarth5Splat10SplatClassC2Ev
libosgEarthSplat.so.0:_ZN8osgEarth5Splat10SplatLayer10addedToMapEPKNS_3MapE
libosgEarthSplat.so.0:_ZN8osgEarth5Splat10SplatLayer14buildStateSetsEv
libosgEarthSplat.so.0:_ZN8osgEarth5Splat10SplatLayer14removedFromMapEPKNS_3MapE
libosgEarthSplat.so.0:_ZN8osgEarth5Splat10SplatLayer17setLandCoverLayerEPNS_14LandCoverLayerE
libosgEarthSplat.so.0:_ZN8osgEarth5Splat10SplatLayer19setTerrainResourcesEPNS_16TerrainResourcesE
libosgEarthSplat.so.0:_ZN8osgEarth5Splat10SplatLayer21resizeGLObjectBuffersEj
libosgEarthSplat.so.0:_ZN8osgEarth5Splat10SplatLayer22setLandCoverDictionaryEPNS_19LandCoverDictionaryE
libosgEarthSplat.so.0:_ZN8osgEarth5Splat10SplatLayer4initEv
libosgEarthSplat.so.0:_ZN8osgEarth5Splat10SplatLayerC1ERKNS0_17SplatLayerOptionsE
libosgEarthSplat.so.0:_ZN8osgEarth5Splat10SplatLayerC1Ev
libosgEarthSplat.so.0:_ZN8osgEarth5Splat10SplatLayerC2ERKNS0_17SplatLayerOptionsE
libosgEarthSplat.so.0:_ZN8osgEarth5Splat10SplatLayerC2Ev
libosgEarthSplat.so.0:_ZN8osgEarth5Splat11GroundCover10setDensityEf
libosgEarthSplat.so.0:_ZN8osgEarth5Splat11GroundCover11setContrastEf
libosgEarthSplat.so.0:_ZN8osgEarth5Splat11GroundCover13setBrightnessEf
libosgEarthSplat.so.0:_ZN8osgEarth5Splat11GroundCover14setMaxDistanceEf
libosgEarthSplat.so.0:_ZN8osgEarth5Splat11GroundCover19getOrCreateStateSetEv
libosgEarthSplat.so.0:_ZN8osgEarth5Splat11GroundCover21resizeGLObjectBuffersEj
libosgEarthSplat.so.0:_ZN8osgEarth5Splat11GroundCover7setFillEf
libosgEarthSplat.so.0:_ZN8osgEarth5Splat11GroundCover7setWindEf
libosgEarthSplat.so.0:_ZN8osgEarth5Splat11GroundCover9configureEPKN5osgDB7OptionsE
libosgEarthSplat.so.0:_ZN8osgEarth5Splat11GroundCoverC1ERKNS0_18GroundCoverOptionsE
libosgEarthSplat.so.0:_ZN8osgEarth5Splat11GroundCoverC2ERKNS0_18GroundCoverOptionsE
libosgEarthSplat.so.0:_ZN8osgEarth5Splat11ZoneOptions10fromConfigERKNS_6ConfigE
libosgEarthSplat.so.0:_ZN8osgEarth5Splat12SplatCatalog10fromConfigERKNS_6ConfigE
libosgEarthSplat.so.0:_ZN8osgEarth5Splat12SplatCatalog21createSplatTextureDefEPKN5osgDB7OptionsERNS0_15SplatTextureDefE
libosgEarthSplat.so.0:_ZN8osgEarth5Splat12SplatCatalog4readERKNS_3URIEPKN5osgDB7OptionsE
libosgEarthSplat.so.0:_ZN8osgEarth5Splat12SplatCatalogC1Ev
libosgEarthSplat.so.0:_ZN8osgEarth5Splat12SplatCatalogC2Ev
libosgEarthSplat.so.0:_ZN8osgEarth5Splat12ZoneSwitcherclEPN3osg4NodeEPNS2_11NodeVisitorE
libosgEarthSplat.so.0:_ZN8osgEarth5Splat14SplatRangeDataC1ERKNS_6ConfigE
libosgEarthSplat.so.0:_ZN8osgEarth5Splat14SplatRangeDataC1Ev
libosgEarthSplat.so.0:_ZN8osgEarth5Splat14SplatRangeDataC2ERKNS_6ConfigE
libosgEarthSplat.so.0:_ZN8osgEarth5Splat14SplatRangeDataC2Ev
libosgEarthSplat.so.0:_ZN8osgEarth5Splat15SplatDetailDataC1ERKNS_6ConfigE
libosgEarthSplat.so.0:_ZN8osgEarth5Splat15SplatDetailDataC1Ev
libosgEarthSplat.so.0:_ZN8osgEarth5Splat15SplatDetailDataC2ERKNS_6ConfigE
libosgEarthSplat.so.0:_ZN8osgEarth5Splat15SplatDetailDataC2Ev
libosgEarthSplat.so.0:_ZN8osgEarth5Splat15SplatTextureDef21resizeGLObjectBuffersEj
libosgEarthSplat.so.0:_ZN8osgEarth5Splat16GroundCoverBiome9configureERKNS_13ConfigOptionsEPKN5osgDB7OptionsERSt3mapINS_3URIEN3osg7ref_ptrINSB_5ImageEEESt4lessISA_ESaISt4pairIKSA_SE_EEE
libosgEarthSplat.so.0:_ZN8osgEarth5Splat16GroundCoverLayer10addedToMapEPKNS_3MapE
libosgEarthSplat.so.0:_ZN8osgEarth5Splat16GroundCoverLayer12setMaskLayerEPNS_10ImageLayerE
libosgEarthSplat.so.0:_ZN8osgEarth5Splat16GroundCoverLayer14buildStateSetsEv
libosgEarthSplat.so.0:_ZN8osgEarth5Splat16GroundCoverLayer14removedFromMapEPKNS_3MapE
libosgEarthSplat.so.0:_ZN8osgEarth5Splat16GroundCoverLayer17setLandCoverLayerEPNS_14LandCoverLayerE
libosgEarthSplat.so.0:_ZN8osgEarth5Splat16GroundCoverLayer19setTerrainResourcesEPNS_16TerrainResourcesE
libosgEarthSplat.so.0:_ZN8osgEarth5Splat16GroundCoverLayer21resizeGLObjectBuffersEj
libosgEarthSplat.so.0:_ZN8osgEarth5Splat16GroundCoverLayer22setLandCoverDictionaryEPNS_19LandCoverDictionaryE
libosgEarthSplat.so.0:_ZN8osgEarth5Splat16GroundCoverLayer4initEv
libosgEarthSplat.so.0:_ZN8osgEarth5Splat16GroundCoverLayer4openEv
libosgEarthSplat.so.0:_ZN8osgEarth5Splat16GroundCoverLayerC1ERKNS0_23GroundCoverLayerOptionsE
libosgEarthSplat.so.0:_ZN8osgEarth5Splat16GroundCoverLayerC1Ev
libosgEarthSplat.so.0:_ZN8osgEarth5Splat16GroundCoverLayerC2ERKNS0_23GroundCoverLayerOptionsE
libosgEarthSplat.so.0:_ZN8osgEarth5Splat16GroundCoverLayerC2Ev
libosgEarthSplat.so.0:_ZN8osgEarth5Splat16RoadSurfaceLayer10addedToMapEPKNS_3MapE
libosgEarthSplat.so.0:_ZN8osgEarth5Splat16RoadSurfaceLayer14removedFromMapEPKNS_3MapE
libosgEarthSplat.so.0:_ZN8osgEarth5Splat16RoadSurfaceLayer16setFeatureSourceEPNS_8Features13FeatureSourceE
libosgEarthSplat.so.0:_ZN8osgEarth5Splat16RoadSurfaceLayer21setFeatureSourceLayerEPNS_8Features18FeatureSourceLayerE
libosgEarthSplat.so.0:_ZN8osgEarth5Splat16RoadSurfaceLayer25createImageImplementationERKNS_7TileKeyEPNS_16ProgressCallbackE
libosgEarthSplat.so.0:_ZN8osgEarth5Splat16RoadSurfaceLayer4initEv
libosgEarthSplat.so.0:_ZN8osgEarth5Splat16RoadSurfaceLayer4openEv
libosgEarthSplat.so.0:_ZN8osgEarth5Splat16RoadSurfaceLayerC1ERKNS0_23RoadSurfaceLayerOptionsE
libosgEarthSplat.so.0:_ZN8osgEarth5Splat16RoadSurfaceLayerC1Ev
libosgEarthSplat.so.0:_ZN8osgEarth5Splat16RoadSurfaceLayerC2ERKNS0_23RoadSurfaceLayerOptionsE
libosgEarthSplat.so.0:_ZN8osgEarth5Splat16RoadSurfaceLayerC2Ev
libosgEarthSplat.so.0:_ZN8osgEarth5Splat16SplattingShadersC1Ev
libosgEarthSplat.so.0:_ZN8osgEarth5Splat16SplattingShadersC2Ev
libosgEarthSplat.so.0:_ZN8osgEarth5Splat17LandUseTileSource10initializeEPKN5osgDB7OptionsE
libosgEarthSplat.so.0:_ZN8osgEarth5Splat17LandUseTileSource11createImageERKNS_7TileKeyEPNS_16ProgressCallbackE
libosgEarthSplat.so.0:_ZN8osgEarth5Splat17LandUseTileSourceC1ERKNS0_14LandUseOptionsE
libosgEarthSplat.so.0:_ZN8osgEarth5Splat17LandUseTileSourceC2ERKNS0_14LandUseOptionsE
libosgEarthSplat.so.0:_ZN8osgEarth5Splat17SplatLayerOptions10fromConfigERKNS_6ConfigE
libosgEarthSplat.so.0:_ZN8osgEarth5Splat18GroundCoverOptions10fromConfigERKNS_6ConfigE
libosgEarthSplat.so.0:_ZN8osgEarth5Splat18GroundCoverOptionsC1ERKNS_13ConfigOptionsE
libosgEarthSplat.so.0:_ZN8osgEarth5Splat18GroundCoverOptionsC2ERKNS_13ConfigOptionsE
libosgEarthSplat.so.0:_ZN8osgEarth5Splat18GroundCoverShadersC1Ev
libosgEarthSplat.so.0:_ZN8osgEarth5Splat18GroundCoverShadersC2Ev
libosgEarthSplat.so.0:_ZN8osgEarth5Splat19SplatCoverageLegend10fromConfigERKNS_6ConfigE
libosgEarthSplat.so.0:_ZN8osgEarth5Splat19SplatCoverageLegendC1Ev
libosgEarthSplat.so.0:_ZN8osgEarth5Splat19SplatCoverageLegendC2Ev
libosgEarthSplat.so.0:_ZN8osgEarth5Splat23GroundCoverBiomeOptions10fromConfigERKNS_6ConfigE
libosgEarthSplat.so.0:_ZN8osgEarth5Splat23GroundCoverLayerOptions10fromConfigERKNS_6ConfigE
libosgEarthSplat.so.0:_ZN8osgEarth5Splat4Zone21resizeGLObjectBuffersEj
libosgEarthSplat.so.0:_ZN8osgEarth5Splat4Zone9configureEPKNS_3MapEPKN5osgDB7OptionsE
libosgEarthSplat.so.0:_ZN8osgEarth5Splat4ZoneC1ERKNS0_11ZoneOptionsE
libosgEarthSplat.so.0:_ZN8osgEarth5Splat4ZoneC1Ev
libosgEarthSplat.so.0:_ZN8osgEarth5Splat4ZoneC2ERKNS0_11ZoneOptionsE
libosgEarthSplat.so.0:_ZN8osgEarth5Splat4ZoneC2Ev
libosgEarthSplat.so.0:_ZN8osgEarth5Splat7Surface12loadTexturesEPKNS_19LandCoverDictionaryEPKN5osgDB7OptionsE
libosgEarthSplat.so.0:_ZN8osgEarth5Splat7Surface19getOrCreateStateSetEv
libosgEarthSplat.so.0:_ZN8osgEarth5Splat7Surface21resizeGLObjectBuffersEj
libosgEarthSplat.so.0:_ZN8osgEarth5Splat7Surface9configureERKNS_13ConfigOptionsEPKNS_3MapEPKN5osgDB7OptionsE
libosgEarthSplat.so.0:_ZN8osgEarth5Splat7SurfaceC1Ev
libosgEarthSplat.so.0:_ZN8osgEarth5Splat7SurfaceC2Ev
libosgEarthSplat.so.0:_ZN8osgEarth5Splat8Coverage8setLayerEPNS_10ImageLayerE
libosgEarthSplat.so.0:_ZN8osgEarth5Splat8Coverage9configureERKNS_13ConfigOptionsEPKNS_3MapEPKN5osgDB7OptionsE
libosgEarthSplat.so.0:_ZN8osgEarth5Splat8Coverage9setLegendEPNS0_19SplatCoverageLegendE
libosgEarthSplat.so.0:_ZN8osgEarth5Splat8CoverageC1Ev
libosgEarthSplat.so.0:_ZN8osgEarth5Splat8CoverageC2Ev
libosgEarthSplat.so.0:_ZNK8osgEarth5Splat10SplatClass9getConfigEv
libosgEarthSplat.so.0:_ZNK8osgEarth5Splat10SplatLayer12ZoneSelectorclEPN3osg4NodeEPNS3_11NodeVisitorE
libosgEarthSplat.so.0:_ZNK8osgEarth5Splat10SplatLayer16releaseGLObjectsEPN3osg5StateE
libosgEarthSplat.so.0:_ZNK8osgEarth5Splat11GroundCover10getDensityEv
libosgEarthSplat.so.0:_ZNK8osgEarth5Splat11GroundCover11getContrastEv
libosgEarthSplat.so.0:_ZNK8osgEarth5Splat11GroundCover12createShaderEv
libosgEarthSplat.so.0:_ZNK8osgEarth5Splat11GroundCover13createTextureEv
libosgEarthSplat.so.0:_ZNK8osgEarth5Splat11GroundCover13getBrightnessEv
libosgEarthSplat.so.0:_ZNK8osgEarth5Splat11GroundCover14getMaxDistanceEv
libosgEarthSplat.so.0:_ZNK8osgEarth5Splat11GroundCover16releaseGLObjectsEPN3osg5StateE
libosgEarthSplat.so.0:_ZNK8osgEarth5Splat11GroundCover18getTotalNumObjectsEv
libosgEarthSplat.so.0:_ZNK8osgEarth5Splat11GroundCover21createPredicateShaderEPNS_19LandCoverDictionaryEPNS_14LandCoverLayerE
libosgEarthSplat.so.0:_ZNK8osgEarth5Splat11GroundCover7getFillEv
libosgEarthSplat.so.0:_ZNK8osgEarth5Splat11GroundCover7getWindEv
libosgEarthSplat.so.0:_ZNK8osgEarth5Splat11ZoneOptions9getConfigEv
libosgEarthSplat.so.0:_ZNK8osgEarth5Splat12SplatCatalog9getConfigEv
libosgEarthSplat.so.0:_ZNK8osgEarth5Splat14SplatRangeData9getConfigEv
libosgEarthSplat.so.0:_ZNK8osgEarth5Splat15SplatDetailData9getConfigEv
libosgEarthSplat.so.0:_ZNK8osgEarth5Splat15SplatTextureDef16releaseGLObjectsEPN3osg5StateE
libosgEarthSplat.so.0:_ZNK8osgEarth5Splat16GroundCoverLayer12ZoneSelectorclEPN3osg4NodeEPNS3_11NodeVisitorE
libosgEarthSplat.so.0:_ZNK8osgEarth5Splat16GroundCoverLayer13LayerAcceptor11acceptLayerERN3osg11NodeVisitorEPKNS3_6CameraE
libosgEarthSplat.so.0:_ZNK8osgEarth5Splat16GroundCoverLayer13LayerAcceptor9acceptKeyERKNS_7TileKeyE
libosgEarthSplat.so.0:_ZNK8osgEarth5Splat16GroundCoverLayer16releaseGLObjectsEPN3osg5StateE
libosgEarthSplat.so.0:_ZNK8osgEarth5Splat16GroundCoverLayer6getLODEv
libosgEarthSplat.so.0:_ZNK8osgEarth5Splat16RoadSurfaceLayer7getNodeEv
libosgEarthSplat.so.0:_ZNK8osgEarth5Splat17LandUseTileSource18getCachePolicyHintEv
libosgEarthSplat.so.0:_ZNK8osgEarth5Splat17SplatLayerOptions9getConfigEv
libosgEarthSplat.so.0:_ZNK8osgEarth5Splat18GroundCoverOptions9getConfigEv
libosgEarthSplat.so.0:_ZNK8osgEarth5Splat19NoiseTextureFactory6createEjj
libosgEarthSplat.so.0:_ZNK8osgEarth5Splat19SplatCoverageLegend21getPredicatesForClassERKNSt7__cxx1112basic_stringIcSt11char_traitsIcESaIcEEERSt6vectorIPKNS0_23CoverageValuePredicateTIS7_EESaISE_EE
libosgEarthSplat.so.0:_ZNK8osgEarth5Splat19SplatCoverageLegend9getConfigEv
libosgEarthSplat.so.0:_ZNK8osgEarth5Splat23GroundCoverBiomeOptions9getConfigEv
libosgEarthSplat.so.0:_ZNK8osgEarth5Splat23GroundCoverLayerOptions9getConfigEv
libosgEarthSplat.so.0:_ZNK8osgEarth5Splat4Zone16releaseGLObjectsEPN3osg5StateE
libosgEarthSplat.so.0:_ZNK8osgEarth5Splat4Zone8containsERKN3osg5Vec3fE
libosgEarthSplat.so.0:_ZNK8osgEarth5Splat7Surface15createLUTBufferEPKNS_19LandCoverDictionaryE
libosgEarthSplat.so.0:_ZNK8osgEarth5Splat7Surface16releaseGLObjectsEPN3osg5StateE
libosgEarthSplat.so.0:_ZNK8osgEarth5Splat8Coverage9getLegendEv
libosgEarthSplat.so.0:_ZNK8osgEarth5Splat8Coverage9lockLayerERN3osg7ref_ptrINS_10ImageLayerEEE
libosgEarthSplat.so.0:osgdb_osgearth_landuse
libosgEarthSplat.so.0:osgdb_road_surface
libosgEarthSplat.so.0:osgdb_splat_groundcover
libosgEarthSplat.so.0:osgdb_splat_imagery
libosgEarthSymbology.so.0:_ZN3agg10rasterizer5gammaEPKh
libosgEarthSymbology.so.0:_ZN3agg10rasterizer5gammaEd
libosgEarthSymbology.so.0:_ZN3agg10rasterizer8hit_testEii
libosgEarthSymbology.so.0:_ZN3agg16rendering_buffer6attachEPhjji
libosgEarthSymbology.so.0:_ZN3agg16rendering_bufferC1EPhjji
libosgEarthSymbology.so.0:_ZN3agg16rendering_bufferC2EPhjji
libosgEarthSymbology.so.0:_ZN3agg16rendering_bufferD1Ev
libosgEarthSymbology.so.0:_ZN3agg16rendering_bufferD2Ev
libosgEarthSymbology.so.0:_ZN3agg7outline10sort_cellsEv
libosgEarthSymbology.so.0:_ZN3agg7outline11qsort_cellsEPPNS_4cellEj
libosgEarthSymbology.so.0:_ZN3agg7outline11render_lineEiiii
libosgEarthSymbology.so.0:_ZN3agg7outline14allocate_blockEv
libosgEarthSymbology.so.0:_ZN3agg7outline5cellsEv
libosgEarthSymbology.so.0:_ZN3agg7outline5resetEv
libosgEarthSymbology.so.0:_ZN3agg7outline7line_toEii
libosgEarthSymbology.so.0:_ZN3agg7outline7move_toEii
libosgEarthSymbology.so.0:_ZN3agg7outlineC1Ev
libosgEarthSymbology.so.0:_ZN3agg7outlineC2Ev
libosgEarthSymbology.so.0:_ZN3agg7outlineD1Ev
libosgEarthSymbology.so.0:_ZN3agg7outlineD2Ev
libosgEarthSymbology.so.0:_ZN3agg8scanline5resetEiiii
libosgEarthSymbology.so.0:_ZN3agg8scanline8add_spanEiijj
libosgEarthSymbology.so.0:_ZN3agg8scanlineC1Ev
libosgEarthSymbology.so.0:_ZN3agg8scanlineC2Ev
libosgEarthSymbology.so.0:_ZN3agg8scanlineD1Ev
libosgEarthSymbology.so.0:_ZN3agg8scanlineD2Ev
libosgEarthSymbology.so.0:_ZN8osgEarth9Symbology10BBoxSymbol11mergeConfigERKNS_6ConfigE
libosgEarthSymbology.so.0:_ZN8osgEarth9Symbology10BBoxSymbol8parseSLDERKNS_6ConfigERNS0_5StyleE
libosgEarthSymbology.so.0:_ZN8osgEarth9Symbology10BBoxSymbolC1ERKNS_6ConfigE
libosgEarthSymbology.so.0:_ZN8osgEarth9Symbology10BBoxSymbolC1ERKS1_RKN3osg6CopyOpE
libosgEarthSymbology.so.0:_ZN8osgEarth9Symbology10BBoxSymbolC2ERKNS_6ConfigE
libosgEarthSymbology.so.0:_ZN8osgEarth9Symbology10BBoxSymbolC2ERKS1_RKN3osg6CopyOpE
libosgEarthSymbology.so.0:_ZN8osgEarth9Symbology10IconSymbol11mergeConfigERKNS_6ConfigE
libosgEarthSymbology.so.0:_ZN8osgEarth9Symbology10IconSymbol8parseSLDERKNS_6ConfigERNS0_5StyleE
libosgEarthSymbology.so.0:_ZN8osgEarth9Symbology10IconSymbolC1ERKNS_6ConfigE
libosgEarthSymbology.so.0:_ZN8osgEarth9Symbology10IconSymbolC1ERKS1_RKN3osg6CopyOpE
libosgEarthSymbology.so.0:_ZN8osgEarth9Symbology10IconSymbolC2ERKNS_6ConfigE
libosgEarthSymbology.so.0:_ZN8osgEarth9Symbology10IconSymbolC2ERKS1_RKN3osg6CopyOpE
libosgEarthSymbology.so.0:_ZN8osgEarth9Symbology10LineString10getSegmentEdRN3osg5Vec3dES4_
libosgEarthSymbology.so.0:_ZN8osgEarth9Symbology10LineString5closeEv
libosgEarthSymbology.so.0:_ZN8osgEarth9Symbology10LineStringC1EPKSt6vectorIN3osg5Vec3dESaIS4_EE
libosgEarthSymbology.so.0:_ZN8osgEarth9Symbology10LineStringC1ERKS1_
libosgEarthSymbology.so.0:_ZN8osgEarth9Symbology10LineStringC2EPKSt6vectorIN3osg5Vec3dESaIS4_EE
libosgEarthSymbology.so.0:_ZN8osgEarth9Symbology10LineStringC2ERKS1_
libosgEarthSymbology.so.0:_ZN8osgEarth9Symbology10LineStringD0Ev
libosgEarthSymbology.so.0:_ZN8osgEarth9Symbology10LineStringD1Ev
libosgEarthSymbology.so.0:_ZN8osgEarth9Symbology10LineStringD2Ev
libosgEarthSymbology.so.0:_ZN8osgEarth9Symbology10LineSymbol11mergeConfigERKNS_6ConfigE
libosgEarthSymbology.so.0:_ZN8osgEarth9Symbology10LineSymbol8parseSLDERKNS_6ConfigERNS0_5StyleE
libosgEarthSymbology.so.0:_ZN8osgEarth9Symbology10LineSymbolC1ERKNS_6ConfigE
libosgEarthSymbology.so.0:_ZN8osgEarth9Symbology10LineSymbolC1ERKS1_RKN3osg6CopyOpE
libosgEarthSymbology.so.0:_ZN8osgEarth9Symbology10LineSymbolC2ERKNS_6ConfigE
libosgEarthSymbology.so.0:_ZN8osgEarth9Symbology10LineSymbolC2ERKS1_RKN3osg6CopyOpE
libosgEarthSymbology.so.0:_ZN8osgEarth9Symbology10SkinSymbol11mergeConfigERKNS_6ConfigE
libosgEarthSymbology.so.0:_ZN8osgEarth9Symbology10SkinSymbol8parseSLDERKNS_6ConfigERNS0_5StyleE
libosgEarthSymbology.so.0:_ZN8osgEarth9Symbology10SkinSymbolC1ERKNS_6ConfigE
libosgEarthSymbology.so.0:_ZN8osgEarth9Symbology10SkinSymbolC1ERKS1_RKN3osg6CopyOpE
libosgEarthSymbology.so.0:_ZN8osgEarth9Symbology10SkinSymbolC2ERKNS_6ConfigE
libosgEarthSymbology.so.0:_ZN8osgEarth9Symbology10SkinSymbolC2ERKS1_RKN3osg6CopyOpE
libosgEarthSymbology.so.0:_ZN8osgEarth9Symbology10StyleSheet11mergeConfigERKNS_6ConfigE
libosgEarthSymbology.so.0:_ZN8osgEarth9Symbology10StyleSheet11removeStyleERKNSt7__cxx1112basic_stringIcSt11char_traitsIcESaIcEEE
libosgEarthSymbology.so.0:_ZN8osgEarth9Symbology10StyleSheet15getDefaultStyleEv
libosgEarthSymbology.so.0:_ZN8osgEarth9Symbology10StyleSheet18addResourceLibraryEPNS0_15ResourceLibraryE
libosgEarthSymbology.so.0:_ZN8osgEarth9Symbology10StyleSheet8addStyleERKNS0_5StyleE
libosgEarthSymbology.so.0:_ZN8osgEarth9Symbology10StyleSheet8getStyleERKNSt7__cxx1112basic_stringIcSt11char_traitsIcESaIcEEEb
libosgEarthSymbology.so.0:_ZN8osgEarth9Symbology10StyleSheet9setScriptEPNS1_9ScriptDefE
libosgEarthSymbology.so.0:_ZN8osgEarth9Symbology10StyleSheetC1ERKNS_6ConfigE
libosgEarthSymbology.so.0:_ZN8osgEarth9Symbology10StyleSheetC1Ev
libosgEarthSymbology.so.0:_ZN8osgEarth9Symbology10StyleSheetC2ERKNS_6ConfigE
libosgEarthSymbology.so.0:_ZN8osgEarth9Symbology10StyleSheetC2Ev
libosgEarthSymbology.so.0:_ZN8osgEarth9Symbology10TextSymbol11mergeConfigERKNS_6ConfigE
libosgEarthSymbology.so.0:_ZN8osgEarth9Symbology10TextSymbol8parseSLDERKNS_6ConfigERNS0_5StyleE
libosgEarthSymbology.so.0:_ZN8osgEarth9Symbology10TextSymbolC1ERKNS_6ConfigE
libosgEarthSymbology.so.0:_ZN8osgEarth9Symbology10TextSymbolC1ERKS1_RKN3osg6CopyOpE
libosgEarthSymbology.so.0:_ZN8osgEarth9Symbology10TextSymbolC2ERKNS_6ConfigE
libosgEarthSymbology.so.0:_ZN8osgEarth9Symbology10TextSymbolC2ERKS1_RKN3osg6CopyOpE
libosgEarthSymbology.so.0:_ZN8osgEarth9Symbology11GEOSContext14exportGeometryEPKN4geos4geom8GeometryE
libosgEarthSymbology.so.0:_ZN8osgEarth9Symbology11GEOSContext14importGeometryEPKNS0_8GeometryE
libosgEarthSymbology.so.0:_ZN8osgEarth9Symbology11GEOSContext15disposeGeometryEPN4geos4geom8GeometryE
libosgEarthSymbology.so.0:_ZN8osgEarth9Symbology11GEOSContextC1Ev
libosgEarthSymbology.so.0:_ZN8osgEarth9Symbology11GEOSContextC2Ev
libosgEarthSymbology.so.0:_ZN8osgEarth9Symbology11GEOSContextD1Ev
libosgEarthSymbology.so.0:_ZN8osgEarth9Symbology11GEOSContextD2Ev
libosgEarthSymbology.so.0:_ZN8osgEarth9Symbology11ModelSymbol11mergeConfigERKNS_6ConfigE
libosgEarthSymbology.so.0:_ZN8osgEarth9Symbology11ModelSymbol8parseSLDERKNS_6ConfigERNS0_5StyleE
libosgEarthSymbology.so.0:_ZN8osgEarth9Symbology11ModelSymbolC1ERKNS_6ConfigE
libosgEarthSymbology.so.0:_ZN8osgEarth9Symbology11ModelSymbolC1ERKS1_RKN3osg6CopyOpE
libosgEarthSymbology.so.0:_ZN8osgEarth9Symbology11ModelSymbolC2ERKNS_6ConfigE
libosgEarthSymbology.so.0:_ZN8osgEarth9Symbology11ModelSymbolC2ERKS1_RKN3osg6CopyOpE
libosgEarthSymbology.so.0:_ZN8osgEarth9Symbology11PointSymbol11mergeConfigERKNS_6ConfigE
libosgEarthSymbology.so.0:_ZN8osgEarth9Symbology11PointSymbol8parseSLDERKNS_6ConfigERNS0_5StyleE
libosgEarthSymbology.so.0:_ZN8osgEarth9Symbology11PointSymbolC1ERKNS_6ConfigE
libosgEarthSymbology.so.0:_ZN8osgEarth9Symbology11PointSymbolC1ERKS1_RKN3osg6CopyOpE
libosgEarthSymbology.so.0:_ZN8osgEarth9Symbology11PointSymbolC2ERKNS_6ConfigE
libosgEarthSymbology.so.0:_ZN8osgEarth9Symbology11PointSymbolC2ERKS1_RKN3osg6CopyOpE
libosgEarthSymbology.so.0:_ZN8osgEarth9Symbology12IconResource11mergeConfigERKNS_6ConfigE
libosgEarthSymbology.so.0:_ZN8osgEarth9Symbology12IconResourceC1ERKNS_6ConfigE
libosgEarthSymbology.so.0:_ZN8osgEarth9Symbology12IconResourceC2ERKNS_6ConfigE
libosgEarthSymbology.so.0:_ZN8osgEarth9Symbology12RenderSymbol11mergeConfigERKNS_6ConfigE
libosgEarthSymbology.so.0:_ZN8osgEarth9Symbology12RenderSymbol8parseSLDERKNS_6ConfigERNS0_5StyleE
libosgEarthSymbology.so.0:_ZN8osgEarth9Symbology12RenderSymbolC1ERKNS_6ConfigE
libosgEarthSymbology.so.0:_ZN8osgEarth9Symbology12RenderSymbolC1ERKS1_RKN3osg6CopyOpE
libosgEarthSymbology.so.0:_ZN8osgEarth9Symbology12RenderSymbolC2ERKNS_6ConfigE
libosgEarthSymbology.so.0:_ZN8osgEarth9Symbology12RenderSymbolC2ERKS1_RKN3osg6CopyOpE
libosgEarthSymbology.so.0:_ZN8osgEarth9Symbology12SkinResource11mergeConfigERKNS_6ConfigE
libosgEarthSymbology.so.0:_ZN8osgEarth9Symbology12SkinResourceC1ERKNS_6ConfigE
libosgEarthSymbology.so.0:_ZN8osgEarth9Symbology12SkinResourceC2ERKNS_6ConfigE
libosgEarthSymbology.so.0:_ZN8osgEarth9Symbology13MeshFlattener3runEPN3osg5GroupE
libosgEarthSymbology.so.0:_ZN8osgEarth9Symbology13MeshFlattener3runEPN3osg5GroupEj
libosgEarthSymbology.so.0:_ZN8osgEarth9Symbology13ModelResource11mergeConfigERKNS_6ConfigE
libosgEarthSymbology.so.0:_ZN8osgEarth9Symbology13ModelResource14getBoundingBoxEPKN5osgDB7OptionsE
libosgEarthSymbology.so.0:_ZN8osgEarth9Symbology13ModelResourceC1ERKNS_6ConfigE
libosgEarthSymbology.so.0:_ZN8osgEarth9Symbology13ModelResourceC2ERKNS_6ConfigE
libosgEarthSymbology.so.0:_ZN8osgEarth9Symbology13MultiGeometry20removeColinearPointsEv
libosgEarthSymbology.so.0:_ZN8osgEarth9Symbology13MultiGeometry5closeEv
libosgEarthSymbology.so.0:_ZN8osgEarth9Symbology13MultiGeometry6rewindENS0_8Geometry11OrientationE
libosgEarthSymbology.so.0:_ZN8osgEarth9Symbology13MultiGeometryC1ERKS1_
libosgEarthSymbology.so.0:_ZN8osgEarth9Symbology13MultiGeometryC1ERKSt6vectorIN3osg7ref_ptrINS0_8GeometryEEESaIS6_EE
libosgEarthSymbology.so.0:_ZN8osgEarth9Symbology13MultiGeometryC2ERKS1_
libosgEarthSymbology.so.0:_ZN8osgEarth9Symbology13MultiGeometryC2ERKSt6vectorIN3osg7ref_ptrINS0_8GeometryEEESaIS6_EE
libosgEarthSymbology.so.0:_ZN8osgEarth9Symbology13MultiGeometryD0Ev
libosgEarthSymbology.so.0:_ZN8osgEarth9Symbology13MultiGeometryD1Ev
libosgEarthSymbology.so.0:_ZN8osgEarth9Symbology13MultiGeometryD2Ev
libosgEarthSymbology.so.0:_ZN8osgEarth9Symbology13PolygonSymbol11mergeConfigERKNS_6ConfigE
libosgEarthSymbology.so.0:_ZN8osgEarth9Symbology13PolygonSymbol8parseSLDERKNS_6ConfigERNS0_5StyleE
libosgEarthSymbology.so.0:_ZN8osgEarth9Symbology13PolygonSymbolC1ERKNS_6ConfigE
libosgEarthSymbology.so.0:_ZN8osgEarth9Symbology13PolygonSymbolC1ERKS1_RKN3osg6CopyOpE
libosgEarthSymbology.so.0:_ZN8osgEarth9Symbology13PolygonSymbolC2ERKNS_6ConfigE
libosgEarthSymbology.so.0:_ZN8osgEarth9Symbology13PolygonSymbolC2ERKS1_RKN3osg6CopyOpE
libosgEarthSymbology.so.0:_ZN8osgEarth9Symbology13ResourceCache19getOrCreateStateSetEPNS0_12SkinResourceERN3osg7ref_ptrINS4_8StateSetEEEPKN5osgDB7OptionsE
libosgEarthSymbology.so.0:_ZN8osgEarth9Symbology13ResourceCache22getOrCreateLineTextureERKNS_3URIERN3osg7ref_ptrINS5_7TextureEEEPKN5osgDB7OptionsE
libosgEarthSymbology.so.0:_ZN8osgEarth9Symbology13ResourceCache23getOrCreateInstanceNodeEPNS0_16InstanceResourceERN3osg7ref_ptrINS4_4NodeEEEPKN5osgDB7OptionsE
libosgEarthSymbology.so.0:_ZN8osgEarth9Symbology13ResourceCache25cloneOrCreateInstanceNodeEPNS0_16InstanceResourceERN3osg7ref_ptrINS4_4NodeEEEPKN5osgDB7OptionsE
libosgEarthSymbology.so.0:_ZN8osgEarth9Symbology13ResourceCacheC1Ev
libosgEarthSymbology.so.0:_ZN8osgEarth9Symbology13ResourceCacheC2Ev
libosgEarthSymbology.so.0:_ZN8osgEarth9Symbology13StyleSelector11mergeConfigERKNS_6ConfigE
libosgEarthSymbology.so.0:_ZN8osgEarth9Symbology13StyleSelectorC1ERKNS_6ConfigE
libosgEarthSymbology.so.0:_ZN8osgEarth9Symbology13StyleSelectorC2ERKNS_6ConfigE
libosgEarthSymbology.so.0:_ZN8osgEarth9Symbology14AltitudeSymbol11mergeConfigERKNS_6ConfigE
libosgEarthSymbology.so.0:_ZN8osgEarth9Symbology14AltitudeSymbol8parseSLDERKNS_6ConfigERNS0_5StyleE
libosgEarthSymbology.so.0:_ZN8osgEarth9Symbology14AltitudeSymbolC1ERKNS_6ConfigE
libosgEarthSymbology.so.0:_ZN8osgEarth9Symbology14AltitudeSymbolC1ERKS1_RKN3osg6CopyOpE
libosgEarthSymbology.so.0:_ZN8osgEarth9Symbology14AltitudeSymbolC2ERKNS_6ConfigE
libosgEarthSymbology.so.0:_ZN8osgEarth9Symbology14AltitudeSymbolC2ERKS1_RKN3osg6CopyOpE
libosgEarthSymbology.so.0:_ZN8osgEarth9Symbology14CoverageSymbol11mergeConfigERKNS_6ConfigE
libosgEarthSymbology.so.0:_ZN8osgEarth9Symbology14CoverageSymbol8parseSLDERKNS_6ConfigERNS0_5StyleE
libosgEarthSymbology.so.0:_ZN8osgEarth9Symbology14CoverageSymbolC1ERKNS_6ConfigE
libosgEarthSymbology.so.0:_ZN8osgEarth9Symbology14CoverageSymbolC1ERKS1_RKN3osg6CopyOpE
libosgEarthSymbology.so.0:_ZN8osgEarth9Symbology14CoverageSymbolC2ERKNS_6ConfigE
libosgEarthSymbology.so.0:_ZN8osgEarth9Symbology14CoverageSymbolC2ERKS1_RKN3osg6CopyOpE
libosgEarthSymbology.so.0:_ZN8osgEarth9Symbology14InstanceSymbol11mergeConfigERKNS_6ConfigE
libosgEarthSymbology.so.0:_ZN8osgEarth9Symbology14InstanceSymbolC1ERKNS_6ConfigE
libosgEarthSymbology.so.0:_ZN8osgEarth9Symbology14InstanceSymbolC1ERKS1_RKN3osg6CopyOpE
libosgEarthSymbology.so.0:_ZN8osgEarth9Symbology14InstanceSymbolC2ERKNS_6ConfigE
libosgEarthSymbology.so.0:_ZN8osgEarth9Symbology14InstanceSymbolC2ERKS1_RKN3osg6CopyOpE
libosgEarthSymbology.so.0:_ZN8osgEarth9Symbology14MeshSubdivider3runERN3osg8GeometryEdNS_16GeoInterpolationE
libosgEarthSymbology.so.0:_ZN8osgEarth9Symbology14MeshSubdividerC1ERKN3osg7MatrixdES5_
libosgEarthSymbology.so.0:_ZN8osgEarth9Symbology14MeshSubdividerC2ERKN3osg7MatrixdES5_
libosgEarthSymbology.so.0:_ZN8osgEarth9Symbology14SymbolRegistry3addEPNS0_13SymbolFactoryE
libosgEarthSymbology.so.0:_ZN8osgEarth9Symbology14SymbolRegistry6createERKNS_6ConfigE
libosgEarthSymbology.so.0:_ZN8osgEarth9Symbology14SymbolRegistry8instanceEv
libosgEarthSymbology.so.0:_ZN8osgEarth9Symbology14SymbolRegistryC1Ev
libosgEarthSymbology.so.0:_ZN8osgEarth9Symbology14SymbolRegistryC2Ev
libosgEarthSymbology.so.0:_ZN8osgEarth9Symbology15BillboardSymbol11mergeConfigERKNS_6ConfigE
libosgEarthSymbology.so.0:_ZN8osgEarth9Symbology15BillboardSymbol8parseSLDERKNS_6ConfigERNS0_5StyleE
libosgEarthSymbology.so.0:_ZN8osgEarth9Symbology15BillboardSymbolC1ERKNS_6ConfigE
libosgEarthSymbology.so.0:_ZN8osgEarth9Symbology15BillboardSymbolC1ERKS1_RKN3osg6CopyOpE
libosgEarthSymbology.so.0:_ZN8osgEarth9Symbology15BillboardSymbolC2ERKNS_6ConfigE
libosgEarthSymbology.so.0:_ZN8osgEarth9Symbology15BillboardSymbolC2ERKS1_RKN3osg6CopyOpE
libosgEarthSymbology.so.0:_ZN8osgEarth9Symbology15ExtrusionSymbol11mergeConfigERKNS_6ConfigE
libosgEarthSymbology.so.0:_ZN8osgEarth9Symbology15ExtrusionSymbol8parseSLDERKNS_6ConfigERNS0_5StyleE
libosgEarthSymbology.so.0:_ZN8osgEarth9Symbology15ExtrusionSymbolC1ERKNS_6ConfigE
libosgEarthSymbology.so.0:_ZN8osgEarth9Symbology15ExtrusionSymbolC1ERKS1_RKN3osg6CopyOpE
libosgEarthSymbology.so.0:_ZN8osgEarth9Symbology15ExtrusionSymbolC2ERKNS_6ConfigE
libosgEarthSymbology.so.0:_ZN8osgEarth9Symbology15ExtrusionSymbolC2ERKS1_RKN3osg6CopyOpE
libosgEarthSymbology.so.0:_ZN8osgEarth9Symbology15GeometryFactoryC1EPKNS_16SpatialReferenceE
libosgEarthSymbology.so.0:_ZN8osgEarth9Symbology15GeometryFactoryC2EPKNS_16SpatialReferenceE
libosgEarthSymbology.so.0:_ZN8osgEarth9Symbology15ResourceLibrary10initializeEPKN5osgDB7OptionsE
libosgEarthSymbology.so.0:_ZN8osgEarth9Symbology15ResourceLibrary11addResourceEPNS0_8ResourceE
libosgEarthSymbology.so.0:_ZN8osgEarth9Symbology15ResourceLibrary11mergeConfigERKNS_6ConfigE
libosgEarthSymbology.so.0:_ZN8osgEarth9Symbology15ResourceLibrary14removeResourceEPNS0_8ResourceE
libosgEarthSymbology.so.0:_ZN8osgEarth9Symbology15ResourceLibraryC1ERKNS_6ConfigE
libosgEarthSymbology.so.0:_ZN8osgEarth9Symbology15ResourceLibraryC1ERKNSt7__cxx1112basic_stringIcSt11char_traitsIcESaIcEEERKNS_3URIE
libosgEarthSymbology.so.0:_ZN8osgEarth9Symbology15ResourceLibraryC2ERKNS_6ConfigE
libosgEarthSymbology.so.0:_ZN8osgEarth9Symbology15ResourceLibraryC2ERKNSt7__cxx1112basic_stringIcSt11char_traitsIcESaIcEEERKNS_3URIE
libosgEarthSymbology.so.0:_ZN8osgEarth9Symbology16GeometryIterator4nextEv
libosgEarthSymbology.so.0:_ZN8osgEarth9Symbology16GeometryIterator9fetchNextEv
libosgEarthSymbology.so.0:_ZN8osgEarth9Symbology16GeometryIteratorC1EPNS0_8GeometryEb
libosgEarthSymbology.so.0:_ZN8osgEarth9Symbology16GeometryIteratorC2EPNS0_8GeometryEb
libosgEarthSymbology.so.0:_ZN8osgEarth9Symbology16InstanceResource11mergeConfigERKNS_6ConfigE
libosgEarthSymbology.so.0:_ZN8osgEarth9Symbology16InstanceResourceC1ERKNS_6ConfigE
libosgEarthSymbology.so.0:_ZN8osgEarth9Symbology16InstanceResourceC2ERKNS_6ConfigE
libosgEarthSymbology.so.0:_ZN8osgEarth9Symbology16MeshConsolidator18convertToTrianglesERN3osg8GeometryEb
libosgEarthSymbology.so.0:_ZN8osgEarth9Symbology16MeshConsolidator3runERN3osg5GeodeE
libosgEarthSymbology.so.0:_ZN8osgEarth9Symbology16StringExpression10setLiteralERKNSt7__cxx1112basic_stringIcSt11char_traitsIcESaIcEEE
libosgEarthSymbology.so.0:_ZN8osgEarth9Symbology16StringExpression11mergeConfigERKNS_6ConfigE
libosgEarthSymbology.so.0:_ZN8osgEarth9Symbology16StringExpression3setERKNSt7__cxx1112basic_stringIcSt11char_traitsIcESaIcEEES9_
libosgEarthSymbology.so.0:_ZN8osgEarth9Symbology16StringExpression3setERKSt4pairINSt7__cxx1112basic_stringIcSt11char_traitsIcESaIcEEEjERKS8_
libosgEarthSymbology.so.0:_ZN8osgEarth9Symbology16StringExpression4initEv
libosgEarthSymbology.so.0:_ZN8osgEarth9Symbology16StringExpression8setInfixERKNSt7__cxx1112basic_stringIcSt11char_traitsIcESaIcEEE
libosgEarthSymbology.so.0:_ZN8osgEarth9Symbology16StringExpressionC1ERKNS_6ConfigE
libosgEarthSymbology.so.0:_ZN8osgEarth9Symbology16StringExpressionC1ERKNSt7__cxx1112basic_stringIcSt11char_traitsIcESaIcEEE
libosgEarthSymbology.so.0:_ZN8osgEarth9Symbology16StringExpressionC1ERKNSt7__cxx1112basic_stringIcSt11char_traitsIcESaIcEEERKNS_10URIContextE
libosgEarthSymbology.so.0:_ZN8osgEarth9Symbology16StringExpressionC1ERKS1_
libosgEarthSymbology.so.0:_ZN8osgEarth9Symbology16StringExpressionC1Ev
libosgEarthSymbology.so.0:_ZN8osgEarth9Symbology16StringExpressionC2ERKNS_6ConfigE
libosgEarthSymbology.so.0:_ZN8osgEarth9Symbology16StringExpressionC2ERKNSt7__cxx1112basic_stringIcSt11char_traitsIcESaIcEEE
libosgEarthSymbology.so.0:_ZN8osgEarth9Symbology16StringExpressionC2ERKNSt7__cxx1112basic_stringIcSt11char_traitsIcESaIcEEERKNS_10URIContextE
libosgEarthSymbology.so.0:_ZN8osgEarth9Symbology16StringExpressionC2ERKS1_
libosgEarthSymbology.so.0:_ZN8osgEarth9Symbology16StringExpressionC2Ev
libosgEarthSymbology.so.0:_ZN8osgEarth9Symbology17BillboardResource11mergeConfigERKNS_6ConfigE
libosgEarthSymbology.so.0:_ZN8osgEarth9Symbology17BillboardResourceC1ERKNS_6ConfigE
libosgEarthSymbology.so.0:_ZN8osgEarth9Symbology17BillboardResourceC2ERKNS_6ConfigE
libosgEarthSymbology.so.0:_ZN8osgEarth9Symbology17NumericExpression10setLiteralEd
libosgEarthSymbology.so.0:_ZN8osgEarth9Symbology17NumericExpression11mergeConfigERKNS_6ConfigE
libosgEarthSymbology.so.0:_ZN8osgEarth9Symbology17NumericExpression3setERKSt4pairINSt7__cxx1112basic_stringIcSt11char_traitsIcESaIcEEEjEd
libosgEarthSymbology.so.0:_ZN8osgEarth9Symbology17NumericExpression4initEv
libosgEarthSymbology.so.0:_ZN8osgEarth9Symbology17NumericExpressionC1ERKNS_6ConfigE
libosgEarthSymbology.so.0:_ZN8osgEarth9Symbology17NumericExpressionC1ERKNSt7__cxx1112basic_stringIcSt11char_traitsIcESaIcEEE
libosgEarthSymbology.so.0:_ZN8osgEarth9Symbology17NumericExpressionC1ERKS1_
libosgEarthSymbology.so.0:_ZN8osgEarth9Symbology17NumericExpressionC1Ed
libosgEarthSymbology.so.0:_ZN8osgEarth9Symbology17NumericExpressionC1Ev
libosgEarthSymbology.so.0:_ZN8osgEarth9Symbology17NumericExpressionC2ERKNS_6ConfigE
libosgEarthSymbology.so.0:_ZN8osgEarth9Symbology17NumericExpressionC2ERKNSt7__cxx1112basic_stringIcSt11char_traitsIcESaIcEEE
libosgEarthSymbology.so.0:_ZN8osgEarth9Symbology17NumericExpressionC2ERKS1_
libosgEarthSymbology.so.0:_ZN8osgEarth9Symbology17NumericExpressionC2Ed
libosgEarthSymbology.so.0:_ZN8osgEarth9Symbology17NumericExpressionC2Ev
libosgEarthSymbology.so.0:_ZN8osgEarth9Symbology18GeometryRasterizer4drawEPKNS0_8GeometryERKN3osg5Vec4fE
libosgEarthSymbology.so.0:_ZN8osgEarth9Symbology18GeometryRasterizer8finalizeEv
libosgEarthSymbology.so.0:_ZN8osgEarth9Symbology18GeometryRasterizerC1EPN3osg5ImageERKNS0_5StyleE
libosgEarthSymbology.so.0:_ZN8osgEarth9Symbology18GeometryRasterizerC1EiiRKNS0_5StyleE
libosgEarthSymbology.so.0:_ZN8osgEarth9Symbology18GeometryRasterizerC2EPN3osg5ImageERKNS0_5StyleE
libosgEarthSymbology.so.0:_ZN8osgEarth9Symbology18GeometryRasterizerC2EiiRKNS0_5StyleE
libosgEarthSymbology.so.0:_ZN8osgEarth9Symbology18GeometryRasterizerD0Ev
libosgEarthSymbology.so.0:_ZN8osgEarth9Symbology18GeometryRasterizerD1Ev
libosgEarthSymbology.so.0:_ZN8osgEarth9Symbology18GeometryRasterizerD2Ev
libosgEarthSymbology.so.0:_ZN8osgEarth9Symbology20ConstSegmentIterator4nextEv
libosgEarthSymbology.so.0:_ZN8osgEarth9Symbology20ConstSegmentIteratorC1EPKNS0_8GeometryEb
libosgEarthSymbology.so.0:_ZN8osgEarth9Symbology20ConstSegmentIteratorC2EPKNS0_8GeometryEb
libosgEarthSymbology.so.0:_ZN8osgEarth9Symbology21ConstGeometryIterator4nextEv
libosgEarthSymbology.so.0:_ZN8osgEarth9Symbology21ConstGeometryIterator9fetchNextEv
libosgEarthSymbology.so.0:_ZN8osgEarth9Symbology21ConstGeometryIteratorC1EPKNS0_8GeometryEb
libosgEarthSymbology.so.0:_ZN8osgEarth9Symbology21ConstGeometryIteratorC2EPKNS0_8GeometryEb
libosgEarthSymbology.so.0:_ZN8osgEarth9Symbology24FlattenSceneGraphVisitor11popStateSetEv
libosgEarthSymbology.so.0:_ZN8osgEarth9Symbology24FlattenSceneGraphVisitor12pushStateSetEPN3osg8StateSetE
libosgEarthSymbology.so.0:_ZN8osgEarth9Symbology24FlattenSceneGraphVisitor5applyERN3osg4NodeE
libosgEarthSymbology.so.0:_ZN8osgEarth9Symbology24FlattenSceneGraphVisitor5applyERN3osg5GeodeE
libosgEarthSymbology.so.0:_ZN8osgEarth9Symbology24FlattenSceneGraphVisitor5buildEv
libosgEarthSymbology.so.0:_ZN8osgEarth9Symbology24FlattenSceneGraphVisitorC1Ev
libosgEarthSymbology.so.0:_ZN8osgEarth9Symbology24FlattenSceneGraphVisitorC2Ev
libosgEarthSymbology.so.0:_ZN8osgEarth9Symbology29PrepareForOptimizationVisitor5applyERN3osg4NodeE
libosgEarthSymbology.so.0:_ZN8osgEarth9Symbology29PrepareForOptimizationVisitorC1Ev
libosgEarthSymbology.so.0:_ZN8osgEarth9Symbology29PrepareForOptimizationVisitorC2Ev
libosgEarthSymbology.so.0:_ZN8osgEarth9Symbology4Fill11mergeConfigERKNS_6ConfigE
libosgEarthSymbology.so.0:_ZN8osgEarth9Symbology4Fill4initEv
libosgEarthSymbology.so.0:_ZN8osgEarth9Symbology4FillC1ERKNS0_5ColorE
libosgEarthSymbology.so.0:_ZN8osgEarth9Symbology4FillC1ERKNS_6ConfigE
libosgEarthSymbology.so.0:_ZN8osgEarth9Symbology4FillC1ERKS1_
libosgEarthSymbology.so.0:_ZN8osgEarth9Symbology4FillC1Effff
libosgEarthSymbology.so.0:_ZN8osgEarth9Symbology4FillC1Ev
libosgEarthSymbology.so.0:_ZN8osgEarth9Symbology4FillC2ERKNS0_5ColorE
libosgEarthSymbology.so.0:_ZN8osgEarth9Symbology4FillC2ERKNS_6ConfigE
libosgEarthSymbology.so.0:_ZN8osgEarth9Symbology4FillC2ERKS1_
libosgEarthSymbology.so.0:_ZN8osgEarth9Symbology4FillC2Effff
libosgEarthSymbology.so.0:_ZN8osgEarth9Symbology4FillC2Ev
libosgEarthSymbology.so.0:_ZN8osgEarth9Symbology4Ring4openEv
libosgEarthSymbology.so.0:_ZN8osgEarth9Symbology4Ring5closeEv
libosgEarthSymbology.so.0:_ZN8osgEarth9Symbology4Ring6rewindENS0_8Geometry11OrientationE
libosgEarthSymbology.so.0:_ZN8osgEarth9Symbology4RingC1EPKSt6vectorIN3osg5Vec3dESaIS4_EE
libosgEarthSymbology.so.0:_ZN8osgEarth9Symbology4RingC1ERKS1_
libosgEarthSymbology.so.0:_ZN8osgEarth9Symbology4RingC2EPKSt6vectorIN3osg5Vec3dESaIS4_EE
libosgEarthSymbology.so.0:_ZN8osgEarth9Symbology4RingC2ERKS1_
libosgEarthSymbology.so.0:_ZN8osgEarth9Symbology4RingD0Ev
libosgEarthSymbology.so.0:_ZN8osgEarth9Symbology4RingD1Ev
libosgEarthSymbology.so.0:_ZN8osgEarth9Symbology4RingD2Ev
libosgEarthSymbology.so.0:_ZN8osgEarth9Symbology5Color7fromHSLERKN3osg5Vec4fE
libosgEarthSymbology.so.0:_ZN8osgEarth9Symbology5ColorC1ERKNSt7__cxx1112basic_stringIcSt11char_traitsIcESaIcEEENS1_6FormatE
libosgEarthSymbology.so.0:_ZN8osgEarth9Symbology5ColorC1ERKS1_f
libosgEarthSymbology.so.0:_ZN8osgEarth9Symbology5ColorC1EjNS1_6FormatE
libosgEarthSymbology.so.0:_ZN8osgEarth9Symbology5ColorC2ERKNSt7__cxx1112basic_stringIcSt11char_traitsIcESaIcEEENS1_6FormatE
libosgEarthSymbology.so.0:_ZN8osgEarth9Symbology5ColorC2ERKS1_f
libosgEarthSymbology.so.0:_ZN8osgEarth9Symbology5ColorC2EjNS1_6FormatE
libosgEarthSymbology.so.0:_ZN8osgEarth9Symbology5Query11mergeConfigERKNS_6ConfigE
libosgEarthSymbology.so.0:_ZN8osgEarth9Symbology5QueryC1ERKNS_6ConfigE
libosgEarthSymbology.so.0:_ZN8osgEarth9Symbology5QueryC1ERKS1_
libosgEarthSymbology.so.0:_ZN8osgEarth9Symbology5QueryC2ERKNS_6ConfigE
libosgEarthSymbology.so.0:_ZN8osgEarth9Symbology5QueryC2ERKS1_
libosgEarthSymbology.so.0:_ZN8osgEarth9Symbology5Style11copySymbolsERKS1_
libosgEarthSymbology.so.0:_ZN8osgEarth9Symbology5Style11mergeConfigERKNS_6ConfigEPKNS0_10StyleSheetE
libosgEarthSymbology.so.0:_ZN8osgEarth9Symbology5Style12removeSymbolEPNS0_6SymbolE
libosgEarthSymbology.so.0:_ZN8osgEarth9Symbology5Style7fromSLDERKNS_6ConfigEPKNS0_10StyleSheetE
libosgEarthSymbology.so.0:_ZN8osgEarth9Symbology5Style9addSymbolEPNS0_6SymbolE
libosgEarthSymbology.so.0:_ZN8osgEarth9Symbology5StyleC1ERKNS_6ConfigE
libosgEarthSymbology.so.0:_ZN8osgEarth9Symbology5StyleC1ERKNS_6ConfigEPKNS0_10StyleSheetE
libosgEarthSymbology.so.0:_ZN8osgEarth9Symbology5StyleC1ERKNSt7__cxx1112basic_stringIcSt11char_traitsIcESaIcEEE
libosgEarthSymbology.so.0:_ZN8osgEarth9Symbology5StyleC1ERKS1_RKN3osg6CopyOpE
libosgEarthSymbology.so.0:_ZN8osgEarth9Symbology5StyleC2ERKNS_6ConfigE
libosgEarthSymbology.so.0:_ZN8osgEarth9Symbology5StyleC2ERKNS_6ConfigEPKNS0_10StyleSheetE
libosgEarthSymbology.so.0:_ZN8osgEarth9Symbology5StyleC2ERKNSt7__cxx1112basic_stringIcSt11char_traitsIcESaIcEEE
libosgEarthSymbology.so.0:_ZN8osgEarth9Symbology5StyleC2ERKS1_RKN3osg6CopyOpE
libosgEarthSymbology.so.0:_ZN8osgEarth9Symbology5StyleaSERKS1_
libosgEarthSymbology.so.0:_ZN8osgEarth9Symbology6Stroke11mergeConfigERKNS_6ConfigE
libosgEarthSymbology.so.0:_ZN8osgEarth9Symbology6Stroke4initEv
libosgEarthSymbology.so.0:_ZN8osgEarth9Symbology6StrokeC1ERKNS0_5ColorE
libosgEarthSymbology.so.0:_ZN8osgEarth9Symbology6StrokeC1ERKNS_6ConfigE
libosgEarthSymbology.so.0:_ZN8osgEarth9Symbology6StrokeC1ERKS1_
libosgEarthSymbology.so.0:_ZN8osgEarth9Symbology6StrokeC1Effff
libosgEarthSymbology.so.0:_ZN8osgEarth9Symbology6StrokeC1Ev
libosgEarthSymbology.so.0:_ZN8osgEarth9Symbology6StrokeC2ERKNS0_5ColorE
libosgEarthSymbology.so.0:_ZN8osgEarth9Symbology6StrokeC2ERKNS_6ConfigE
libosgEarthSymbology.so.0:_ZN8osgEarth9Symbology6StrokeC2ERKS1_
libosgEarthSymbology.so.0:_ZN8osgEarth9Symbology6StrokeC2Effff
libosgEarthSymbology.so.0:_ZN8osgEarth9Symbology6StrokeC2Ev
libosgEarthSymbology.so.0:_ZN8osgEarth9Symbology6Symbol11mergeConfigERKNS_6ConfigE
libosgEarthSymbology.so.0:_ZN8osgEarth9Symbology6Symbol5matchERKNSt7__cxx1112basic_stringIcSt11char_traitsIcESaIcEEEPKc
libosgEarthSymbology.so.0:_ZN8osgEarth9Symbology6SymbolC1ERKNS_6ConfigE
libosgEarthSymbology.so.0:_ZN8osgEarth9Symbology6SymbolC1ERKS1_RKN3osg6CopyOpE
libosgEarthSymbology.so.0:_ZN8osgEarth9Symbology6SymbolC2ERKNS_6ConfigE
libosgEarthSymbology.so.0:_ZN8osgEarth9Symbology6SymbolC2ERKS1_RKN3osg6CopyOpE
libosgEarthSymbology.so.0:_ZN8osgEarth9Symbology7Polygon16removeDuplicatesEv
libosgEarthSymbology.so.0:_ZN8osgEarth9Symbology7Polygon20removeColinearPointsEv
libosgEarthSymbology.so.0:_ZN8osgEarth9Symbology7Polygon4openEv
libosgEarthSymbology.so.0:_ZN8osgEarth9Symbology7Polygon5closeEv
libosgEarthSymbology.so.0:_ZN8osgEarth9Symbology7PolygonC1EPKSt6vectorIN3osg5Vec3dESaIS4_EE
libosgEarthSymbology.so.0:_ZN8osgEarth9Symbology7PolygonC1ERKS1_
libosgEarthSymbology.so.0:_ZN8osgEarth9Symbology7PolygonC2EPKSt6vectorIN3osg5Vec3dESaIS4_EE
libosgEarthSymbology.so.0:_ZN8osgEarth9Symbology7PolygonC2ERKS1_
libosgEarthSymbology.so.0:_ZN8osgEarth9Symbology7PolygonD0Ev
libosgEarthSymbology.so.0:_ZN8osgEarth9Symbology7PolygonD1Ev
libosgEarthSymbology.so.0:_ZN8osgEarth9Symbology7PolygonD2Ev
libosgEarthSymbology.so.0:_ZN8osgEarth9Symbology8CssUtils10readConfigERKNSt7__cxx1112basic_stringIcSt11char_traitsIcESaIcEEES9_RNS2_4listINS_6ConfigESaISB_EEE
libosgEarthSymbology.so.0:_ZN8osgEarth9Symbology8CssUtils5splitERKNSt7__cxx1112basic_stringIcSt11char_traitsIcESaIcEEERSt6vectorIS7_SaIS7_EE
libosgEarthSymbology.so.0:_ZN8osgEarth9Symbology8Geometry10delocalizeERKN3osg5Vec3dE
libosgEarthSymbology.so.0:_ZN8osgEarth9Symbology8Geometry16removeDuplicatesEv
libosgEarthSymbology.so.0:_ZN8osgEarth9Symbology8Geometry18hasBufferOperationEv
libosgEarthSymbology.so.0:_ZN8osgEarth9Symbology8Geometry20removeColinearPointsEv
libosgEarthSymbology.so.0:_ZN8osgEarth9Symbology8Geometry5closeEv
libosgEarthSymbology.so.0:_ZN8osgEarth9Symbology8Geometry6createENS1_4TypeEPKSt6vectorIN3osg5Vec3dESaIS5_EE
libosgEarthSymbology.so.0:_ZN8osgEarth9Symbology8Geometry6rewindENS1_11OrientationE
libosgEarthSymbology.so.0:_ZN8osgEarth9Symbology8Geometry8localizeEv
libosgEarthSymbology.so.0:_ZN8osgEarth9Symbology8GeometryC1EPKSt6vectorIN3osg5Vec3dESaIS4_EE
libosgEarthSymbology.so.0:_ZN8osgEarth9Symbology8GeometryC1ERKS1_
libosgEarthSymbology.so.0:_ZN8osgEarth9Symbology8GeometryC1Ei
libosgEarthSymbology.so.0:_ZN8osgEarth9Symbology8GeometryC2EPKSt6vectorIN3osg5Vec3dESaIS4_EE
libosgEarthSymbology.so.0:_ZN8osgEarth9Symbology8GeometryC2ERKS1_
libosgEarthSymbology.so.0:_ZN8osgEarth9Symbology8GeometryC2Ei
libosgEarthSymbology.so.0:_ZN8osgEarth9Symbology8GeometryD0Ev
libosgEarthSymbology.so.0:_ZN8osgEarth9Symbology8GeometryD1Ev
libosgEarthSymbology.so.0:_ZN8osgEarth9Symbology8GeometryD2Ev
libosgEarthSymbology.so.0:_ZN8osgEarth9Symbology8PointSet5closeEv
libosgEarthSymbology.so.0:_ZN8osgEarth9Symbology8PointSetC1ERKS1_
libosgEarthSymbology.so.0:_ZN8osgEarth9Symbology8PointSetC2ERKS1_
libosgEarthSymbology.so.0:_ZN8osgEarth9Symbology8PointSetD0Ev
libosgEarthSymbology.so.0:_ZN8osgEarth9Symbology8PointSetD1Ev
libosgEarthSymbology.so.0:_ZN8osgEarth9Symbology8PointSetD2Ev
libosgEarthSymbology.so.0:_ZN8osgEarth9Symbology8Resource11mergeConfigERKNS_6ConfigE
libosgEarthSymbology.so.0:_ZN8osgEarth9Symbology8ResourceC1ERKNS_6ConfigE
libosgEarthSymbology.so.0:_ZN8osgEarth9Symbology8ResourceC2ERKNS_6ConfigE
libosgEarthSymbology.so.0:_ZNK8osgEarth9Symbology10BBoxSymbol9getConfigEv
libosgEarthSymbology.so.0:_ZNK8osgEarth9Symbology10IconSymbol14createResourceEv
libosgEarthSymbology.so.0:_ZNK8osgEarth9Symbology10IconSymbol8getImageEj
libosgEarthSymbology.so.0:_ZNK8osgEarth9Symbology10IconSymbol9getConfigEv
libosgEarthSymbology.so.0:_ZNK8osgEarth9Symbology10LineSymbol9getConfigEv
libosgEarthSymbology.so.0:_ZNK8osgEarth9Symbology10SkinSymbol9getConfigEv
libosgEarthSymbology.so.0:_ZNK8osgEarth9Symbology10StyleSheet11getSelectorERKNSt7__cxx1112basic_stringIcSt11char_traitsIcESaIcEEE
libosgEarthSymbology.so.0:_ZNK8osgEarth9Symbology10StyleSheet15getDefaultStyleEv
libosgEarthSymbology.so.0:_ZNK8osgEarth9Symbology10StyleSheet18getResourceLibraryERKNSt7__cxx1112basic_stringIcSt11char_traitsIcESaIcEEE
libosgEarthSymbology.so.0:_ZNK8osgEarth9Symbology10StyleSheet25getDefaultResourceLibraryEv
libosgEarthSymbology.so.0:_ZNK8osgEarth9Symbology10StyleSheet8getStyleERKNSt7__cxx1112basic_stringIcSt11char_traitsIcESaIcEEEb
libosgEarthSymbology.so.0:_ZNK8osgEarth9Symbology10StyleSheet9getConfigEv
libosgEarthSymbology.so.0:_ZNK8osgEarth9Symbology10TextSymbol9getConfigEv
libosgEarthSymbology.so.0:_ZNK8osgEarth9Symbology11ModelSymbol14createResourceEv
libosgEarthSymbology.so.0:_ZNK8osgEarth9Symbology11ModelSymbol9getConfigEv
libosgEarthSymbology.so.0:_ZNK8osgEarth9Symbology11PointSymbol9getConfigEv
libosgEarthSymbology.so.0:_ZNK8osgEarth9Symbology12IconResource17createNodeFromURIERKNS_3URIEPKN5osgDB7OptionsE
libosgEarthSymbology.so.0:_ZNK8osgEarth9Symbology12IconResource9getConfigEv
libosgEarthSymbology.so.0:_ZNK8osgEarth9Symbology12RenderSymbol9getConfigEv
libosgEarthSymbology.so.0:_ZNK8osgEarth9Symbology12SkinResource11createImageEPKN5osgDB7OptionsE
libosgEarthSymbology.so.0:_ZNK8osgEarth9Symbology12SkinResource11getUniqueIDB5cxx11Ev
libosgEarthSymbology.so.0:_ZNK8osgEarth9Symbology12SkinResource13createTextureEPKN5osgDB7OptionsE
libosgEarthSymbology.so.0:_ZNK8osgEarth9Symbology12SkinResource13createTextureEPN3osg5ImageE
libosgEarthSymbology.so.0:_ZNK8osgEarth9Symbology12SkinResource14createStateSetEPKN5osgDB7OptionsE
libosgEarthSymbology.so.0:_ZNK8osgEarth9Symbology12SkinResource14createStateSetEPN3osg5ImageE
libosgEarthSymbology.so.0:_ZNK8osgEarth9Symbology12SkinResource9getConfigEv
libosgEarthSymbology.so.0:_ZNK8osgEarth9Symbology13ModelResource17createNodeFromURIERKNS_3URIEPKN5osgDB7OptionsE
libosgEarthSymbology.so.0:_ZNK8osgEarth9Symbology13ModelResource9getConfigEv
libosgEarthSymbology.so.0:_ZNK8osgEarth9Symbology13MultiGeometry16getComponentTypeEv
libosgEarthSymbology.so.0:_ZNK8osgEarth9Symbology13MultiGeometry16getNumGeometriesEv
libosgEarthSymbology.so.0:_ZNK8osgEarth9Symbology13MultiGeometry18getTotalPointCountEv
libosgEarthSymbology.so.0:_ZNK8osgEarth9Symbology13MultiGeometry7cloneAsERKNS0_8Geometry4TypeE
libosgEarthSymbology.so.0:_ZNK8osgEarth9Symbology13MultiGeometry7isValidEv
libosgEarthSymbology.so.0:_ZNK8osgEarth9Symbology13MultiGeometry9getBoundsEv
libosgEarthSymbology.so.0:_ZNK8osgEarth9Symbology13MultiGeometry9getLengthEv
libosgEarthSymbology.so.0:_ZNK8osgEarth9Symbology13PolygonSymbol9getConfigEv
libosgEarthSymbology.so.0:_ZNK8osgEarth9Symbology13StyleSelector20getSelectedStyleNameB5cxx11Ev
libosgEarthSymbology.so.0:_ZNK8osgEarth9Symbology13StyleSelector9getConfigEv
libosgEarthSymbology.so.0:_ZNK8osgEarth9Symbology14AltitudeSymbol9getConfigEv
libosgEarthSymbology.so.0:_ZNK8osgEarth9Symbology14CoverageSymbol9getConfigEv
libosgEarthSymbology.so.0:_ZNK8osgEarth9Symbology14InstanceSymbol6asIconEv
libosgEarthSymbology.so.0:_ZNK8osgEarth9Symbology14InstanceSymbol7asModelEv
libosgEarthSymbology.so.0:_ZNK8osgEarth9Symbology14InstanceSymbol9getConfigEv
libosgEarthSymbology.so.0:_ZNK8osgEarth9Symbology14SymbolRegistry8parseSLDERKNS_6ConfigERNS0_5StyleE
libosgEarthSymbology.so.0:_ZNK8osgEarth9Symbology15BillboardSymbol14createResourceEv
libosgEarthSymbology.so.0:_ZNK8osgEarth9Symbology15BillboardSymbol9getConfigEv
libosgEarthSymbology.so.0:_ZNK8osgEarth9Symbology15ExtrusionSymbol9getConfigEv
libosgEarthSymbology.so.0:_ZNK8osgEarth9Symbology15GeometryFactory12createCircleERKN3osg5Vec3dERKNS_8DistanceEjPNS0_8GeometryE
libosgEarthSymbology.so.0:_ZNK8osgEarth9Symbology15GeometryFactory13createEllipseERKN3osg5Vec3dERKNS_8DistanceES8_RKNS_5AngleEjPNS0_8GeometryE
libosgEarthSymbology.so.0:_ZNK8osgEarth9Symbology15GeometryFactory15createRectangleERKN3osg5Vec3dERKNS_8DistanceES8_
libosgEarthSymbology.so.0:_ZNK8osgEarth9Symbology15GeometryFactory19createEllipticalArcERKN3osg5Vec3dERKNS_8DistanceES8_RKNS_5AngleESB_SB_jPNS0_8GeometryEb
libosgEarthSymbology.so.0:_ZNK8osgEarth9Symbology15GeometryFactory9createArcERKN3osg5Vec3dERKNS_8DistanceERKNS_5AngleESB_jPNS0_8GeometryEb
libosgEarthSymbology.so.0:_ZNK8osgEarth9Symbology15ResourceLibrary11getInstanceERKNSt7__cxx1112basic_stringIcSt11char_traitsIcESaIcEEEPKN5osgDB7OptionsE
libosgEarthSymbology.so.0:_ZNK8osgEarth9Symbology15ResourceLibrary7getSkinEPKNS0_10SkinSymbolERNS_6RandomEPKN5osgDB7OptionsE
libosgEarthSymbology.so.0:_ZNK8osgEarth9Symbology15ResourceLibrary7getSkinERKNSt7__cxx1112basic_stringIcSt11char_traitsIcESaIcEEEPKN5osgDB7OptionsE
libosgEarthSymbology.so.0:_ZNK8osgEarth9Symbology15ResourceLibrary7matchesEPKNS0_10SkinSymbolEPNS0_12SkinResourceE
libosgEarthSymbology.so.0:_ZNK8osgEarth9Symbology15ResourceLibrary8getModelEPKNS0_11ModelSymbolEPKN5osgDB7OptionsE
libosgEarthSymbology.so.0:_ZNK8osgEarth9Symbology15ResourceLibrary8getSkinsEPKNS0_10SkinSymbolERSt6vectorIN3osg7ref_ptrINS0_12SkinResourceEEESaIS9_EEPKN5osgDB7OptionsE
libosgEarthSymbology.so.0:_ZNK8osgEarth9Symbology15ResourceLibrary8getSkinsERSt6vectorIN3osg7ref_ptrINS0_12SkinResourceEEESaIS6_EEPKN5osgDB7OptionsE
libosgEarthSymbology.so.0:_ZNK8osgEarth9Symbology15ResourceLibrary9getConfigEv
libosgEarthSymbology.so.0:_ZNK8osgEarth9Symbology15ResourceLibrary9getModelsEPKNS0_11ModelSymbolERSt6vectorIN3osg7ref_ptrINS0_13ModelResourceEEESaIS9_EEPKN5osgDB7OptionsE
libosgEarthSymbology.so.0:_ZNK8osgEarth9Symbology15ResourceLibrary9getModelsERSt6vectorIN3osg7ref_ptrINS0_13ModelResourceEEESaIS6_EEPKN5osgDB7OptionsE
libosgEarthSymbology.so.0:_ZNK8osgEarth9Symbology16GeometryIterator7hasMoreEv
libosgEarthSymbology.so.0:_ZNK8osgEarth9Symbology16InstanceResource10createNodeEPKN5osgDB7OptionsE
libosgEarthSymbology.so.0:_ZNK8osgEarth9Symbology16InstanceResource9getConfigEv
libosgEarthSymbology.so.0:_ZNK8osgEarth9Symbology16StringExpression4evalB5cxx11Ev
libosgEarthSymbology.so.0:_ZNK8osgEarth9Symbology16StringExpression7evalURIEv
libosgEarthSymbology.so.0:_ZNK8osgEarth9Symbology16StringExpression9getConfigEv
libosgEarthSymbology.so.0:_ZNK8osgEarth9Symbology17BillboardResource17createNodeFromURIERKNS_3URIEPKN5osgDB7OptionsE
libosgEarthSymbology.so.0:_ZNK8osgEarth9Symbology17BillboardResource9getConfigEv
libosgEarthSymbology.so.0:_ZNK8osgEarth9Symbology17NumericExpression4evalEv
libosgEarthSymbology.so.0:_ZNK8osgEarth9Symbology17NumericExpression9getConfigEv
libosgEarthSymbology.so.0:_ZNK8osgEarth9Symbology21ConstGeometryIterator7hasMoreEv
libosgEarthSymbology.so.0:_ZNK8osgEarth9Symbology4Fill9getConfigEv
libosgEarthSymbology.so.0:_ZNK8osgEarth9Symbology4Ring10contains2DEdd
libosgEarthSymbology.so.0:_ZNK8osgEarth9Symbology4Ring15getSignedArea2DEv
libosgEarthSymbology.so.0:_ZNK8osgEarth9Symbology4Ring6isOpenEv
libosgEarthSymbology.so.0:_ZNK8osgEarth9Symbology4Ring7cloneAsERKNS0_8Geometry4TypeE
libosgEarthSymbology.so.0:_ZNK8osgEarth9Symbology4Ring9getLengthEv
libosgEarthSymbology.so.0:_ZNK8osgEarth9Symbology5Color10brightnessEf
libosgEarthSymbology.so.0:_ZNK8osgEarth9Symbology5Color2asENS1_6FormatE
libosgEarthSymbology.so.0:_ZNK8osgEarth9Symbology5Color5asHSLEv
libosgEarthSymbology.so.0:_ZNK8osgEarth9Symbology5Color6toHTMLB5cxx11ENS1_6FormatE
libosgEarthSymbology.so.0:_ZNK8osgEarth9Symbology5Query11combineWithERKS1_
libosgEarthSymbology.so.0:_ZNK8osgEarth9Symbology5Query9getConfigEv
libosgEarthSymbology.so.0:_ZNK8osgEarth9Symbology5Style11combineWithERKS1_
libosgEarthSymbology.so.0:_ZNK8osgEarth9Symbology5Style9getConfigEb
libosgEarthSymbology.so.0:_ZNK8osgEarth9Symbology6Stroke9getConfigEv
libosgEarthSymbology.so.0:_ZNK8osgEarth9Symbology6Symbol9getConfigEv
libosgEarthSymbology.so.0:_ZNK8osgEarth9Symbology7Polygon10contains2DEdd
libosgEarthSymbology.so.0:_ZNK8osgEarth9Symbology7Polygon18getTotalPointCountEv
libosgEarthSymbology.so.0:_ZNK8osgEarth9Symbology8Geometry10differenceEPKNS0_7PolygonERN3osg7ref_ptrIS1_EE
libosgEarthSymbology.so.0:_ZNK8osgEarth9Symbology8Geometry10intersectsEPKS1_
libosgEarthSymbology.so.0:_ZNK8osgEarth9Symbology8Geometry14getOrientationEv
libosgEarthSymbology.so.0:_ZNK8osgEarth9Symbology8Geometry15createVec3ArrayEv
libosgEarthSymbology.so.0:_ZNK8osgEarth9Symbology8Geometry16createVec3dArrayEv
libosgEarthSymbology.so.0:_ZNK8osgEarth9Symbology8Geometry18getTotalPointCountEv
libosgEarthSymbology.so.0:_ZNK8osgEarth9Symbology8Geometry4cropEPKNS0_7PolygonERN3osg7ref_ptrIS1_EE
libosgEarthSymbology.so.0:_ZNK8osgEarth9Symbology8Geometry4cropERKNS_6BoundsERN3osg7ref_ptrIS1_EE
libosgEarthSymbology.so.0:_ZNK8osgEarth9Symbology8Geometry6bufferEdRN3osg7ref_ptrIS1_EERKNS0_16BufferParametersE
libosgEarthSymbology.so.0:_ZNK8osgEarth9Symbology8Geometry7cloneAsERKNS1_4TypeE
libosgEarthSymbology.so.0:_ZNK8osgEarth9Symbology8Geometry8geounionEPKS1_RN3osg7ref_ptrIS1_EE
libosgEarthSymbology.so.0:_ZNK8osgEarth9Symbology8Geometry9getBoundsEv
libosgEarthSymbology.so.0:_ZNK8osgEarth9Symbology8Geometry9getLengthEv
libosgEarthSymbology.so.0:_ZNK8osgEarth9Symbology8Resource9getConfigEv
libosgEarthSymbology.so.0:osgearth_simple_symbol_altitude
libosgEarthSymbology.so.0:osgearth_simple_symbol_bbox
libosgEarthSymbology.so.0:osgearth_simple_symbol_billboard
libosgEarthSymbology.so.0:osgearth_simple_symbol_coverage
libosgEarthSymbology.so.0:osgearth_simple_symbol_extrusion
libosgEarthSymbology.so.0:osgearth_simple_symbol_icon
libosgEarthSymbology.so.0:osgearth_simple_symbol_line
libosgEarthSymbology.so.0:osgearth_simple_symbol_model
libosgEarthSymbology.so.0:osgearth_simple_symbol_point
libosgEarthSymbology.so.0:osgearth_simple_symbol_polygon
libosgEarthSymbology.so.0:osgearth_simple_symbol_render
libosgEarthSymbology.so.0:osgearth_simple_symbol_skin
libosgEarthSymbology.so.0:osgearth_simple_symbol_text
libosgEarthUtil.so.0:_Z10intersectsRKdS0_S0_S0_S0_S0_S0_S0_
libosgEarthUtil.so.0:_Z17getHorizSRSStringB5cxx11PKN8osgEarth16SpatialReferenceE
libosgEarthUtil.so.0:_Z20getAttributionStringB5cxx11PN8osgEarth3MapE
libosgEarthUtil.so.0:_Z23getAllParentalNodePathsPN3osg4NodeES1_
libosgEarthUtil.so.0:_Z9boundSortRKN3osg7ref_ptrINS_4NodeEEES4_
libosgEarthUtil.so.0:_ZN11FeatureTile6acceptEP18FeatureTileVisitor
libosgEarthUtil.so.0:_ZN8osgEarth4Util10ContourMap11onUninstallEPNS_17TerrainEngineNodeE
libosgEarthUtil.so.0:_ZN8osgEarth4Util10ContourMap19setTransferFunctionEPN3osg18TransferFunction1DE
libosgEarthUtil.so.0:_ZN8osgEarth4Util10ContourMap4initEv
libosgEarthUtil.so.0:_ZN8osgEarth4Util10ContourMap5dirtyEv
libosgEarthUtil.so.0:_ZN8osgEarth4Util10ContourMap9onInstallEPNS_17TerrainEngineNodeE
libosgEarthUtil.so.0:_ZN8osgEarth4Util10ContourMapC1ERKNS_13ConfigOptionsE
libosgEarthUtil.so.0:_ZN8osgEarth4Util10ContourMapC1Ev
libosgEarthUtil.so.0:_ZN8osgEarth4Util10ContourMapC2ERKNS_13ConfigOptionsE
libosgEarthUtil.so.0:_ZN8osgEarth4Util10ContourMapC2Ev
libosgEarthUtil.so.0:_ZN8osgEarth4Util10ContourMapD0Ev
libosgEarthUtil.so.0:_ZN8osgEarth4Util10ContourMapD1Ev
libosgEarthUtil.so.0:_ZN8osgEarth4Util10ContourMapD2Ev
libosgEarthUtil.so.0:_ZN8osgEarth4Util10ViewFitterC1EPKNS_16SpatialReferenceEPKN3osg6CameraE
libosgEarthUtil.so.0:_ZN8osgEarth4Util10ViewFitterC2EPKNS_16SpatialReferenceEPKN3osg6CameraE
libosgEarthUtil.so.0:_ZN8osgEarth4Util11ClusterNode10buildIndexEv
libosgEarthUtil.so.0:_ZN8osgEarth4Util11ClusterNode10removeNodeEPN3osg4NodeE
libosgEarthUtil.so.0:_ZN8osgEarth4Util11ClusterNode10setEnabledEb
libosgEarthUtil.so.0:_ZN8osgEarth4Util11ClusterNode10setMapNodeEPNS_7MapNodeE
libosgEarthUtil.so.0:_ZN8osgEarth4Util11ClusterNode11getClustersEPN7osgUtil11CullVisitorERSt6vectorINS1_7ClusterESaIS6_EE
libosgEarthUtil.so.0:_ZN8osgEarth4Util11ClusterNode16getOrCreateLabelEv
libosgEarthUtil.so.0:_ZN8osgEarth4Util11ClusterNode16getStyleCallbackEv
libosgEarthUtil.so.0:_ZN8osgEarth4Util11ClusterNode16setStyleCallbackEPNS1_20StyleClusterCallbackE
libosgEarthUtil.so.0:_ZN8osgEarth4Util11ClusterNode21getCanClusterCallbackEv
libosgEarthUtil.so.0:_ZN8osgEarth4Util11ClusterNode21setCanClusterCallbackEPNS1_18CanClusterCallbackE
libosgEarthUtil.so.0:_ZN8osgEarth4Util11ClusterNode5clearEv
libosgEarthUtil.so.0:_ZN8osgEarth4Util11ClusterNode7addNodeEPN3osg4NodeE
libosgEarthUtil.so.0:_ZN8osgEarth4Util11ClusterNode8traverseERN3osg11NodeVisitorE
libosgEarthUtil.so.0:_ZN8osgEarth4Util11ClusterNode9setRadiusEj
libosgEarthUtil.so.0:_ZN8osgEarth4Util11ClusterNodeC1EPNS_7MapNodeEPN3osg5ImageE
libosgEarthUtil.so.0:_ZN8osgEarth4Util11ClusterNodeC2EPNS_7MapNodeEPN3osg5ImageE
libosgEarthUtil.so.0:_ZN8osgEarth4Util11FogCallbackclEPN3osg14StateAttributeEPNS2_11NodeVisitorE
libosgEarthUtil.so.0:_ZN8osgEarth4Util11LODBlending11onUninstallEPNS_17TerrainEngineNodeE
libosgEarthUtil.so.0:_ZN8osgEarth4Util11LODBlending4initEv
libosgEarthUtil.so.0:_ZN8osgEarth4Util11LODBlending9onInstallEPNS_17TerrainEngineNodeE
libosgEarthUtil.so.0:_ZN8osgEarth4Util11LODBlendingC1ERKNS0_18LODBlendingOptionsE
libosgEarthUtil.so.0:_ZN8osgEarth4Util11LODBlendingC1Ev
libosgEarthUtil.so.0:_ZN8osgEarth4Util11LODBlendingC2ERKNS0_18LODBlendingOptionsE
libosgEarthUtil.so.0:_ZN8osgEarth4Util11LODBlendingC2Ev
libosgEarthUtil.so.0:_ZN8osgEarth4Util11SimplePager10createNodeERKNS_7TileKeyEPNS_16ProgressCallbackE
libosgEarthUtil.so.0:_ZN8osgEarth4Util11SimplePager11addCallbackEPNS1_8CallbackE
libosgEarthUtil.so.0:_ZN8osgEarth4Util11SimplePager13buildRootNodeEv
libosgEarthUtil.so.0:_ZN8osgEarth4Util11SimplePager14removeCallbackEPNS1_8CallbackE
libosgEarthUtil.so.0:_ZN8osgEarth4Util11SimplePager15ProgressTrackerC1EPN3osg12NodeCallbackE
libosgEarthUtil.so.0:_ZN8osgEarth4Util11SimplePager15ProgressTrackerC2EPN3osg12NodeCallbackE
libosgEarthUtil.so.0:_ZN8osgEarth4Util11SimplePager15ProgressTrackerclEPN3osg4NodeEPNS3_11NodeVisitorE
libosgEarthUtil.so.0:_ZN8osgEarth4Util11SimplePager15createPagedNodeERKNS_7TileKeyEPNS_16ProgressCallbackE
libosgEarthUtil.so.0:_ZN8osgEarth4Util11SimplePager17fire_onCreateNodeERKNS_7TileKeyEPN3osg4NodeE
libosgEarthUtil.so.0:_ZN8osgEarth4Util11SimplePager20setEnableCancelationEb
libosgEarthUtil.so.0:_ZN8osgEarth4Util11SimplePager5buildEv
libosgEarthUtil.so.0:_ZN8osgEarth4Util11SimplePager7loadKeyERKNS_7TileKeyEPNS1_15ProgressTrackerE
libosgEarthUtil.so.0:_ZN8osgEarth4Util11SimplePagerC1EPKNS_7ProfileE
libosgEarthUtil.so.0:_ZN8osgEarth4Util11SimplePagerC2EPKNS_7ProfileE
libosgEarthUtil.so.0:_ZN8osgEarth4Util11TFSPackager7packageEPNS_8Features13FeatureSourceERKNSt7__cxx1112basic_stringIcSt11char_traitsIcESaIcEEESC_SC_
libosgEarthUtil.so.0:_ZN8osgEarth4Util11TFSPackagerC1Ev
libosgEarthUtil.so.0:_ZN8osgEarth4Util11TFSPackagerC2Ev
libosgEarthUtil.so.0:_ZN8osgEarth4Util11TMSPackager10setVisitorEPNS_11TileVisitorE
libosgEarthUtil.so.0:_ZN8osgEarth4Util11TMSPackager12setExtensionERKNSt7__cxx1112basic_stringIcSt11char_traitsIcESaIcEEE
libosgEarthUtil.so.0:_ZN8osgEarth4Util11TMSPackager12setLayerNameERKNSt7__cxx1112basic_stringIcSt11char_traitsIcESaIcEEE
libosgEarthUtil.so.0:_ZN8osgEarth4Util11TMSPackager12setOverwriteEb
libosgEarthUtil.so.0:_ZN8osgEarth4Util11TMSPackager13setTileSourceEPNS_10TileSourceE
libosgEarthUtil.so.0:_ZN8osgEarth4Util11TMSPackager14setDestinationERKNSt7__cxx1112basic_stringIcSt11char_traitsIcESaIcEEE
libosgEarthUtil.so.0:_ZN8osgEarth4Util11TMSPackager14setKeepEmptiesEb
libosgEarthUtil.so.0:_ZN8osgEarth4Util11TMSPackager15setWriteOptionsEPN5osgDB7OptionsE
libosgEarthUtil.so.0:_ZN8osgEarth4Util11TMSPackager17setApplyAlphaMaskEb
libosgEarthUtil.so.0:_ZN8osgEarth4Util11TMSPackager22setElevationPixelDepthEj
libosgEarthUtil.so.0:_ZN8osgEarth4Util11TMSPackager3runEPNS_12TerrainLayerEPNS_3MapE
libosgEarthUtil.so.0:_ZN8osgEarth4Util11TMSPackager8writeXMLEPNS_12TerrainLayerEPNS_3MapE
libosgEarthUtil.so.0:_ZN8osgEarth4Util11TMSPackagerC1Ev
libosgEarthUtil.so.0:_ZN8osgEarth4Util11TMSPackagerC2Ev
libosgEarthUtil.so.0:_ZN8osgEarth4Util12AtlasBuilder17addAuxFilePatternERKNSt7__cxx1112basic_stringIcSt11char_traitsIcESaIcEEERKN3osg5Vec4fE
libosgEarthUtil.so.0:_ZN8osgEarth4Util12AtlasBuilder7setSizeEjj
libosgEarthUtil.so.0:_ZN8osgEarth4Util12AtlasBuilderC1EPKN5osgDB7OptionsE
libosgEarthUtil.so.0:_ZN8osgEarth4Util12AtlasBuilderC2EPKN5osgDB7OptionsE
libosgEarthUtil.so.0:_ZN8osgEarth4Util12OceanOptions10fromConfigERKNS_6ConfigE
libosgEarthUtil.so.0:_ZN8osgEarth4Util12OceanOptions11mergeConfigERKNS_6ConfigE
libosgEarthUtil.so.0:_ZN8osgEarth4Util12OceanOptionsC1ERKNS_13ConfigOptionsE
libosgEarthUtil.so.0:_ZN8osgEarth4Util12OceanOptionsC2ERKNS_13ConfigOptionsE
libosgEarthUtil.so.0:_ZN8osgEarth4Util12ShadowCaster12reinitializeEv
libosgEarthUtil.so.0:_ZN8osgEarth4Util12ShadowCaster13setBlurFactorEf
libosgEarthUtil.so.0:_ZN8osgEarth4Util12ShadowCaster14setShadowColorEf
libosgEarthUtil.so.0:_ZN8osgEarth4Util12ShadowCaster14setTextureSizeEj
libosgEarthUtil.so.0:_ZN8osgEarth4Util12ShadowCaster19setTextureImageUnitEi
libosgEarthUtil.so.0:_ZN8osgEarth4Util12ShadowCaster21resizeGLObjectBuffersEj
libosgEarthUtil.so.0:_ZN8osgEarth4Util12ShadowCaster8traverseERN3osg11NodeVisitorE
libosgEarthUtil.so.0:_ZN8osgEarth4Util12ShadowCaster9setRangesERKSt6vectorIfSaIfEE
libosgEarthUtil.so.0:_ZN8osgEarth4Util12ShadowCasterC1Ev
libosgEarthUtil.so.0:_ZN8osgEarth4Util12ShadowCasterC2Ev
libosgEarthUtil.so.0:_ZN8osgEarth4Util12UTMGraticule10addedToMapEPKNS_3MapE
libosgEarthUtil.so.0:_ZN8osgEarth4Util12UTMGraticule14removedFromMapEPKNS_3MapE
libosgEarthUtil.so.0:_ZN8osgEarth4Util12UTMGraticule4initEv
libosgEarthUtil.so.0:_ZN8osgEarth4Util12UTMGraticule5dirtyEv
libosgEarthUtil.so.0:_ZN8osgEarth4Util12UTMGraticule7rebuildEv
libosgEarthUtil.so.0:_ZN8osgEarth4Util12UTMGraticuleC1ERKNS0_19UTMGraticuleOptionsE
libosgEarthUtil.so.0:_ZN8osgEarth4Util12UTMGraticuleC1Ev
libosgEarthUtil.so.0:_ZN8osgEarth4Util12UTMGraticuleC2ERKNS0_19UTMGraticuleOptionsE
libosgEarthUtil.so.0:_ZN8osgEarth4Util12UTMGraticuleC2Ev
libosgEarthUtil.so.0:_ZN8osgEarth4Util13ClampCallback14setTerrainNodeEPN3osg4NodeE
libosgEarthUtil.so.0:_ZN8osgEarth4Util13ClampCallback19setIntersectionMaskEj
libosgEarthUtil.so.0:_ZN8osgEarth4Util13ClampCallback9setOffsetEd
libosgEarthUtil.so.0:_ZN8osgEarth4Util13ClampCallbackC1EPN3osg4NodeE
libosgEarthUtil.so.0:_ZN8osgEarth4Util13ClampCallbackC2EPN3osg4NodeE
libosgEarthUtil.so.0:_ZN8osgEarth4Util13ClampCallbackclEPN3osg4NodeEPNS2_11NodeVisitorE
libosgEarthUtil.so.0:_ZN8osgEarth4Util13GARSGraticule10addedToMapEPKNS_3MapE
libosgEarthUtil.so.0:_ZN8osgEarth4Util13GARSGraticule14removedFromMapEPKNS_3MapE
libosgEarthUtil.so.0:_ZN8osgEarth4Util13GARSGraticule15build30MinCellsEv
libosgEarthUtil.so.0:_ZN8osgEarth4Util13GARSGraticule4initEv
libosgEarthUtil.so.0:_ZN8osgEarth4Util13GARSGraticule5dirtyEv
libosgEarthUtil.so.0:_ZN8osgEarth4Util13GARSGraticule7rebuildEv
libosgEarthUtil.so.0:_ZN8osgEarth4Util13GARSGraticuleC1ERKNS0_20GARSGraticuleOptionsE
libosgEarthUtil.so.0:_ZN8osgEarth4Util13GARSGraticuleC1Ev
libosgEarthUtil.so.0:_ZN8osgEarth4Util13GARSGraticuleC2ERKNS0_20GARSGraticuleOptionsE
libosgEarthUtil.so.0:_ZN8osgEarth4Util13GARSGraticuleC2Ev
libosgEarthUtil.so.0:_ZN8osgEarth4Util13MGRSFormatterC1ENS1_9PrecisionEPKNS_16SpatialReferenceEj
libosgEarthUtil.so.0:_ZN8osgEarth4Util13MGRSFormatterC2ENS1_9PrecisionEPKNS_16SpatialReferenceEj
libosgEarthUtil.so.0:_ZN8osgEarth4Util13MGRSGraticule10addedToMapEPKNS_3MapE
libosgEarthUtil.so.0:_ZN8osgEarth4Util13MGRSGraticule14removedFromMapEPKNS_3MapE
libosgEarthUtil.so.0:_ZN8osgEarth4Util13MGRSGraticule18setUpDefaultStylesEv
libosgEarthUtil.so.0:_ZN8osgEarth4Util13MGRSGraticule4initEv
libosgEarthUtil.so.0:_ZN8osgEarth4Util13MGRSGraticule5dirtyEv
libosgEarthUtil.so.0:_ZN8osgEarth4Util13MGRSGraticule7rebuildEv
libosgEarthUtil.so.0:_ZN8osgEarth4Util13MGRSGraticuleC1ERKNS0_20MGRSGraticuleOptionsE
libosgEarthUtil.so.0:_ZN8osgEarth4Util13MGRSGraticuleC1Ev
libosgEarthUtil.so.0:_ZN8osgEarth4Util13MGRSGraticuleC2ERKNS0_20MGRSGraticuleOptionsE
libosgEarthUtil.so.0:_ZN8osgEarth4Util13MGRSGraticuleC2Ev
libosgEarthUtil.so.0:_ZN8osgEarth4Util13TMSBackFiller10processKeyERKNS_7TileKeyE
libosgEarthUtil.so.0:_ZN8osgEarth4Util13TMSBackFiller11getFilenameB5cxx11ERKNS_7TileKeyE
libosgEarthUtil.so.0:_ZN8osgEarth4Util13TMSBackFiller7processERKNSt7__cxx1112basic_stringIcSt11char_traitsIcESaIcEEEPN5osgDB7OptionsE
libosgEarthUtil.so.0:_ZN8osgEarth4Util13TMSBackFiller8readTileERKNS_7TileKeyE
libosgEarthUtil.so.0:_ZN8osgEarth4Util13TMSBackFiller9writeTileERKNS_7TileKeyEPN3osg5ImageE
libosgEarthUtil.so.0:_ZN8osgEarth4Util13TMSBackFillerC1Ev
libosgEarthUtil.so.0:_ZN8osgEarth4Util13TMSBackFillerC2Ev
libosgEarthUtil.so.0:_ZN8osgEarth4Util13TopologyGraph12dumpBoundaryERKSt6vectorISt23_Rb_tree_const_iteratorINS1_6VertexEESaIS5_EERKNSt7__cxx1112basic_stringIcSt11char_traitsIcESaIcEEE
libosgEarthUtil.so.0:_ZN8osgEarth4Util13TopologyGraphC1Ev
libosgEarthUtil.so.0:_ZN8osgEarth4Util13TopologyGraphC2Ev
libosgEarthUtil.so.0:_ZN8osgEarth4Util13VerticalScale11mergeConfigERKNS_6ConfigE
libosgEarthUtil.so.0:_ZN8osgEarth4Util13VerticalScale11onUninstallEPNS_17TerrainEngineNodeE
libosgEarthUtil.so.0:_ZN8osgEarth4Util13VerticalScale4initEv
libosgEarthUtil.so.0:_ZN8osgEarth4Util13VerticalScale8setScaleEf
libosgEarthUtil.so.0:_ZN8osgEarth4Util13VerticalScale9onInstallEPNS_17TerrainEngineNodeE
libosgEarthUtil.so.0:_ZN8osgEarth4Util13VerticalScaleC1ERKNS_6ConfigE
libosgEarthUtil.so.0:_ZN8osgEarth4Util13VerticalScaleC1Ev
libosgEarthUtil.so.0:_ZN8osgEarth4Util13VerticalScaleC2ERKNS_6ConfigE
libosgEarthUtil.so.0:_ZN8osgEarth4Util13VerticalScaleC2Ev
libosgEarthUtil.so.0:_ZN8osgEarth4Util14HSLColorFilter12setHSLOffsetERKN3osg5Vec3fE
libosgEarthUtil.so.0:_ZN8osgEarth4Util14HSLColorFilter4initEv
libosgEarthUtil.so.0:_ZN8osgEarth4Util14HSLColorFilterC1ERKNS_6ConfigE
libosgEarthUtil.so.0:_ZN8osgEarth4Util14HSLColorFilterC1Ev
libosgEarthUtil.so.0:_ZN8osgEarth4Util14HSLColorFilterC2ERKNS_6ConfigE
libosgEarthUtil.so.0:_ZN8osgEarth4Util14HSLColorFilterC2Ev
libosgEarthUtil.so.0:_ZN8osgEarth4Util14RGBColorFilter12setRGBOffsetERKN3osg5Vec3fE
libosgEarthUtil.so.0:_ZN8osgEarth4Util14RGBColorFilter4initEv
libosgEarthUtil.so.0:_ZN8osgEarth4Util14RGBColorFilterC1ERKNS_6ConfigE
libosgEarthUtil.so.0:_ZN8osgEarth4Util14RGBColorFilterC1Ev
libosgEarthUtil.so.0:_ZN8osgEarth4Util14RGBColorFilterC2ERKNS_6ConfigE
libosgEarthUtil.so.0:_ZN8osgEarth4Util14RGBColorFilterC2Ev
libosgEarthUtil.so.0:_ZN8osgEarth4Util14TerrainProfile12addElevationEdd
libosgEarthUtil.so.0:_ZN8osgEarth4Util14TerrainProfile5clearEv
libosgEarthUtil.so.0:_ZN8osgEarth4Util14TerrainProfileC1ERKS1_
libosgEarthUtil.so.0:_ZN8osgEarth4Util14TerrainProfileC1Ev
libosgEarthUtil.so.0:_ZN8osgEarth4Util14TerrainProfileC2ERKS1_
libosgEarthUtil.so.0:_ZN8osgEarth4Util14TerrainProfileC2Ev
libosgEarthUtil.so.0:_ZN8osgEarth4Util14WFSFeatureTypeC1Ev
libosgEarthUtil.so.0:_ZN8osgEarth4Util14WFSFeatureTypeC2Ev
libosgEarthUtil.so.0:_ZN8osgEarth4Util15CMYKColorFilter12setCMYOffsetERKN3osg5Vec3fE
libosgEarthUtil.so.0:_ZN8osgEarth4Util15CMYKColorFilter13setCMYKOffsetERKN3osg5Vec4fE
libosgEarthUtil.so.0:_ZN8osgEarth4Util15CMYKColorFilter4initEv
libosgEarthUtil.so.0:_ZN8osgEarth4Util15CMYKColorFilterC1ERKNS_6ConfigE
libosgEarthUtil.so.0:_ZN8osgEarth4Util15CMYKColorFilterC1Ev
libosgEarthUtil.so.0:_ZN8osgEarth4Util15CMYKColorFilterC2ERKNS_6ConfigE
libosgEarthUtil.so.0:_ZN8osgEarth4Util15CMYKColorFilterC2Ev
libosgEarthUtil.so.0:_ZN8osgEarth4Util15FlatteningLayer10addedToMapEPKNS_3MapE
libosgEarthUtil.so.0:_ZN8osgEarth4Util15FlatteningLayer14removedFromMapEPKNS_3MapE
libosgEarthUtil.so.0:_ZN8osgEarth4Util15FlatteningLayer16setFeatureSourceEPNS_8Features13FeatureSourceE
libosgEarthUtil.so.0:_ZN8osgEarth4Util15FlatteningLayer20createImplementationERKNS_7TileKeyERN3osg7ref_ptrINS5_11HeightFieldEEERNS6_INS_9NormalMapEEEPNS_16ProgressCallbackE
libosgEarthUtil.so.0:_ZN8osgEarth4Util15FlatteningLayer21setFeatureSourceLayerEPNS_8Features18FeatureSourceLayerE
libosgEarthUtil.so.0:_ZN8osgEarth4Util15FlatteningLayer4initEv
libosgEarthUtil.so.0:_ZN8osgEarth4Util15FlatteningLayer4openEv
libosgEarthUtil.so.0:_ZN8osgEarth4Util15FlatteningLayerC1ERKNS0_22FlatteningLayerOptionsE
libosgEarthUtil.so.0:_ZN8osgEarth4Util15FlatteningLayerC2ERKNS0_22FlatteningLayerOptionsE
libosgEarthUtil.so.0:_ZN8osgEarth4Util15FlatteningLayerD0Ev
libosgEarthUtil.so.0:_ZN8osgEarth4Util15FlatteningLayerD1Ev
libosgEarthUtil.so.0:_ZN8osgEarth4Util15FlatteningLayerD2Ev
libosgEarthUtil.so.0:_ZN8osgEarth4Util15GLSLColorFilter4initEv
libosgEarthUtil.so.0:_ZN8osgEarth4Util15GLSLColorFilterC1ERKNS_6ConfigE
libosgEarthUtil.so.0:_ZN8osgEarth4Util15GLSLColorFilterC1Ev
libosgEarthUtil.so.0:_ZN8osgEarth4Util15GLSLColorFilterC2ERKNS_6ConfigE
libosgEarthUtil.so.0:_ZN8osgEarth4Util15GLSLColorFilterC2Ev
libosgEarthUtil.so.0:_ZN8osgEarth4Util15MouseCoordsTool11addCallbackEPNS1_8CallbackE
libosgEarthUtil.so.0:_ZN8osgEarth4Util15MouseCoordsTool6handleERKN5osgGA15GUIEventAdapterERNS2_16GUIActionAdapterE
libosgEarthUtil.so.0:_ZN8osgEarth4Util15MouseCoordsToolC1EPNS_7MapNodeEPNS0_8Controls12LabelControlEPNS0_9FormatterE
libosgEarthUtil.so.0:_ZN8osgEarth4Util15MouseCoordsToolC2EPNS_7MapNodeEPNS0_8Controls12LabelControlEPNS0_9FormatterE
libosgEarthUtil.so.0:_ZN8osgEarth4Util15TFSReaderWriter4readERKNS_3URIEPKN5osgDB7OptionsERNS0_8TFSLayerE
libosgEarthUtil.so.0:_ZN8osgEarth4Util15TFSReaderWriter4readERSiRNS0_8TFSLayerE
libosgEarthUtil.so.0:_ZN8osgEarth4Util15TFSReaderWriter5writeERKNS0_8TFSLayerERKNSt7__cxx1112basic_stringIcSt11char_traitsIcESaIcEEE
libosgEarthUtil.so.0:_ZN8osgEarth4Util15TFSReaderWriter5writeERKNS0_8TFSLayerERSo
libosgEarthUtil.so.0:_ZN8osgEarth4Util15TopologyBuilder18assignAndPropagateERSt23_Rb_tree_const_iteratorINS0_13TopologyGraph6VertexEEj
libosgEarthUtil.so.0:_ZN8osgEarth4Util15TopologyBuilder3addEj
libosgEarthUtil.so.0:_ZN8osgEarth4Util15TopologyBuilder6createEPKN3osg13TemplateArrayINS2_5Vec3fELNS2_5Array4TypeE28ELi3ELi5126EEEPKNS2_12PrimitiveSetERKNSt7__cxx1112basic_stringIcSt11char_traitsIcESaIcEEE
libosgEarthUtil.so.0:_ZN8osgEarth4Util15TopologyBuilderC1Ev
libosgEarthUtil.so.0:_ZN8osgEarth4Util15TopologyBuilderC2Ev
libosgEarthUtil.so.0:_ZN8osgEarth4Util15TopologyBuilderclEjjj
libosgEarthUtil.so.0:_ZN8osgEarth4Util15WFSCapabilities20getFeatureTypeByNameERKNSt7__cxx1112basic_stringIcSt11char_traitsIcESaIcEEE
libosgEarthUtil.so.0:_ZN8osgEarth4Util15WFSCapabilitiesC1Ev
libosgEarthUtil.so.0:_ZN8osgEarth4Util15WFSCapabilitiesC2Ev
libosgEarthUtil.so.0:_ZN8osgEarth4Util15WMSCapabilities14getLayerByNameERKNSt7__cxx1112basic_stringIcSt11char_traitsIcESaIcEEE
libosgEarthUtil.so.0:_ZN8osgEarth4Util15WMSCapabilities16suggestExtensionB5cxx11Ev
libosgEarthUtil.so.0:_ZN8osgEarth4Util15WMSCapabilitiesC1Ev
libosgEarthUtil.so.0:_ZN8osgEarth4Util15WMSCapabilitiesC2Ev
libosgEarthUtil.so.0:_ZN8osgEarth4Util16EarthManipulator10resetMouseERN5osgGA16GUIActionAdapterEb
libosgEarthUtil.so.0:_ZN8osgEarth4Util16EarthManipulator11establishedEv
libosgEarthUtil.so.0:_ZN8osgEarth4Util16EarthManipulator11resetLookAtEv
libosgEarthUtil.so.0:_ZN8osgEarth4Util16EarthManipulator11serviceTaskEv
libosgEarthUtil.so.0:_ZN8osgEarth4Util16EarthManipulator11setByLookAtERKN3osg5Vec3dES5_S5_
libosgEarthUtil.so.0:_ZN8osgEarth4Util16EarthManipulator11setByMatrixERKN3osg7MatrixdE
libosgEarthUtil.so.0:_ZN8osgEarth4Util16EarthManipulator11setDistanceEd
libosgEarthUtil.so.0:_ZN8osgEarth4Util16EarthManipulator12handleActionERKNS1_6ActionEddd
libosgEarthUtil.so.0:_ZN8osgEarth4Util16EarthManipulator12reinitializeEv
libosgEarthUtil.so.0:_ZN8osgEarth4Util16EarthManipulator12setViewpointERKNS_9ViewpointEd
libosgEarthUtil.so.0:_ZN8osgEarth4Util16EarthManipulator12updateCameraERN3osg6CameraE
libosgEarthUtil.so.0:_ZN8osgEarth4Util16EarthManipulator12updateTetherEd
libosgEarthUtil.so.0:_ZN8osgEarth4Util16EarthManipulator13addMouseEventERKN5osgGA15GUIEventAdapterE
libosgEarthUtil.so.0:_ZN8osgEarth4Util16EarthManipulator13applySettingsEPNS1_8SettingsE
libosgEarthUtil.so.0:_ZN8osgEarth4Util16EarthManipulator14addTouchEventsERKN5osgGA15GUIEventAdapterE
libosgEarthUtil.so.0:_ZN8osgEarth4Util16EarthManipulator14clearViewpointEv
libosgEarthUtil.so.0:_ZN8osgEarth4Util16EarthManipulator14setByLookAtRawERKN3osg5Vec3dES5_S5_
libosgEarthUtil.so.0:_ZN8osgEarth4Util16EarthManipulator14setInitialVFOVEd
libosgEarthUtil.so.0:_ZN8osgEarth4Util16EarthManipulator15collisionDetectEv
libosgEarthUtil.so.0:_ZN8osgEarth4Util16EarthManipulator15handleTileAddedERKNS_7TileKeyEPN3osg4NodeERNS_22TerrainCallbackContextE
libosgEarthUtil.so.0:_ZN8osgEarth4Util16EarthManipulator15recalculateRollEv
libosgEarthUtil.so.0:_ZN8osgEarth4Util16EarthManipulator16parseTouchEventsERSt6vectorINS1_10TouchEventESaIS3_EE
libosgEarthUtil.so.0:_ZN8osgEarth4Util16EarthManipulator16setHomeViewpointERKNS_9ViewpointEd
libosgEarthUtil.so.0:_ZN8osgEarth4Util16EarthManipulator16updateProjectionEPN3osg6CameraE
libosgEarthUtil.so.0:_ZN8osgEarth4Util16EarthManipulator17handleMouseActionERKNS1_6ActionEPN3osg4ViewE
libosgEarthUtil.so.0:_ZN8osgEarth4Util16EarthManipulator17handlePointActionERKNS1_6ActionEffPN3osg4ViewE
libosgEarthUtil.so.0:_ZN8osgEarth4Util16EarthManipulator17recalculateCenterERKN3osg7MatrixdE
libosgEarthUtil.so.0:_ZN8osgEarth4Util16EarthManipulator17setViewpointFrameEd
libosgEarthUtil.so.0:_ZN8osgEarth4Util16EarthManipulator18handleScrollActionERKNS1_6ActionEd
libosgEarthUtil.so.0:_ZN8osgEarth4Util16EarthManipulator19computeHomePositionEv
libosgEarthUtil.so.0:_ZN8osgEarth4Util16EarthManipulator20applyOptionsToDeltasERKNS1_6ActionERdS5_
libosgEarthUtil.so.0:_ZN8osgEarth4Util16EarthManipulator20flushMouseEventStackEv
libosgEarthUtil.so.0:_ZN8osgEarth4Util16EarthManipulator20handleKeyboardActionERKNS1_6ActionEd
libosgEarthUtil.so.0:_ZN8osgEarth4Util16EarthManipulator20handleMovementActionERKNS1_10ActionTypeEddPN3osg4ViewE
libosgEarthUtil.so.0:_ZN8osgEarth4Util16EarthManipulator22handleContinuousActionERKNS1_6ActionEPN3osg4ViewE
libosgEarthUtil.so.0:_ZN8osgEarth4Util16EarthManipulator22handleMouseClickActionERKNS1_6ActionE
libosgEarthUtil.so.0:_ZN8osgEarth4Util16EarthManipulator24configureDefaultSettingsEv
libosgEarthUtil.so.0:_ZN8osgEarth4Util16EarthManipulator26setUpdateCameraNodeVisitorEPN3osg11NodeVisitorE
libosgEarthUtil.so.0:_ZN8osgEarth4Util16EarthManipulator31recalculateCenterFromLookVectorEv
libosgEarthUtil.so.0:_ZN8osgEarth4Util16EarthManipulator34collapseTetherRotationIntoRotationEv
libosgEarthUtil.so.0:_ZN8osgEarth4Util16EarthManipulator3panEdd
libosgEarthUtil.so.0:_ZN8osgEarth4Util16EarthManipulator4dragEddPN3osg4ViewE
libosgEarthUtil.so.0:_ZN8osgEarth4Util16EarthManipulator4homeERKN5osgGA15GUIEventAdapterERNS2_16GUIActionAdapterE
libosgEarthUtil.so.0:_ZN8osgEarth4Util16EarthManipulator4homeEd
libosgEarthUtil.so.0:_ZN8osgEarth4Util16EarthManipulator4initERKN5osgGA15GUIEventAdapterERNS2_16GUIActionAdapterE
libosgEarthUtil.so.0:_ZN8osgEarth4Util16EarthManipulator4zoomEdd
libosgEarthUtil.so.0:_ZN8osgEarth4Util16EarthManipulator6Action4initEv
libosgEarthUtil.so.0:_ZN8osgEarth4Util16EarthManipulator6ActionC1ENS1_10ActionTypeE
libosgEarthUtil.so.0:_ZN8osgEarth4Util16EarthManipulator6ActionC1ENS1_10ActionTypeERKNS1_13ActionOptionsE
libosgEarthUtil.so.0:_ZN8osgEarth4Util16EarthManipulator6ActionC1ERKS2_
libosgEarthUtil.so.0:_ZN8osgEarth4Util16EarthManipulator6ActionC2ENS1_10ActionTypeE
libosgEarthUtil.so.0:_ZN8osgEarth4Util16EarthManipulator6ActionC2ENS1_10ActionTypeERKNS1_13ActionOptionsE
libosgEarthUtil.so.0:_ZN8osgEarth4Util16EarthManipulator6ActionC2ERKS2_
libosgEarthUtil.so.0:_ZN8osgEarth4Util16EarthManipulator6handleERKN5osgGA15GUIEventAdapterERNS2_16GUIActionAdapterE
libosgEarthUtil.so.0:_ZN8osgEarth4Util16EarthManipulator6rotateEdd
libosgEarthUtil.so.0:_ZN8osgEarth4Util16EarthManipulator7getNodeEv
libosgEarthUtil.so.0:_ZN8osgEarth4Util16EarthManipulator7setNodeEPN3osg4NodeE
libosgEarthUtil.so.0:_ZN8osgEarth4Util16EarthManipulator8Settings10bindScrollENS1_10ActionTypeEiiRKNS1_13ActionOptionsE
libosgEarthUtil.so.0:_ZN8osgEarth4Util16EarthManipulator8Settings12setMaxOffsetEdd
libosgEarthUtil.so.0:_ZN8osgEarth4Util16EarthManipulator8Settings13bindMultiDragENS1_10ActionTypeERKNS1_13ActionOptionsE
libosgEarthUtil.so.0:_ZN8osgEarth4Util16EarthManipulator8Settings14bindMouseClickENS1_10ActionTypeEiiRKNS1_13ActionOptionsE
libosgEarthUtil.so.0:_ZN8osgEarth4Util16EarthManipulator8Settings14setMinMaxPitchEdd
libosgEarthUtil.so.0:_ZN8osgEarth4Util16EarthManipulator8Settings17setMinMaxDistanceEdd
libosgEarthUtil.so.0:_ZN8osgEarth4Util16EarthManipulator8Settings20bindMouseDoubleClickENS1_10ActionTypeEiiRKNS1_13ActionOptionsE
libosgEarthUtil.so.0:_ZN8osgEarth4Util16EarthManipulator8Settings26setArcViewpointTransitionsEb
libosgEarthUtil.so.0:_ZN8osgEarth4Util16EarthManipulator8Settings30setAutoViewpointDurationLimitsEdd
libosgEarthUtil.so.0:_ZN8osgEarth4Util16EarthManipulator8Settings31setAutoViewpointDurationEnabledEb
libosgEarthUtil.so.0:_ZN8osgEarth4Util16EarthManipulator8Settings4bindERKNS1_9InputSpecERKNS1_6ActionE
libosgEarthUtil.so.0:_ZN8osgEarth4Util16EarthManipulator8Settings5applyERN3osg14ArgumentParserE
libosgEarthUtil.so.0:_ZN8osgEarth4Util16EarthManipulator8Settings7bindKeyENS1_10ActionTypeEiiRKNS1_13ActionOptionsE
libosgEarthUtil.so.0:_ZN8osgEarth4Util16EarthManipulator8Settings9bindMouseENS1_10ActionTypeEiiRKNS1_13ActionOptionsE
libosgEarthUtil.so.0:_ZN8osgEarth4Util16EarthManipulator8Settings9bindPinchENS1_10ActionTypeERKNS1_13ActionOptionsE
libosgEarthUtil.so.0:_ZN8osgEarth4Util16EarthManipulator8Settings9bindTwistENS1_10ActionTypeERKNS1_13ActionOptionsE
libosgEarthUtil.so.0:_ZN8osgEarth4Util16EarthManipulator8SettingsC1ERKS2_
libosgEarthUtil.so.0:_ZN8osgEarth4Util16EarthManipulator8SettingsC1Ev
libosgEarthUtil.so.0:_ZN8osgEarth4Util16EarthManipulator8SettingsC2ERKS2_
libosgEarthUtil.so.0:_ZN8osgEarth4Util16EarthManipulator8SettingsC2Ev
libosgEarthUtil.so.0:_ZN8osgEarth4Util16EarthManipulator9ctor_initEv
libosgEarthUtil.so.0:_ZN8osgEarth4Util16EarthManipulator9setCenterERKN3osg5Vec3dE
libosgEarthUtil.so.0:_ZN8osgEarth4Util16EarthManipulator9setLookAtERKN3osg5Vec3dEdddS5_
libosgEarthUtil.so.0:_ZN8osgEarth4Util16EarthManipulatorC1ERKS1_
libosgEarthUtil.so.0:_ZN8osgEarth4Util16EarthManipulatorC1ERN3osg14ArgumentParserE
libosgEarthUtil.so.0:_ZN8osgEarth4Util16EarthManipulatorC1Ev
libosgEarthUtil.so.0:_ZN8osgEarth4Util16EarthManipulatorC2ERKS1_
libosgEarthUtil.so.0:_ZN8osgEarth4Util16EarthManipulatorC2ERN3osg14ArgumentParserE
libosgEarthUtil.so.0:_ZN8osgEarth4Util16EarthManipulatorC2Ev
libosgEarthUtil.so.0:_ZN8osgEarth4Util16EarthManipulatorD0Ev
libosgEarthUtil.so.0:_ZN8osgEarth4Util16EarthManipulatorD1Ev
libosgEarthUtil.so.0:_ZN8osgEarth4Util16EarthManipulatorD2Ev
libosgEarthUtil.so.0:_ZN8osgEarth4Util16GammaColorFilter4initEv
libosgEarthUtil.so.0:_ZN8osgEarth4Util16GammaColorFilter8setGammaERKN3osg5Vec3fE
libosgEarthUtil.so.0:_ZN8osgEarth4Util16GammaColorFilter8setGammaEf
libosgEarthUtil.so.0:_ZN8osgEarth4Util16GammaColorFilterC1ERKNS_6ConfigE
libosgEarthUtil.so.0:_ZN8osgEarth4Util16GammaColorFilterC1Ev
libosgEarthUtil.so.0:_ZN8osgEarth4Util16GammaColorFilterC2ERKNS_6ConfigE
libosgEarthUtil.so.0:_ZN8osgEarth4Util16GammaColorFilterC2Ev
libosgEarthUtil.so.0:_ZN8osgEarth4Util16LatLongFormatter10parseAngleERKNSt7__cxx1112basic_stringIcSt11char_traitsIcESaIcEEERNS_5AngleE
libosgEarthUtil.so.0:_ZN8osgEarth4Util16LatLongFormatterC1ERKNS1_13AngularFormatEj
libosgEarthUtil.so.0:_ZN8osgEarth4Util16LatLongFormatterC2ERKNS1_13AngularFormatEj
libosgEarthUtil.so.0:_ZN8osgEarth4Util16NightColorFilter4initEv
libosgEarthUtil.so.0:_ZN8osgEarth4Util16NightColorFilterC1ERKNS_6ConfigE
libosgEarthUtil.so.0:_ZN8osgEarth4Util16NightColorFilterC1Ev
libosgEarthUtil.so.0:_ZN8osgEarth4Util16NightColorFilterC2ERKNS_6ConfigE
libosgEarthUtil.so.0:_ZN8osgEarth4Util16NightColorFilterC2Ev
libosgEarthUtil.so.0:_ZN8osgEarth4Util16SimpleOceanLayer10addedToMapEPKNS_3MapE
libosgEarthUtil.so.0:_ZN8osgEarth4Util16SimpleOceanLayer11setSeaLevelEf
libosgEarthUtil.so.0:_ZN8osgEarth4Util16SimpleOceanLayer12setMaskLayerEPKNS_10ImageLayerE
libosgEarthUtil.so.0:_ZN8osgEarth4Util16SimpleOceanLayer14removedFromMapEPKNS_3MapE
libosgEarthUtil.so.0:_ZN8osgEarth4Util16SimpleOceanLayer14setMaxAltitudeEf
libosgEarthUtil.so.0:_ZN8osgEarth4Util16SimpleOceanLayer19setTerrainResourcesEPNS_16TerrainResourcesE
libosgEarthUtil.so.0:_ZN8osgEarth4Util16SimpleOceanLayer4initEv
libosgEarthUtil.so.0:_ZN8osgEarth4Util16SimpleOceanLayer8setColorERKNS_9Symbology5ColorE
libosgEarthUtil.so.0:_ZN8osgEarth4Util16SimpleOceanLayerC1ERKNS0_23SimpleOceanLayerOptionsE
libosgEarthUtil.so.0:_ZN8osgEarth4Util16SimpleOceanLayerC1Ev
libosgEarthUtil.so.0:_ZN8osgEarth4Util16SimpleOceanLayerC2ERKNS0_23SimpleOceanLayerOptionsE
libosgEarthUtil.so.0:_ZN8osgEarth4Util16SimpleOceanLayerC2Ev
libosgEarthUtil.so.0:_ZN8osgEarth4Util16TileIndexBuilder15expandFilenamesEv
libosgEarthUtil.so.0:_ZN8osgEarth4Util16TileIndexBuilder19setProgressCallbackEPNS_16ProgressCallbackE
libosgEarthUtil.so.0:_ZN8osgEarth4Util16TileIndexBuilder5buildERKNSt7__cxx1112basic_stringIcSt11char_traitsIcESaIcEEEPKNS_16SpatialReferenceE
libosgEarthUtil.so.0:_ZN8osgEarth4Util16TileIndexBuilderC1Ev
libosgEarthUtil.so.0:_ZN8osgEarth4Util16TileIndexBuilderC2Ev
libosgEarthUtil.so.0:_ZN8osgEarth4Util17GeodeticGraticule10CameraDataD1Ev
libosgEarthUtil.so.0:_ZN8osgEarth4Util17GeodeticGraticule10CameraDataD2Ev
libosgEarthUtil.so.0:_ZN8osgEarth4Util17GeodeticGraticule10addedToMapEPKNS_3MapE
libosgEarthUtil.so.0:_ZN8osgEarth4Util17GeodeticGraticule10setMapNodeEPNS_7MapNodeE
libosgEarthUtil.so.0:_ZN8osgEarth4Util17GeodeticGraticule10setVisibleEb
libosgEarthUtil.so.0:_ZN8osgEarth4Util17GeodeticGraticule11getStateSetEPN7osgUtil11CullVisitorE
libosgEarthUtil.so.0:_ZN8osgEarth4Util17GeodeticGraticule12updateLabelsEv
libosgEarthUtil.so.0:_ZN8osgEarth4Util17GeodeticGraticule13initLabelPoolERNS1_10CameraDataE
libosgEarthUtil.so.0:_ZN8osgEarth4Util17GeodeticGraticule14removedFromMapEPKNS_3MapE
libosgEarthUtil.so.0:_ZN8osgEarth4Util17GeodeticGraticule17setEdgeLabelStyleERKNS_9Symbology5StyleE
libosgEarthUtil.so.0:_ZN8osgEarth4Util17GeodeticGraticule17setGridLabelStyleERKNS_9Symbology5StyleE
libosgEarthUtil.so.0:_ZN8osgEarth4Util17GeodeticGraticule19setGridLinesVisibleEb
libosgEarthUtil.so.0:_ZN8osgEarth4Util17GeodeticGraticule20setEdgeLabelsVisibleEb
libosgEarthUtil.so.0:_ZN8osgEarth4Util17GeodeticGraticule20setGridLabelsVisibleEb
libosgEarthUtil.so.0:_ZN8osgEarth4Util17GeodeticGraticule21resizeGLObjectBuffersEj
libosgEarthUtil.so.0:_ZN8osgEarth4Util17GeodeticGraticule24updateGridLineVisibilityEv
libosgEarthUtil.so.0:_ZN8osgEarth4Util17GeodeticGraticule4cullEPN7osgUtil11CullVisitorE
libosgEarthUtil.so.0:_ZN8osgEarth4Util17GeodeticGraticule4initEv
libosgEarthUtil.so.0:_ZN8osgEarth4Util17GeodeticGraticule5dirtyEv
libosgEarthUtil.so.0:_ZN8osgEarth4Util17GeodeticGraticule7MyGroup8traverseERN3osg11NodeVisitorE
libosgEarthUtil.so.0:_ZN8osgEarth4Util17GeodeticGraticule7MyGroupC1EPS1_
libosgEarthUtil.so.0:_ZN8osgEarth4Util17GeodeticGraticule7MyGroupC2EPS1_
libosgEarthUtil.so.0:_ZN8osgEarth4Util17GeodeticGraticule7getTextB5cxx11ERKNS_8GeoPointEb
libosgEarthUtil.so.0:_ZN8osgEarth4Util17GeodeticGraticule7rebuildEv
libosgEarthUtil.so.0:_ZN8osgEarth4Util17GeodeticGraticuleC1ERKNS0_24GeodeticGraticuleOptionsE
libosgEarthUtil.so.0:_ZN8osgEarth4Util17GeodeticGraticuleC1Ev
libosgEarthUtil.so.0:_ZN8osgEarth4Util17GeodeticGraticuleC2ERKNS0_24GeodeticGraticuleOptionsE
libosgEarthUtil.so.0:_ZN8osgEarth4Util17GeodeticGraticuleC2Ev
libosgEarthUtil.so.0:_ZN8osgEarth4Util17LineOfSightTetherC1EPN3osg4NodeES4_
libosgEarthUtil.so.0:_ZN8osgEarth4Util17LineOfSightTetherC2EPN3osg4NodeES4_
libosgEarthUtil.so.0:_ZN8osgEarth4Util17LineOfSightTetherclEPN3osg4NodeEPNS2_11NodeVisitorE
libosgEarthUtil.so.0:_ZN8osgEarth4Util17SkyControlFactory6createEPNS0_7SkyNodeE
libosgEarthUtil.so.0:_ZN8osgEarth4Util17UTMLabelingEngine12updateLabelsERKN3osg5Vec3dERS3_S6_RNS0_9ClipSpaceERNS0_23GraticuleLabelingEngine10CameraDataE
libosgEarthUtil.so.0:_ZN8osgEarth4Util17UTMLabelingEngine16setMaxResolutionEd
libosgEarthUtil.so.0:_ZN8osgEarth4Util17UTMLabelingEngineC1EPKNS_16SpatialReferenceE
libosgEarthUtil.so.0:_ZN8osgEarth4Util17UTMLabelingEngineC2EPKNS_16SpatialReferenceE
libosgEarthUtil.so.0:_ZN8osgEarth4Util18MeasureToolHandler10setMapNodeEPNS_7MapNodeE
libosgEarthUtil.so.0:_ZN8osgEarth4Util18MeasureToolHandler12setLineStyleERKNS_9Symbology5StyleE
libosgEarthUtil.so.0:_ZN8osgEarth4Util18MeasureToolHandler13getLocationAtEPN9osgViewer4ViewEddRdS5_
libosgEarthUtil.so.0:_ZN8osgEarth4Util18MeasureToolHandler14setMouseButtonEi
libosgEarthUtil.so.0:_ZN8osgEarth4Util18MeasureToolHandler15addEventHandlerEPNS1_23MeasureToolEventHandlerE
libosgEarthUtil.so.0:_ZN8osgEarth4Util18MeasureToolHandler19fireDistanceChangedEv
libosgEarthUtil.so.0:_ZN8osgEarth4Util18MeasureToolHandler19setGeoInterpolationENS_16GeoInterpolationE
libosgEarthUtil.so.0:_ZN8osgEarth4Util18MeasureToolHandler5clearEv
libosgEarthUtil.so.0:_ZN8osgEarth4Util18MeasureToolHandler6handleERKN5osgGA15GUIEventAdapterERNS2_16GUIActionAdapterE
libosgEarthUtil.so.0:_ZN8osgEarth4Util18MeasureToolHandler7rebuildEv
libosgEarthUtil.so.0:_ZN8osgEarth4Util18MeasureToolHandler9setIsPathEb
libosgEarthUtil.so.0:_ZN8osgEarth4Util18MeasureToolHandlerC1EPNS_7MapNodeE
libosgEarthUtil.so.0:_ZN8osgEarth4Util18MeasureToolHandlerC2EPNS_7MapNodeE
libosgEarthUtil.so.0:_ZN8osgEarth4Util18MeasureToolHandlerD0Ev
libosgEarthUtil.so.0:_ZN8osgEarth4Util18MeasureToolHandlerD1Ev
libosgEarthUtil.so.0:_ZN8osgEarth4Util18MeasureToolHandlerD2Ev
libosgEarthUtil.so.0:_ZN8osgEarth4Util19ActivityMonitorTool6handleERKN5osgGA15GUIEventAdapterERNS2_16GUIActionAdapterE
libosgEarthUtil.so.0:_ZN8osgEarth4Util19ActivityMonitorToolC1EPNS0_8Controls4VBoxE
libosgEarthUtil.so.0:_ZN8osgEarth4Util19ActivityMonitorToolC2EPNS0_8Controls4VBoxE
libosgEarthUtil.so.0:_ZN8osgEarth4Util19ContourMapExtension10disconnectEPNS_7MapNodeE
libosgEarthUtil.so.0:_ZN8osgEarth4Util19ContourMapExtension7connectEPNS_7MapNodeE
libosgEarthUtil.so.0:_ZN8osgEarth4Util19MultiElevationLayer10addedToMapEPKNS_3MapE
libosgEarthUtil.so.0:_ZN8osgEarth4Util19MultiElevationLayer14removedFromMapEPKNS_3MapE
libosgEarthUtil.so.0:_ZN8osgEarth4Util19MultiElevationLayer20createImplementationERKNS_7TileKeyERN3osg7ref_ptrINS5_11HeightFieldEEERNS6_INS_9NormalMapEEEPNS_16ProgressCallbackE
libosgEarthUtil.so.0:_ZN8osgEarth4Util19MultiElevationLayer4initEv
libosgEarthUtil.so.0:_ZN8osgEarth4Util19MultiElevationLayer4openEv
libosgEarthUtil.so.0:_ZN8osgEarth4Util19MultiElevationLayerC1ERKNS0_26MultiElevationLayerOptionsE
libosgEarthUtil.so.0:_ZN8osgEarth4Util19MultiElevationLayerC1Ev
libosgEarthUtil.so.0:_ZN8osgEarth4Util19MultiElevationLayerC2ERKNS0_26MultiElevationLayerOptionsE
libosgEarthUtil.so.0:_ZN8osgEarth4Util19MultiElevationLayerC2Ev
libosgEarthUtil.so.0:_ZN8osgEarth4Util19MultiElevationLayerD0Ev
libosgEarthUtil.so.0:_ZN8osgEarth4Util19MultiElevationLayerD1Ev
libosgEarthUtil.so.0:_ZN8osgEarth4Util19MultiElevationLayerD2Ev
libosgEarthUtil.so.0:_ZN8osgEarth4Util19OceanControlFactory6createEPNS0_16SimpleOceanLayerE
libosgEarthUtil.so.0:_ZN8osgEarth4Util19WriteTMSTileHandler10handleTileERKNS_7TileKeyERKNS_11TileVisitorE
libosgEarthUtil.so.0:_ZN8osgEarth4Util19WriteTMSTileHandler14getPathForTileB5cxx11ERKNS_7TileKeyE
libosgEarthUtil.so.0:_ZN8osgEarth4Util19WriteTMSTileHandlerC1EPNS_12TerrainLayerEPNS_3MapEPNS0_11TMSPackagerE
libosgEarthUtil.so.0:_ZN8osgEarth4Util19WriteTMSTileHandlerC2EPNS_12TerrainLayerEPNS_3MapEPNS0_11TMSPackagerE
libosgEarthUtil.so.0:_ZN8osgEarth4Util20BuildTopologyVisitor5applyEPN3osg8DrawableEPNS2_13TemplateArrayINS2_5Vec3fELNS2_5Array4TypeE28ELi3ELi5126EEE
libosgEarthUtil.so.0:_ZN8osgEarth4Util20BuildTopologyVisitor5applyERN3osg8DrawableE
libosgEarthUtil.so.0:_ZN8osgEarth4Util20BuildTopologyVisitor5applyERN3osg9TransformE
libosgEarthUtil.so.0:_ZN8osgEarth4Util20BuildTopologyVisitorC1ERNS0_13TopologyGraphE
libosgEarthUtil.so.0:_ZN8osgEarth4Util20BuildTopologyVisitorC2ERNS0_13TopologyGraphE
libosgEarthUtil.so.0:_ZN8osgEarth4Util20ChromaKeyColorFilter11setDistanceEf
libosgEarthUtil.so.0:_ZN8osgEarth4Util20ChromaKeyColorFilter4initEv
libosgEarthUtil.so.0:_ZN8osgEarth4Util20ChromaKeyColorFilter8setColorERKN3osg5Vec3fE
libosgEarthUtil.so.0:_ZN8osgEarth4Util20ChromaKeyColorFilterC1ERKNS_6ConfigE
libosgEarthUtil.so.0:_ZN8osgEarth4Util20ChromaKeyColorFilterC1Ev
libosgEarthUtil.so.0:_ZN8osgEarth4Util20ChromaKeyColorFilterC2ERKNS_6ConfigE
libosgEarthUtil.so.0:_ZN8osgEarth4Util20ChromaKeyColorFilterC2Ev
libosgEarthUtil.so.0:_ZN8osgEarth4Util20MGRSGraticuleOptions10fromConfigERKNS_6ConfigE
libosgEarthUtil.so.0:_ZN8osgEarth4Util20MGRSGraticuleOptionsC1ERKNS_13ConfigOptionsE
libosgEarthUtil.so.0:_ZN8osgEarth4Util20MGRSGraticuleOptionsC2ERKNS_13ConfigOptionsE
libosgEarthUtil.so.0:_ZN8osgEarth4Util21FractalElevationLayer10addedToMapEPKNS_3MapE
libosgEarthUtil.so.0:_ZN8osgEarth4Util21FractalElevationLayer14removedFromMapEPKNS_3MapE
libosgEarthUtil.so.0:_ZN8osgEarth4Util21FractalElevationLayer20createImplementationERKNS_7TileKeyERN3osg7ref_ptrINS5_11HeightFieldEEERNS6_INS_9NormalMapEEEPNS_16ProgressCallbackE
libosgEarthUtil.so.0:_ZN8osgEarth4Util21FractalElevationLayer4initEv
libosgEarthUtil.so.0:_ZN8osgEarth4Util21FractalElevationLayer4openEv
libosgEarthUtil.so.0:_ZN8osgEarth4Util21FractalElevationLayerC1ERKNS0_28FractalElevationLayerOptionsE
libosgEarthUtil.so.0:_ZN8osgEarth4Util21FractalElevationLayerC1Ev
libosgEarthUtil.so.0:_ZN8osgEarth4Util21FractalElevationLayerC2ERKNS0_28FractalElevationLayerOptionsE
libosgEarthUtil.so.0:_ZN8osgEarth4Util21FractalElevationLayerC2Ev
libosgEarthUtil.so.0:_ZN8osgEarth4Util21FractalElevationLayerD0Ev
libosgEarthUtil.so.0:_ZN8osgEarth4Util21FractalElevationLayerD1Ev
libosgEarthUtil.so.0:_ZN8osgEarth4Util21FractalElevationLayerD2Ev
libosgEarthUtil.so.0:_ZN8osgEarth4Util21LinearLineOfSightNode10setMapNodeEPNS_7MapNodeE
libosgEarthUtil.so.0:_ZN8osgEarth4Util21LinearLineOfSightNode11setBadColorERKN3osg5Vec4fE
libosgEarthUtil.so.0:_ZN8osgEarth4Util21LinearLineOfSightNode12setGoodColorERKN3osg5Vec4fE
libosgEarthUtil.so.0:_ZN8osgEarth4Util21LinearLineOfSightNode14setDisplayModeENS0_11LineOfSight11DisplayModeE
libosgEarthUtil.so.0:_ZN8osgEarth4Util21LinearLineOfSightNode14setTerrainOnlyEb
libosgEarthUtil.so.0:_ZN8osgEarth4Util21LinearLineOfSightNode14terrainChangedERKNS_7TileKeyEPN3osg4NodeE
libosgEarthUtil.so.0:_ZN8osgEarth4Util21LinearLineOfSightNode18addChangedCallbackEPNS0_18LOSChangedCallbackE
libosgEarthUtil.so.0:_ZN8osgEarth4Util21LinearLineOfSightNode18subscribeToTerrainEv
libosgEarthUtil.so.0:_ZN8osgEarth4Util21LinearLineOfSightNode21removeChangedCallbackEPNS0_18LOSChangedCallbackE
libosgEarthUtil.so.0:_ZN8osgEarth4Util21LinearLineOfSightNode4drawEb
libosgEarthUtil.so.0:_ZN8osgEarth4Util21LinearLineOfSightNode6setEndERKNS_8GeoPointE
libosgEarthUtil.so.0:_ZN8osgEarth4Util21LinearLineOfSightNode7computeEPN3osg4NodeEb
libosgEarthUtil.so.0:_ZN8osgEarth4Util21LinearLineOfSightNode7getNodeEv
libosgEarthUtil.so.0:_ZN8osgEarth4Util21LinearLineOfSightNode8setStartERKNS_8GeoPointE
libosgEarthUtil.so.0:_ZN8osgEarth4Util21LinearLineOfSightNodeC1EPNS_7MapNodeE
libosgEarthUtil.so.0:_ZN8osgEarth4Util21LinearLineOfSightNodeC1EPNS_7MapNodeERKNS_8GeoPointES6_
libosgEarthUtil.so.0:_ZN8osgEarth4Util21LinearLineOfSightNodeC2EPNS_7MapNodeE
libosgEarthUtil.so.0:_ZN8osgEarth4Util21LinearLineOfSightNodeC2EPNS_7MapNodeERKNS_8GeoPointES6_
libosgEarthUtil.so.0:_ZN8osgEarth4Util21LinearLineOfSightNodeD0Ev
libosgEarthUtil.so.0:_ZN8osgEarth4Util21LinearLineOfSightNodeD1Ev
libosgEarthUtil.so.0:_ZN8osgEarth4Util21LinearLineOfSightNodeD2Ev
libosgEarthUtil.so.0:_ZN8osgEarth4Util21RadialLineOfSightNode10setMapNodeEPNS_7MapNodeE
libosgEarthUtil.so.0:_ZN8osgEarth4Util21RadialLineOfSightNode11setBadColorERKN3osg5Vec4fE
libosgEarthUtil.so.0:_ZN8osgEarth4Util21RadialLineOfSightNode12compute_fillEPN3osg4NodeE
libosgEarthUtil.so.0:_ZN8osgEarth4Util21RadialLineOfSightNode12compute_lineEPN3osg4NodeE
libosgEarthUtil.so.0:_ZN8osgEarth4Util21RadialLineOfSightNode12setGoodColorERKN3osg5Vec4fE
libosgEarthUtil.so.0:_ZN8osgEarth4Util21RadialLineOfSightNode12setNumSpokesEi
libosgEarthUtil.so.0:_ZN8osgEarth4Util21RadialLineOfSightNode14setDisplayModeENS0_11LineOfSight11DisplayModeE
libosgEarthUtil.so.0:_ZN8osgEarth4Util21RadialLineOfSightNode14setTerrainOnlyEb
libosgEarthUtil.so.0:_ZN8osgEarth4Util21RadialLineOfSightNode14terrainChangedERKNS_7TileKeyEPN3osg4NodeE
libosgEarthUtil.so.0:_ZN8osgEarth4Util21RadialLineOfSightNode15setOutlineColorERKN3osg5Vec4fE
libosgEarthUtil.so.0:_ZN8osgEarth4Util21RadialLineOfSightNode18addChangedCallbackEPNS0_18LOSChangedCallbackE
libosgEarthUtil.so.0:_ZN8osgEarth4Util21RadialLineOfSightNode21removeChangedCallbackEPNS0_18LOSChangedCallbackE
libosgEarthUtil.so.0:_ZN8osgEarth4Util21RadialLineOfSightNode7computeEPN3osg4NodeE
libosgEarthUtil.so.0:_ZN8osgEarth4Util21RadialLineOfSightNode7getNodeEv
libosgEarthUtil.so.0:_ZN8osgEarth4Util21RadialLineOfSightNode7setFillEb
libosgEarthUtil.so.0:_ZN8osgEarth4Util21RadialLineOfSightNode9setCenterERKNS_8GeoPointE
libosgEarthUtil.so.0:_ZN8osgEarth4Util21RadialLineOfSightNode9setRadiusEd
libosgEarthUtil.so.0:_ZN8osgEarth4Util21RadialLineOfSightNodeC1EPNS_7MapNodeE
libosgEarthUtil.so.0:_ZN8osgEarth4Util21RadialLineOfSightNodeC2EPNS_7MapNodeE
libosgEarthUtil.so.0:_ZN8osgEarth4Util21RadialLineOfSightNodeD0Ev
libosgEarthUtil.so.0:_ZN8osgEarth4Util21RadialLineOfSightNodeD1Ev
libosgEarthUtil.so.0:_ZN8osgEarth4Util21RadialLineOfSightNodeD2Ev
libosgEarthUtil.so.0:_ZN8osgEarth4Util21WFSCapabilitiesReader4readERKNS_3URIEPKN5osgDB7OptionsE
libosgEarthUtil.so.0:_ZN8osgEarth4Util21WFSCapabilitiesReader4readERSi
libosgEarthUtil.so.0:_ZN8osgEarth4Util21WMSCapabilitiesReader4readERKNS_3URIEPKN5osgDB7OptionsE
libosgEarthUtil.so.0:_ZN8osgEarth4Util21WMSCapabilitiesReader4readERSi
libosgEarthUtil.so.0:_ZN8osgEarth4Util22GeodeticLabelingEngine12updateLabelsERKN3osg5Vec3dERS3_S6_RNS0_9ClipSpaceERNS0_23GraticuleLabelingEngine10CameraDataE
libosgEarthUtil.so.0:_ZN8osgEarth4Util22GeodeticLabelingEngine13setResolutionEd
libosgEarthUtil.so.0:_ZN8osgEarth4Util22GeodeticLabelingEngine7getTextB5cxx11ERKNS_8GeoPointEb
libosgEarthUtil.so.0:_ZN8osgEarth4Util22GeodeticLabelingEngineC1EPKNS_16SpatialReferenceE
libosgEarthUtil.so.0:_ZN8osgEarth4Util22GeodeticLabelingEngineC2EPKNS_16SpatialReferenceE
libosgEarthUtil.so.0:_ZN8osgEarth4Util22LogarithmicDepthBuffer15setUseFragDepthEb
libosgEarthUtil.so.0:_ZN8osgEarth4Util22LogarithmicDepthBuffer7installEPN3osg6CameraE
libosgEarthUtil.so.0:_ZN8osgEarth4Util22LogarithmicDepthBuffer9uninstallEPN3osg6CameraE
libosgEarthUtil.so.0:_ZN8osgEarth4Util22LogarithmicDepthBufferC1Ev
libosgEarthUtil.so.0:_ZN8osgEarth4Util22LogarithmicDepthBufferC2Ev
libosgEarthUtil.so.0:_ZN8osgEarth4Util23GraticuleLabelingEngine10getVisibleEPN3osg6CameraE
libosgEarthUtil.so.0:_ZN8osgEarth4Util23GraticuleLabelingEngine12cullTraverseERN7osgUtil11CullVisitorERNS1_10CameraDataE
libosgEarthUtil.so.0:_ZN8osgEarth4Util23GraticuleLabelingEngine12updateLabelsERKN3osg5Vec3dERS3_S6_RNS0_9ClipSpaceERNS1_10CameraDataE
libosgEarthUtil.so.0:_ZN8osgEarth4Util23GraticuleLabelingEngine16AcceptCameraDataclERNS1_10CameraDataE
libosgEarthUtil.so.0:_ZN8osgEarth4Util23GraticuleLabelingEngine17UpdateLabelStylesclERNS1_10CameraDataE
libosgEarthUtil.so.0:_ZN8osgEarth4Util23GraticuleLabelingEngine8setStyleERKNS_9Symbology5StyleE
libosgEarthUtil.so.0:_ZN8osgEarth4Util23GraticuleLabelingEngine8traverseERN3osg11NodeVisitorE
libosgEarthUtil.so.0:_ZN8osgEarth4Util23GraticuleLabelingEngine9setStylesERKNS_9Symbology5StyleES5_
libosgEarthUtil.so.0:_ZN8osgEarth4Util23GraticuleLabelingEngineC1EPKNS_16SpatialReferenceE
libosgEarthUtil.so.0:_ZN8osgEarth4Util23GraticuleLabelingEngineC2EPKNS_16SpatialReferenceE
libosgEarthUtil.so.0:_ZN8osgEarth4Util23LinearLineOfSightEditor14updateDraggersEv
libosgEarthUtil.so.0:_ZN8osgEarth4Util23LinearLineOfSightEditorC1EPNS0_21LinearLineOfSightNodeE
libosgEarthUtil.so.0:_ZN8osgEarth4Util23LinearLineOfSightEditorC2EPNS0_21LinearLineOfSightNodeE
libosgEarthUtil.so.0:_ZN8osgEarth4Util23LinearLineOfSightEditorD0Ev
libosgEarthUtil.so.0:_ZN8osgEarth4Util23LinearLineOfSightEditorD1Ev
libosgEarthUtil.so.0:_ZN8osgEarth4Util23LinearLineOfSightEditorD2Ev
libosgEarthUtil.so.0:_ZN8osgEarth4Util23RadialLineOfSightEditor14updateDraggersEv
libosgEarthUtil.so.0:_ZN8osgEarth4Util23RadialLineOfSightEditorC1EPNS0_21RadialLineOfSightNodeE
libosgEarthUtil.so.0:_ZN8osgEarth4Util23RadialLineOfSightEditorC2EPNS0_21RadialLineOfSightNodeE
libosgEarthUtil.so.0:_ZN8osgEarth4Util23RadialLineOfSightEditorD0Ev
libosgEarthUtil.so.0:_ZN8osgEarth4Util23RadialLineOfSightEditorD1Ev
libosgEarthUtil.so.0:_ZN8osgEarth4Util23RadialLineOfSightEditorD2Ev
libosgEarthUtil.so.0:_ZN8osgEarth4Util23RadialLineOfSightTetherC1EPN3osg4NodeE
libosgEarthUtil.so.0:_ZN8osgEarth4Util23RadialLineOfSightTetherC2EPN3osg4NodeE
libosgEarthUtil.so.0:_ZN8osgEarth4Util23RadialLineOfSightTetherclEPN3osg4NodeEPNS2_11NodeVisitorE
libosgEarthUtil.so.0:_ZN8osgEarth4Util24MouseCoordsLabelCallback3setERKNS_8GeoPointEPN3osg4ViewEPNS_7MapNodeE
libosgEarthUtil.so.0:_ZN8osgEarth4Util24MouseCoordsLabelCallback5resetEPN3osg4ViewEPNS_7MapNodeE
libosgEarthUtil.so.0:_ZN8osgEarth4Util24MouseCoordsLabelCallbackC1EPNS0_8Controls12LabelControlEPNS0_9FormatterE
libosgEarthUtil.so.0:_ZN8osgEarth4Util24MouseCoordsLabelCallbackC2EPNS0_8Controls12LabelControlEPNS0_9FormatterE
libosgEarthUtil.so.0:_ZN8osgEarth4Util24TerrainProfileCalculator10setMapNodeEPNS_7MapNodeE
libosgEarthUtil.so.0:_ZN8osgEarth4Util24TerrainProfileCalculator11onTileAddedERKNS_7TileKeyEPN3osg4NodeERNS_22TerrainCallbackContextE
libosgEarthUtil.so.0:_ZN8osgEarth4Util24TerrainProfileCalculator11setStartEndERKNS_8GeoPointES4_
libosgEarthUtil.so.0:_ZN8osgEarth4Util24TerrainProfileCalculator18addChangedCallbackEPNS1_15ChangedCallbackE
libosgEarthUtil.so.0:_ZN8osgEarth4Util24TerrainProfileCalculator21computeTerrainProfileEPNS_7MapNodeERKNS_8GeoPointES6_RNS0_14TerrainProfileE
libosgEarthUtil.so.0:_ZN8osgEarth4Util24TerrainProfileCalculator21removeChangedCallbackEPNS1_15ChangedCallbackE
libosgEarthUtil.so.0:_ZN8osgEarth4Util24TerrainProfileCalculator9recomputeEv
libosgEarthUtil.so.0:_ZN8osgEarth4Util24TerrainProfileCalculatorC1EPNS_7MapNodeE
libosgEarthUtil.so.0:_ZN8osgEarth4Util24TerrainProfileCalculatorC1EPNS_7MapNodeERKNS_8GeoPointES6_
libosgEarthUtil.so.0:_ZN8osgEarth4Util24TerrainProfileCalculatorC2EPNS_7MapNodeE
libosgEarthUtil.so.0:_ZN8osgEarth4Util24TerrainProfileCalculatorC2EPNS_7MapNodeERKNS_8GeoPointES6_
libosgEarthUtil.so.0:_ZN8osgEarth4Util24TerrainProfileCalculatorD0Ev
libosgEarthUtil.so.0:_ZN8osgEarth4Util24TerrainProfileCalculatorD1Ev
libosgEarthUtil.so.0:_ZN8osgEarth4Util24TerrainProfileCalculatorD2Ev
libosgEarthUtil.so.0:_ZN8osgEarth4Util25AutoClipPlaneCullCallbackC1EPNS_7MapNodeE
libosgEarthUtil.so.0:_ZN8osgEarth4Util25AutoClipPlaneCullCallbackC2EPNS_7MapNodeE
libosgEarthUtil.so.0:_ZN8osgEarth4Util25AutoClipPlaneCullCallbackclEPN3osg4NodeEPNS2_11NodeVisitorE
libosgEarthUtil.so.0:_ZN8osgEarth4Util26MultiElevationLayerOptions10fromConfigERKNS_6ConfigE
libosgEarthUtil.so.0:_ZN8osgEarth4Util26MultiElevationLayerOptionsC1ERKNS_13ConfigOptionsE
libosgEarthUtil.so.0:_ZN8osgEarth4Util26MultiElevationLayerOptionsC2ERKNS_13ConfigOptionsE
libosgEarthUtil.so.0:_ZN8osgEarth4Util28FractalElevationLayerOptions10fromConfigERKNS_6ConfigE
libosgEarthUtil.so.0:_ZN8osgEarth4Util28FractalElevationLayerOptionsC1ERKNS_13ConfigOptionsE
libosgEarthUtil.so.0:_ZN8osgEarth4Util28FractalElevationLayerOptionsC2ERKNS_13ConfigOptionsE
libosgEarthUtil.so.0:_ZN8osgEarth4Util29BrightnessContrastColorFilter21setBrightnessContrastERKN3osg5Vec2fE
libosgEarthUtil.so.0:_ZN8osgEarth4Util29BrightnessContrastColorFilter4initEv
libosgEarthUtil.so.0:_ZN8osgEarth4Util29BrightnessContrastColorFilterC1ERKNS_6ConfigE
libosgEarthUtil.so.0:_ZN8osgEarth4Util29BrightnessContrastColorFilterC1Ev
libosgEarthUtil.so.0:_ZN8osgEarth4Util29BrightnessContrastColorFilterC2ERKNS_6ConfigE
libosgEarthUtil.so.0:_ZN8osgEarth4Util29BrightnessContrastColorFilterC2Ev
libosgEarthUtil.so.0:_ZN8osgEarth4Util3TMS10TileFormatC1Ev
libosgEarthUtil.so.0:_ZN8osgEarth4Util3TMS10TileFormatC2Ev
libosgEarthUtil.so.0:_ZN8osgEarth4Util3TMS12TileMapEntryC1ERKNSt7__cxx1112basic_stringIcSt11char_traitsIcESaIcEEESA_SA_SA_
libosgEarthUtil.so.0:_ZN8osgEarth4Util3TMS12TileMapEntryC2ERKNSt7__cxx1112basic_stringIcSt11char_traitsIcESaIcEEESA_SA_SA_
libosgEarthUtil.so.0:_ZN8osgEarth4Util3TMS19TileMapReaderWriter4readERKNS_3URIEPKN5osgDB7OptionsE
libosgEarthUtil.so.0:_ZN8osgEarth4Util3TMS19TileMapReaderWriter4readERKNS_6ConfigE
libosgEarthUtil.so.0:_ZN8osgEarth4Util3TMS19TileMapReaderWriter5writeEPKNS1_7TileMapERKNSt7__cxx1112basic_stringIcSt11char_traitsIcESaIcEEE
libosgEarthUtil.so.0:_ZN8osgEarth4Util3TMS19TileMapReaderWriter5writeEPKNS1_7TileMapERSo
libosgEarthUtil.so.0:_ZN8osgEarth4Util3TMS20TileMapServiceReader4readERKNS_6ConfigERNSt7__cxx114listINS1_12TileMapEntryESaIS8_EEE
libosgEarthUtil.so.0:_ZN8osgEarth4Util3TMS20TileMapServiceReader4readERKNSt7__cxx1112basic_stringIcSt11char_traitsIcESaIcEEEPKN5osgDB7OptionsERNS3_4listINS1_12TileMapEntryESaISG_EEE
libosgEarthUtil.so.0:_ZN8osgEarth4Util3TMS20TileMapServiceReaderC1ERKS2_
libosgEarthUtil.so.0:_ZN8osgEarth4Util3TMS20TileMapServiceReaderC1Ev
libosgEarthUtil.so.0:_ZN8osgEarth4Util3TMS20TileMapServiceReaderC2ERKS2_
libosgEarthUtil.so.0:_ZN8osgEarth4Util3TMS20TileMapServiceReaderC2Ev
libosgEarthUtil.so.0:_ZN8osgEarth4Util3TMS7TileMap10setExtentsEdddd
libosgEarthUtil.so.0:_ZN8osgEarth4Util3TMS7TileMap13intersectsKeyERKNS_7TileKeyE
libosgEarthUtil.so.0:_ZN8osgEarth4Util3TMS7TileMap15computeNumTilesEv
libosgEarthUtil.so.0:_ZN8osgEarth4Util3TMS7TileMap16generateTileSetsEj
libosgEarthUtil.so.0:_ZN8osgEarth4Util3TMS7TileMap18computeMinMaxLevelEv
libosgEarthUtil.so.0:_ZN8osgEarth4Util3TMS7TileMap6createERKNSt7__cxx1112basic_stringIcSt11char_traitsIcESaIcEEEPKNS_7ProfileERKSt6vectorINS_10DataExtentESaISF_EESA_ii
libosgEarthUtil.so.0:_ZN8osgEarth4Util3TMS7TileMap6getURLB5cxx11ERKNS_7TileKeyEb
libosgEarthUtil.so.0:_ZN8osgEarth4Util3TMS7TileMap9setOriginEdd
libosgEarthUtil.so.0:_ZN8osgEarth4Util3TMS7TileMapC1Ev
libosgEarthUtil.so.0:_ZN8osgEarth4Util3TMS7TileMapC2Ev
libosgEarthUtil.so.0:_ZN8osgEarth4Util3TMS7TileSetC1Ev
libosgEarthUtil.so.0:_ZN8osgEarth4Util3TMS7TileSetC2Ev
libosgEarthUtil.so.0:_ZN8osgEarth4Util6ArcGIS12RESTResponse10getFoldersB5cxx11Ev
libosgEarthUtil.so.0:_ZN8osgEarth4Util6ArcGIS12RESTResponse11getServicesB5cxx11Ev
libosgEarthUtil.so.0:_ZN8osgEarth4Util6ArcGIS12RESTResponse13setServiceURLERKNSt7__cxx1112basic_stringIcSt11char_traitsIcESaIcEEE
libosgEarthUtil.so.0:_ZN8osgEarth4Util6ArcGIS12RESTResponse17setCurrentVersionERKNSt7__cxx1112basic_stringIcSt11char_traitsIcESaIcEEE
libosgEarthUtil.so.0:_ZN8osgEarth4Util6ArcGIS12RESTResponseC1Ev
libosgEarthUtil.so.0:_ZN8osgEarth4Util6ArcGIS12RESTResponseC2Ev
libosgEarthUtil.so.0:_ZN8osgEarth4Util6ArcGIS13ServiceReader4readERKNS_3URIEPKN5osgDB7OptionsERNS1_12RESTResponseE
libosgEarthUtil.so.0:_ZN8osgEarth4Util6ArcGIS13ServiceReader4readERKNS_6ConfigERNS1_12RESTResponseE
libosgEarthUtil.so.0:_ZN8osgEarth4Util6ArcGIS13ServiceReaderC1ERKS2_
libosgEarthUtil.so.0:_ZN8osgEarth4Util6ArcGIS13ServiceReaderC1Ev
libosgEarthUtil.so.0:_ZN8osgEarth4Util6ArcGIS13ServiceReaderC2ERKS2_
libosgEarthUtil.so.0:_ZN8osgEarth4Util6ArcGIS13ServiceReaderC2Ev
libosgEarthUtil.so.0:_ZN8osgEarth4Util6ArcGIS13ServiceReaderD0Ev
libosgEarthUtil.so.0:_ZN8osgEarth4Util6ArcGIS13ServiceReaderD1Ev
libosgEarthUtil.so.0:_ZN8osgEarth4Util6ArcGIS13ServiceReaderD2Ev
libosgEarthUtil.so.0:_ZN8osgEarth4Util6ArcGIS7ServiceC1ERKNSt7__cxx1112basic_stringIcSt11char_traitsIcESaIcEEESA_
libosgEarthUtil.so.0:_ZN8osgEarth4Util6ArcGIS7ServiceC2ERKNSt7__cxx1112basic_stringIcSt11char_traitsIcESaIcEEESA_
libosgEarthUtil.so.0:_ZN8osgEarth4Util7GeoCell11adjustCountEi
libosgEarthUtil.so.0:_ZN8osgEarth4Util7GeoCell12insertObjectEPNS0_9GeoObjectE
libosgEarthUtil.so.0:_ZN8osgEarth4Util7GeoCell12removeObjectEPNS0_9GeoObjectE
libosgEarthUtil.so.0:_ZN8osgEarth4Util7GeoCell13reindexObjectEPNS0_9GeoObjectE
libosgEarthUtil.so.0:_ZN8osgEarth4Util7GeoCell18generateBoundariesEv
libosgEarthUtil.so.0:_ZN8osgEarth4Util7GeoCell24generateBoundaryGeometryEv
libosgEarthUtil.so.0:_ZN8osgEarth4Util7GeoCell5mergeEv
libosgEarthUtil.so.0:_ZN8osgEarth4Util7GeoCell5splitEv
libosgEarthUtil.so.0:_ZN8osgEarth4Util7GeoCell8traverseERN3osg11NodeVisitorE
libosgEarthUtil.so.0:_ZN8osgEarth4Util7GeoCellC1ERKNS_9GeoExtentEfjjfj
libosgEarthUtil.so.0:_ZN8osgEarth4Util7GeoCellC2ERKNS_9GeoExtentEfjjfj
libosgEarthUtil.so.0:_ZN8osgEarth4Util7HTMNode5splitEv
libosgEarthUtil.so.0:_ZN8osgEarth4Util7HTMNode6insertEPN3osg4NodeE
libosgEarthUtil.so.0:_ZN8osgEarth4Util7HTMNode8Triangle3setERKN3osg5Vec3dES6_S6_
libosgEarthUtil.so.0:_ZN8osgEarth4Util7HTMNode8traverseERN3osg11NodeVisitorE
libosgEarthUtil.so.0:_ZN8osgEarth4Util7HTMNodeC1ERNS0_11HTMSettingsERKN3osg5Vec3dES7_S7_RKNSt7__cxx1112basic_stringIcSt11char_traitsIcESaIcEEE
libosgEarthUtil.so.0:_ZN8osgEarth4Util7HTMNodeC2ERNS0_11HTMSettingsERKN3osg5Vec3dES7_S7_RKNSt7__cxx1112basic_stringIcSt11char_traitsIcESaIcEEE
libosgEarthUtil.so.0:_ZN8osgEarth4Util7ShadersC1Ev
libosgEarthUtil.so.0:_ZN8osgEarth4Util7ShadersC2Ev
libosgEarthUtil.so.0:_ZN8osgEarth4Util7SkyNode11setDateTimeERKNS_8DateTimeE
libosgEarthUtil.so.0:_ZN8osgEarth4Util7SkyNode11setLightingEj
libosgEarthUtil.so.0:_ZN8osgEarth4Util7SkyNode12setEphemerisEPNS0_9EphemerisE
libosgEarthUtil.so.0:_ZN8osgEarth4Util7SkyNode13setSunVisibleEb
libosgEarthUtil.so.0:_ZN8osgEarth4Util7SkyNode14setMoonVisibleEb
libosgEarthUtil.so.0:_ZN8osgEarth4Util7SkyNode15setStarsVisibleEb
libosgEarthUtil.so.0:_ZN8osgEarth4Util7SkyNode17setReferencePointERKNS_8GeoPointE
libosgEarthUtil.so.0:_ZN8osgEarth4Util7SkyNode20setAtmosphereVisibleEb
libosgEarthUtil.so.0:_ZN8osgEarth4Util7SkyNode6createERKNS0_10SkyOptionsE
libosgEarthUtil.so.0:_ZN8osgEarth4Util7SkyNode6createERKNSt7__cxx1112basic_stringIcSt11char_traitsIcESaIcEEE
libosgEarthUtil.so.0:_ZN8osgEarth4Util7SkyNode6createEv
libosgEarthUtil.so.0:_ZN8osgEarth4Util7SkyNode8baseInitERKNS0_10SkyOptionsE
libosgEarthUtil.so.0:_ZN8osgEarth4Util7SkyNodeC1ERKNS0_10SkyOptionsE
libosgEarthUtil.so.0:_ZN8osgEarth4Util7SkyNodeC1Ev
libosgEarthUtil.so.0:_ZN8osgEarth4Util7SkyNodeC2ERKNS0_10SkyOptionsE
libosgEarthUtil.so.0:_ZN8osgEarth4Util7SkyNodeC2Ev
libosgEarthUtil.so.0:_ZN8osgEarth4Util7SkyNodeD0Ev
libosgEarthUtil.so.0:_ZN8osgEarth4Util7SkyNodeD1Ev
libosgEarthUtil.so.0:_ZN8osgEarth4Util7SkyNodeD2Ev
libosgEarthUtil.so.0:_ZN8osgEarth4Util7UTMData12buildGZDTileERKNSt7__cxx1112basic_stringIcSt11char_traitsIcESaIcEEERKNS_9GeoExtentERKNS_9Symbology5StyleEPKNS_8Features14FeatureProfileEPKNS_3MapE
libosgEarthUtil.so.0:_ZN8osgEarth4Util7UTMData7rebuildEPKNS_7ProfileE
libosgEarthUtil.so.0:_ZN8osgEarth4Util8Controls11ControlNode16TravSpecificDataC1Ev
libosgEarthUtil.so.0:_ZN8osgEarth4Util8Controls11ControlNode16TravSpecificDataC2Ev
libosgEarthUtil.so.0:_ZN8osgEarth4Util8Controls11ControlNode8traverseERN3osg11NodeVisitorE
libosgEarthUtil.so.0:_ZN8osgEarth4Util8Controls11ControlNodeC1EPNS1_7ControlEf
libosgEarthUtil.so.0:_ZN8osgEarth4Util8Controls11ControlNodeC2EPNS1_7ControlEf
libosgEarthUtil.so.0:_ZN8osgEarth4Util8Controls12ImageControl10setTextureEPN3osg7TextureE
libosgEarthUtil.so.0:_ZN8osgEarth4Util8Controls12ImageControl11setRotationERKNS_5AngleE
libosgEarthUtil.so.0:_ZN8osgEarth4Util8Controls12ImageControl16getImageStateSetEv
libosgEarthUtil.so.0:_ZN8osgEarth4Util8Controls12ImageControl21setFixSizeForRotationEb
libosgEarthUtil.so.0:_ZN8osgEarth4Util8Controls12ImageControl4drawERKNS1_14ControlContextE
libosgEarthUtil.so.0:_ZN8osgEarth4Util8Controls12ImageControl8calcSizeERKNS1_14ControlContextERN3osg5Vec2fE
libosgEarthUtil.so.0:_ZN8osgEarth4Util8Controls12ImageControl8setImageEPN3osg5ImageE
libosgEarthUtil.so.0:_ZN8osgEarth4Util8Controls12ImageControlC1EPN3osg5ImageE
libosgEarthUtil.so.0:_ZN8osgEarth4Util8Controls12ImageControlC1EPN3osg7TextureE
libosgEarthUtil.so.0:_ZN8osgEarth4Util8Controls12ImageControlC2EPN3osg5ImageE
libosgEarthUtil.so.0:_ZN8osgEarth4Util8Controls12ImageControlC2EPN3osg7TextureE
libosgEarthUtil.so.0:_ZN8osgEarth4Util8Controls12LabelControl11setEncodingEN7osgText6String8EncodingE
libosgEarthUtil.so.0:_ZN8osgEarth4Util8Controls12LabelControl11setFontSizeEf
libosgEarthUtil.so.0:_ZN8osgEarth4Util8Controls12LabelControl12setHaloColorERKN3osg5Vec4fE
libosgEarthUtil.so.0:_ZN8osgEarth4Util8Controls12LabelControl19setTextBackdropTypeEN7osgText4Text12BackdropTypeE
libosgEarthUtil.so.0:_ZN8osgEarth4Util8Controls12LabelControl21setTextBackdropOffsetEf
libosgEarthUtil.so.0:_ZN8osgEarth4Util8Controls12LabelControl29setTextBackdropImplementationEN7osgText4Text22BackdropImplementationE
libosgEarthUtil.so.0:_ZN8osgEarth4Util8Controls12LabelControl4drawERKNS1_14ControlContextE
libosgEarthUtil.so.0:_ZN8osgEarth4Util8Controls12LabelControl7setFontEPN7osgText4FontE
libosgEarthUtil.so.0:_ZN8osgEarth4Util8Controls12LabelControl7setTextERKNSt7__cxx1112basic_stringIcSt11char_traitsIcESaIcEEE
libosgEarthUtil.so.0:_ZN8osgEarth4Util8Controls12LabelControl8calcSizeERKNS1_14ControlContextERN3osg5Vec2fE
libosgEarthUtil.so.0:_ZN8osgEarth4Util8Controls12LabelControlC1EPNS1_7ControlERKN3osg5Vec4fEf
libosgEarthUtil.so.0:_ZN8osgEarth4Util8Controls12LabelControlC1EPNS1_7ControlEfRKN3osg5Vec4fE
libosgEarthUtil.so.0:_ZN8osgEarth4Util8Controls12LabelControlC1ERKNSt7__cxx1112basic_stringIcSt11char_traitsIcESaIcEEERKN3osg5Vec4fEf
libosgEarthUtil.so.0:_ZN8osgEarth4Util8Controls12LabelControlC1ERKNSt7__cxx1112basic_stringIcSt11char_traitsIcESaIcEEEfRKN3osg5Vec4fE
libosgEarthUtil.so.0:_ZN8osgEarth4Util8Controls12LabelControlC2EPNS1_7ControlERKN3osg5Vec4fEf
libosgEarthUtil.so.0:_ZN8osgEarth4Util8Controls12LabelControlC2EPNS1_7ControlEfRKN3osg5Vec4fE
libosgEarthUtil.so.0:_ZN8osgEarth4Util8Controls12LabelControlC2ERKNSt7__cxx1112basic_stringIcSt11char_traitsIcESaIcEEERKN3osg5Vec4fEf
libosgEarthUtil.so.0:_ZN8osgEarth4Util8Controls12LabelControlC2ERKNSt7__cxx1112basic_stringIcSt11char_traitsIcESaIcEEEfRKN3osg5Vec4fE
libosgEarthUtil.so.0:_ZN8osgEarth4Util8Controls12RoundedFrame4drawERKNS1_14ControlContextE
libosgEarthUtil.so.0:_ZN8osgEarth4Util8Controls12RoundedFrameC1Ev
libosgEarthUtil.so.0:_ZN8osgEarth4Util8Controls12RoundedFrameC2Ev
libosgEarthUtil.so.0:_ZN8osgEarth4Util8Controls13ButtonControlC1ERKNSt7__cxx1112basic_stringIcSt11char_traitsIcESaIcEEEPNS1_19ControlEventHandlerE
libosgEarthUtil.so.0:_ZN8osgEarth4Util8Controls13ButtonControlC1ERKNSt7__cxx1112basic_stringIcSt11char_traitsIcESaIcEEERKN3osg5Vec4fESE_SE_fPNS1_19ControlEventHandlerE
libosgEarthUtil.so.0:_ZN8osgEarth4Util8Controls13ButtonControlC1ERKNSt7__cxx1112basic_stringIcSt11char_traitsIcESaIcEEEfRKN3osg5Vec4fESE_SE_PNS1_19ControlEventHandlerE
libosgEarthUtil.so.0:_ZN8osgEarth4Util8Controls13ButtonControlC2ERKNSt7__cxx1112basic_stringIcSt11char_traitsIcESaIcEEEPNS1_19ControlEventHandlerE
libosgEarthUtil.so.0:_ZN8osgEarth4Util8Controls13ButtonControlC2ERKNSt7__cxx1112basic_stringIcSt11char_traitsIcESaIcEEERKN3osg5Vec4fESE_SE_fPNS1_19ControlEventHandlerE
libosgEarthUtil.so.0:_ZN8osgEarth4Util8Controls13ButtonControlC2ERKNSt7__cxx1112basic_stringIcSt11char_traitsIcESaIcEEEfRKN3osg5Vec4fESE_SE_PNS1_19ControlEventHandlerE
libosgEarthUtil.so.0:_ZN8osgEarth4Util8Controls13ControlCanvas11getOrCreateEPN3osg4ViewE
libosgEarthUtil.so.0:_ZN8osgEarth4Util8Controls13ControlCanvas13EventCallback12handleResizeEPN3osg4ViewEPS2_
libosgEarthUtil.so.0:_ZN8osgEarth4Util8Controls13ControlCanvas13EventCallbackC1EPS2_
libosgEarthUtil.so.0:_ZN8osgEarth4Util8Controls13ControlCanvas13EventCallbackC2EPS2_
libosgEarthUtil.so.0:_ZN8osgEarth4Util8Controls13ControlCanvas13EventCallbackclEPN3osg4NodeEPNS4_11NodeVisitorE
libosgEarthUtil.so.0:_ZN8osgEarth4Util8Controls13ControlCanvas13removeControlEPNS1_7ControlE
libosgEarthUtil.so.0:_ZN8osgEarth4Util8Controls13ControlCanvas14addControlImplEPNS1_7ControlE
libosgEarthUtil.so.0:_ZN8osgEarth4Util8Controls13ControlCanvas17getControlAtMouseEff
libosgEarthUtil.so.0:_ZN8osgEarth4Util8Controls13ControlCanvas17setControlContextERKNS1_14ControlContextE
libosgEarthUtil.so.0:_ZN8osgEarth4Util8Controls13ControlCanvas26setAllowControlNodeOverlapEb
libosgEarthUtil.so.0:_ZN8osgEarth4Util8Controls13ControlCanvas3getEPN3osg4ViewE
libosgEarthUtil.so.0:_ZN8osgEarth4Util8Controls13ControlCanvas4initEv
libosgEarthUtil.so.0:_ZN8osgEarth4Util8Controls13ControlCanvas6handleERKN5osgGA15GUIEventAdapterERNS3_16GUIActionAdapterE
libosgEarthUtil.so.0:_ZN8osgEarth4Util8Controls13ControlCanvas6updateEPKN3osg10FrameStampE
libosgEarthUtil.so.0:_ZN8osgEarth4Util8Controls13ControlCanvas8traverseERN3osg11NodeVisitorE
libosgEarthUtil.so.0:_ZN8osgEarth4Util8Controls13ControlCanvasC1Ev
libosgEarthUtil.so.0:_ZN8osgEarth4Util8Controls13ControlCanvasC2Ev
libosgEarthUtil.so.0:_ZN8osgEarth4Util8Controls13ControlCanvasD0Ev
libosgEarthUtil.so.0:_ZN8osgEarth4Util8Controls13ControlCanvasD1Ev
libosgEarthUtil.so.0:_ZN8osgEarth4Util8Controls13ControlCanvasD2Ev
libosgEarthUtil.so.0:_ZN8osgEarth4Util8Controls14ControlNodeBin4drawERKNS1_14ControlContextEbi
libosgEarthUtil.so.0:_ZN8osgEarth4Util8Controls14ControlNodeBin7addNodeEPNS1_11ControlNodeE
libosgEarthUtil.so.0:_ZN8osgEarth4Util8Controls14ControlNodeBin9setFadingEb
libosgEarthUtil.so.0:_ZN8osgEarth4Util8Controls14ControlNodeBinC1Ev
libosgEarthUtil.so.0:_ZN8osgEarth4Util8Controls14ControlNodeBinC2Ev
libosgEarthUtil.so.0:_ZN8osgEarth4Util8Controls14HSliderControl16fireValueChangedEPNS1_19ControlEventHandlerE
libosgEarthUtil.so.0:_ZN8osgEarth4Util8Controls14HSliderControl4drawERKNS1_14ControlContextE
libosgEarthUtil.so.0:_ZN8osgEarth4Util8Controls14HSliderControl6handleERKN5osgGA15GUIEventAdapterERNS3_16GUIActionAdapterERNS1_14ControlContextE
libosgEarthUtil.so.0:_ZN8osgEarth4Util8Controls14HSliderControl6setMaxEfb
libosgEarthUtil.so.0:_ZN8osgEarth4Util8Controls14HSliderControl6setMinEfb
libosgEarthUtil.so.0:_ZN8osgEarth4Util8Controls14HSliderControl8setValueEfb
libosgEarthUtil.so.0:_ZN8osgEarth4Util8Controls14HSliderControlC1EfffPNS1_19ControlEventHandlerE
libosgEarthUtil.so.0:_ZN8osgEarth4Util8Controls14HSliderControlC2EfffPNS1_19ControlEventHandlerE
libosgEarthUtil.so.0:_ZN8osgEarth4Util8Controls15CheckBoxControl16fireValueChangedEPNS1_19ControlEventHandlerE
libosgEarthUtil.so.0:_ZN8osgEarth4Util8Controls15CheckBoxControl4drawERKNS1_14ControlContextE
libosgEarthUtil.so.0:_ZN8osgEarth4Util8Controls15CheckBoxControl6handleERKN5osgGA15GUIEventAdapterERNS3_16GUIActionAdapterERNS1_14ControlContextE
libosgEarthUtil.so.0:_ZN8osgEarth4Util8Controls15CheckBoxControl8setValueEbb
libosgEarthUtil.so.0:_ZN8osgEarth4Util8Controls15CheckBoxControlC1Eb
libosgEarthUtil.so.0:_ZN8osgEarth4Util8Controls15CheckBoxControlC1EbPNS1_19ControlEventHandlerE
libosgEarthUtil.so.0:_ZN8osgEarth4Util8Controls15CheckBoxControlC2Eb
libosgEarthUtil.so.0:_ZN8osgEarth4Util8Controls15CheckBoxControlC2EbPNS1_19ControlEventHandlerE
libosgEarthUtil.so.0:_ZN8osgEarth4Util8Controls4Grid10getControlEii
libosgEarthUtil.so.0:_ZN8osgEarth4Util8Controls4Grid11addControlsERKSt6vectorIN3osg7ref_ptrINS1_7ControlEEESaIS7_EE
libosgEarthUtil.so.0:_ZN8osgEarth4Util8Controls4Grid11getChildrenERSt6vectorIPNS1_7ControlESaIS5_EE
libosgEarthUtil.so.0:_ZN8osgEarth4Util8Controls4Grid13clearControlsEv
libosgEarthUtil.so.0:_ZN8osgEarth4Util8Controls4Grid14addControlImplEPNS1_7ControlEi
libosgEarthUtil.so.0:_ZN8osgEarth4Util8Controls4Grid14setControlImplEiiPNS1_7ControlE
libosgEarthUtil.so.0:_ZN8osgEarth4Util8Controls4Grid15expandToIncludeEii
libosgEarthUtil.so.0:_ZN8osgEarth4Util8Controls4Grid4drawERKNS1_14ControlContextE
libosgEarthUtil.so.0:_ZN8osgEarth4Util8Controls4Grid6getRowEj
libosgEarthUtil.so.0:_ZN8osgEarth4Util8Controls4Grid7calcPosERKNS1_14ControlContextERKN3osg5Vec2fES9_
libosgEarthUtil.so.0:_ZN8osgEarth4Util8Controls4Grid8calcFillERKNS1_14ControlContextE
libosgEarthUtil.so.0:_ZN8osgEarth4Util8Controls4Grid8calcSizeERKNS1_14ControlContextERN3osg5Vec2fE
libosgEarthUtil.so.0:_ZN8osgEarth4Util8Controls4GridC1ERKNS1_7Control9AlignmentES6_RKNS1_6GutterEf
libosgEarthUtil.so.0:_ZN8osgEarth4Util8Controls4GridC1Ev
libosgEarthUtil.so.0:_ZN8osgEarth4Util8Controls4GridC2ERKNS1_7Control9AlignmentES6_RKNS1_6GutterEf
libosgEarthUtil.so.0:_ZN8osgEarth4Util8Controls4GridC2Ev
libosgEarthUtil.so.0:_ZN8osgEarth4Util8Controls4HBox13clearControlsEv
libosgEarthUtil.so.0:_ZN8osgEarth4Util8Controls4HBox14addControlImplEPNS1_7ControlEi
libosgEarthUtil.so.0:_ZN8osgEarth4Util8Controls4HBox4drawERKNS1_14ControlContextE
libosgEarthUtil.so.0:_ZN8osgEarth4Util8Controls4HBox7calcPosERKNS1_14ControlContextERKN3osg5Vec2fES9_
libosgEarthUtil.so.0:_ZN8osgEarth4Util8Controls4HBox8calcFillERKNS1_14ControlContextE
libosgEarthUtil.so.0:_ZN8osgEarth4Util8Controls4HBox8calcSizeERKNS1_14ControlContextERN3osg5Vec2fE
libosgEarthUtil.so.0:_ZN8osgEarth4Util8Controls4HBoxC1ERKNS1_7Control9AlignmentES6_RKNS1_6GutterEf
libosgEarthUtil.so.0:_ZN8osgEarth4Util8Controls4HBoxC1Ev
libosgEarthUtil.so.0:_ZN8osgEarth4Util8Controls4HBoxC2ERKNS1_7Control9AlignmentES6_RKNS1_6GutterEf
libosgEarthUtil.so.0:_ZN8osgEarth4Util8Controls4HBoxC2Ev
libosgEarthUtil.so.0:_ZN8osgEarth4Util8Controls4VBox13clearControlsEv
libosgEarthUtil.so.0:_ZN8osgEarth4Util8Controls4VBox14addControlImplEPNS1_7ControlEi
libosgEarthUtil.so.0:_ZN8osgEarth4Util8Controls4VBox4drawERKNS1_14ControlContextE
libosgEarthUtil.so.0:_ZN8osgEarth4Util8Controls4VBox7calcPosERKNS1_14ControlContextERKN3osg5Vec2fES9_
libosgEarthUtil.so.0:_ZN8osgEarth4Util8Controls4VBox8calcFillERKNS1_14ControlContextE
libosgEarthUtil.so.0:_ZN8osgEarth4Util8Controls4VBox8calcSizeERKNS1_14ControlContextERN3osg5Vec2fE
libosgEarthUtil.so.0:_ZN8osgEarth4Util8Controls4VBoxC1ERKNS1_7Control9AlignmentES6_RKNS1_6GutterEf
libosgEarthUtil.so.0:_ZN8osgEarth4Util8Controls4VBoxC1Ev
libosgEarthUtil.so.0:_ZN8osgEarth4Util8Controls4VBoxC2ERKNS1_7Control9AlignmentES6_RKNS1_6GutterEf
libosgEarthUtil.so.0:_ZN8osgEarth4Util8Controls4VBoxC2Ev
libosgEarthUtil.so.0:_ZN8osgEarth4Util8Controls5Frame4drawERKNS1_14ControlContextE
libosgEarthUtil.so.0:_ZN8osgEarth4Util8Controls5Frame7calcPosERKNS1_14ControlContextERKN3osg5Vec2fES9_
libosgEarthUtil.so.0:_ZN8osgEarth4Util8Controls5FrameC1Ev
libosgEarthUtil.so.0:_ZN8osgEarth4Util8Controls5FrameC2Ev
libosgEarthUtil.so.0:_ZN8osgEarth4Util8Controls7Control10setOpacityEf
libosgEarthUtil.so.0:_ZN8osgEarth4Util8Controls7Control10setPaddingENS2_4SideEf
libosgEarthUtil.so.0:_ZN8osgEarth4Util8Controls7Control10setPaddingERKNS1_6GutterE
libosgEarthUtil.so.0:_ZN8osgEarth4Util8Controls7Control10setPaddingEf
libosgEarthUtil.so.0:_ZN8osgEarth4Util8Controls7Control10setVisibleEb
libosgEarthUtil.so.0:_ZN8osgEarth4Util8Controls7Control11setPositionEff
libosgEarthUtil.so.0:_ZN8osgEarth4Util8Controls7Control11setVertFillEbf
libosgEarthUtil.so.0:_ZN8osgEarth4Util8Controls7Control12setBackColorERKN3osg5Vec4fE
libosgEarthUtil.so.0:_ZN8osgEarth4Util8Controls7Control12setForeColorERKN3osg5Vec4fE
libosgEarthUtil.so.0:_ZN8osgEarth4Util8Controls7Control12setHorizFillEbf
libosgEarthUtil.so.0:_ZN8osgEarth4Util8Controls7Control12setVertAlignERKNS2_9AlignmentE
libosgEarthUtil.so.0:_ZN8osgEarth4Util8Controls7Control13setHorizAlignERKNS2_9AlignmentE
libosgEarthUtil.so.0:_ZN8osgEarth4Util8Controls7Control14setActiveColorERKN3osg5Vec4fE
libosgEarthUtil.so.0:_ZN8osgEarth4Util8Controls7Control14setBorderColorERKN3osg5Vec4fE
libosgEarthUtil.so.0:_ZN8osgEarth4Util8Controls7Control14setBorderWidthEf
libosgEarthUtil.so.0:_ZN8osgEarth4Util8Controls7Control15addEventHandlerEPNS1_19ControlEventHandlerEb
libosgEarthUtil.so.0:_ZN8osgEarth4Util8Controls7Control15getGeomStateSetEv
libosgEarthUtil.so.0:_ZN8osgEarth4Util8Controls7Control4drawERKNS1_14ControlContextE
libosgEarthUtil.so.0:_ZN8osgEarth4Util8Controls7Control4initEv
libosgEarthUtil.so.0:_ZN8osgEarth4Util8Controls7Control4setXEf
libosgEarthUtil.so.0:_ZN8osgEarth4Util8Controls7Control4setYEf
libosgEarthUtil.so.0:_ZN8osgEarth4Util8Controls7Control5dirtyEv
libosgEarthUtil.so.0:_ZN8osgEarth4Util8Controls7Control6handleERKN5osgGA15GUIEventAdapterERNS3_16GUIActionAdapterERNS1_14ControlContextE
libosgEarthUtil.so.0:_ZN8osgEarth4Util8Controls7Control7calcPosERKNS1_14ControlContextERKN3osg5Vec2fES9_
libosgEarthUtil.so.0:_ZN8osgEarth4Util8Controls7Control7setSizeEff
libosgEarthUtil.so.0:_ZN8osgEarth4Util8Controls7Control8calcSizeERKNS1_14ControlContextERN3osg5Vec2fE
libosgEarthUtil.so.0:_ZN8osgEarth4Util8Controls7Control8setAlignERKNS2_9AlignmentES5_
libosgEarthUtil.so.0:_ZN8osgEarth4Util8Controls7Control8setWidthEf
libosgEarthUtil.so.0:_ZN8osgEarth4Util8Controls7Control9setActiveEb
libosgEarthUtil.so.0:_ZN8osgEarth4Util8Controls7Control9setHeightEf
libosgEarthUtil.so.0:_ZN8osgEarth4Util8Controls7Control9setMarginENS2_4SideEf
libosgEarthUtil.so.0:_ZN8osgEarth4Util8Controls7Control9setMarginERKNS1_6GutterE
libosgEarthUtil.so.0:_ZN8osgEarth4Util8Controls7ControlC1ERKNS2_9AlignmentES5_RKNS1_6GutterE
libosgEarthUtil.so.0:_ZN8osgEarth4Util8Controls7ControlC1Ev
libosgEarthUtil.so.0:_ZN8osgEarth4Util8Controls7ControlC2ERKNS2_9AlignmentES5_RKNS1_6GutterE
libosgEarthUtil.so.0:_ZN8osgEarth4Util8Controls7ControlC2Ev
libosgEarthUtil.so.0:_ZN8osgEarth4Util8Controls9Container10setVisibleEb
libosgEarthUtil.so.0:_ZN8osgEarth4Util8Controls9Container11addControlsERKSt6vectorIN3osg7ref_ptrINS1_7ControlEEESaIS7_EE
libosgEarthUtil.so.0:_ZN8osgEarth4Util8Controls9Container11getChildrenERSt6vectorIPNS1_7ControlESaIS5_EE
libosgEarthUtil.so.0:_ZN8osgEarth4Util8Controls9Container15setChildSpacingEf
libosgEarthUtil.so.0:_ZN8osgEarth4Util8Controls9Container16applyChildAlignsEv
libosgEarthUtil.so.0:_ZN8osgEarth4Util8Controls9Container17setChildVertAlignENS1_7Control9AlignmentE
libosgEarthUtil.so.0:_ZN8osgEarth4Util8Controls9Container18setChildHorizAlignENS1_7Control9AlignmentE
libosgEarthUtil.so.0:_ZN8osgEarth4Util8Controls9Container4drawERKNS1_14ControlContextE
libosgEarthUtil.so.0:_ZN8osgEarth4Util8Controls9Container6handleERKN5osgGA15GUIEventAdapterERNS3_16GUIActionAdapterERNS1_14ControlContextE
libosgEarthUtil.so.0:_ZN8osgEarth4Util8Controls9Container7calcPosERKNS1_14ControlContextERKN3osg5Vec2fES9_
libosgEarthUtil.so.0:_ZN8osgEarth4Util8Controls9Container8calcFillERKNS1_14ControlContextE
libosgEarthUtil.so.0:_ZN8osgEarth4Util8Controls9Container8calcSizeERKNS1_14ControlContextERN3osg5Vec2fE
libosgEarthUtil.so.0:_ZN8osgEarth4Util8Controls9ContainerC1ERKNS1_7Control9AlignmentES6_RKNS1_6GutterEf
libosgEarthUtil.so.0:_ZN8osgEarth4Util8Controls9ContainerC1Ev
libosgEarthUtil.so.0:_ZN8osgEarth4Util8Controls9ContainerC2ERKNS1_7Control9AlignmentES6_RKNS1_6GutterEf
libosgEarthUtil.so.0:_ZN8osgEarth4Util8Controls9ContainerC2Ev
libosgEarthUtil.so.0:_ZN8osgEarth4Util8GeoGraph12insertObjectEPNS0_9GeoObjectE
libosgEarthUtil.so.0:_ZN8osgEarth4Util8GeoGraphC1ERKNS_9GeoExtentEfjjfjj
libosgEarthUtil.so.0:_ZN8osgEarth4Util8GeoGraphC2ERKNS_9GeoExtentEfjjfjj
libosgEarthUtil.so.0:_ZN8osgEarth4Util8HTMGroup11insertChildEjPN3osg4NodeE
libosgEarthUtil.so.0:_ZN8osgEarth4Util8HTMGroup12reinitializeEv
libosgEarthUtil.so.0:_ZN8osgEarth4Util8HTMGroup12replaceChildEPN3osg4NodeES4_
libosgEarthUtil.so.0:_ZN8osgEarth4Util8HTMGroup14removeChildrenEjj
libosgEarthUtil.so.0:_ZN8osgEarth4Util8HTMGroup6insertEPN3osg4NodeE
libosgEarthUtil.so.0:_ZN8osgEarth4Util8HTMGroup8addChildEPN3osg4NodeE
libosgEarthUtil.so.0:_ZN8osgEarth4Util8HTMGroup8setChildEjPN3osg4NodeE
libosgEarthUtil.so.0:_ZN8osgEarth4Util8HTMGroupC1Ev
libosgEarthUtil.so.0:_ZN8osgEarth4Util8HTMGroupC2Ev
libosgEarthUtil.so.0:_ZN8osgEarth4Util8TFSLayerC1Ev
libosgEarthUtil.so.0:_ZN8osgEarth4Util8TFSLayerC2Ev
libosgEarthUtil.so.0:_ZN8osgEarth4Util8WMSLayer10getExtentsERdS2_S2_S2_
libosgEarthUtil.so.0:_ZN8osgEarth4Util8WMSLayer10setExtentsEdddd
libosgEarthUtil.so.0:_ZN8osgEarth4Util8WMSLayer16getLatLonExtentsERdS2_S2_S2_
libosgEarthUtil.so.0:_ZN8osgEarth4Util8WMSLayer16setLatLonExtentsEdddd
libosgEarthUtil.so.0:_ZN8osgEarth4Util8WMSLayerC1Ev
libosgEarthUtil.so.0:_ZN8osgEarth4Util8WMSLayerC2Ev
libosgEarthUtil.so.0:_ZN8osgEarth4Util8WMSStyleC1ERKNSt7__cxx1112basic_stringIcSt11char_traitsIcESaIcEEES9_
libosgEarthUtil.so.0:_ZN8osgEarth4Util8WMSStyleC1Ev
libosgEarthUtil.so.0:_ZN8osgEarth4Util8WMSStyleC2ERKNSt7__cxx1112basic_stringIcSt11char_traitsIcESaIcEEES9_
libosgEarthUtil.so.0:_ZN8osgEarth4Util8WMSStyleC2Ev
libosgEarthUtil.so.0:_ZN8osgEarth4Util9ClipSpace11clampToLeftERNS_8GeoPointE
libosgEarthUtil.so.0:_ZN8osgEarth4Util9ClipSpace13clampToBottomERNS_8GeoPointE
libosgEarthUtil.so.0:_ZN8osgEarth4Util9ClipSpaceC1ERKN3osg7MatrixdES5_
libosgEarthUtil.so.0:_ZN8osgEarth4Util9ClipSpaceC2ERKN3osg7MatrixdES5_
libosgEarthUtil.so.0:_ZN8osgEarth4Util9FogEffect6attachEPN3osg8StateSetE
libosgEarthUtil.so.0:_ZN8osgEarth4Util9FogEffect6detachEPN3osg8StateSetE
libosgEarthUtil.so.0:_ZN8osgEarth4Util9FogEffect6detachEv
libosgEarthUtil.so.0:_ZN8osgEarth4Util9FogEffectC1Ev
libosgEarthUtil.so.0:_ZN8osgEarth4Util9FogEffectC2Ev
libosgEarthUtil.so.0:_ZN8osgEarth4Util9FogEffectD0Ev
libosgEarthUtil.so.0:_ZN8osgEarth4Util9FogEffectD1Ev
libosgEarthUtil.so.0:_ZN8osgEarth4Util9FogEffectD2Ev
libosgEarthUtil.so.0:_ZN8osgEarth4Util9GeoObjectC1Ev
libosgEarthUtil.so.0:_ZN8osgEarth4Util9GeoObjectC2Ev
libosgEarthUtil.so.0:_ZN8osgEarth4Util9OceanNode11setSeaLevelEf
libosgEarthUtil.so.0:_ZN8osgEarth4Util9OceanNode6createEPNS_7MapNodeE
libosgEarthUtil.so.0:_ZN8osgEarth4Util9OceanNode6createERKNS0_12OceanOptionsEPNS_7MapNodeE
libosgEarthUtil.so.0:_ZN8osgEarth4Util9OceanNode8setAlphaEf
libosgEarthUtil.so.0:_ZN8osgEarth4Util9OceanNode8traverseERN3osg11NodeVisitorE
libosgEarthUtil.so.0:_ZN8osgEarth4Util9OceanNodeC1ERKNS0_12OceanOptionsE
libosgEarthUtil.so.0:_ZN8osgEarth4Util9OceanNodeC2ERKNS0_12OceanOptionsE
libosgEarthUtil.so.0:_ZN8osgEarth4Util9OceanNodeD0Ev
libosgEarthUtil.so.0:_ZN8osgEarth4Util9OceanNodeD1Ev
libosgEarthUtil.so.0:_ZN8osgEarth4Util9OceanNodeD2Ev
libosgEarthUtil.so.0:_ZN8osgEarth4Util9RTTPicker11insertChildEjPN3osg4NodeE
libosgEarthUtil.so.0:_ZN8osgEarth4Util9RTTPicker11removeChildEPN3osg4NodeE
libosgEarthUtil.so.0:_ZN8osgEarth4Util9RTTPicker11setCullMaskEj
libosgEarthUtil.so.0:_ZN8osgEarth4Util9RTTPicker12replaceChildEPN3osg4NodeES4_
libosgEarthUtil.so.0:_ZN8osgEarth4Util9RTTPicker16createRTTProgramEv
libosgEarthUtil.so.0:_ZN8osgEarth4Util9RTTPicker18checkForPickResultERNS1_4PickEj
libosgEarthUtil.so.0:_ZN8osgEarth4Util9RTTPicker18getOrCreateTextureEPN3osg4ViewE
libosgEarthUtil.so.0:_ZN8osgEarth4Util9RTTPicker22getOrCreatePickContextEPN3osg4ViewE
libosgEarthUtil.so.0:_ZN8osgEarth4Util9RTTPicker4pickEPN3osg4ViewEff
libosgEarthUtil.so.0:_ZN8osgEarth4Util9RTTPicker4pickEPN3osg4ViewEffPNS_6Picker8CallbackE
libosgEarthUtil.so.0:_ZN8osgEarth4Util9RTTPicker6handleERKN5osgGA15GUIEventAdapterERNS2_16GUIActionAdapterE
libosgEarthUtil.so.0:_ZN8osgEarth4Util9RTTPicker8addChildEPN3osg4NodeE
libosgEarthUtil.so.0:_ZN8osgEarth4Util9RTTPicker8runPicksEj
libosgEarthUtil.so.0:_ZN8osgEarth4Util9RTTPickerC1Ei
libosgEarthUtil.so.0:_ZN8osgEarth4Util9RTTPickerC2Ei
libosgEarthUtil.so.0:_ZN8osgEarth4Util9RTTPickerD0Ev
libosgEarthUtil.so.0:_ZN8osgEarth4Util9RTTPickerD1Ev
libosgEarthUtil.so.0:_ZN8osgEarth4Util9RTTPickerD2Ev
libosgEarthUtil.so.0:_ZN8osgEarth4Util9TileIndex3addERKNSt7__cxx1112basic_stringIcSt11char_traitsIcESaIcEEERKNS_9GeoExtentE
libosgEarthUtil.so.0:_ZN8osgEarth4Util9TileIndex4loadERKNSt7__cxx1112basic_stringIcSt11char_traitsIcESaIcEEE
libosgEarthUtil.so.0:_ZN8osgEarth4Util9TileIndex6createERKNSt7__cxx1112basic_stringIcSt11char_traitsIcESaIcEEEPKNS_16SpatialReferenceE
libosgEarthUtil.so.0:_ZN8osgEarth4Util9TileIndex8getFilesERKNS_9GeoExtentERSt6vectorINSt7__cxx1112basic_stringIcSt11char_traitsIcESaIcEEESaISB_EE
libosgEarthUtil.so.0:_ZN8osgEarth4Util9TileIndexC1Ev
libosgEarthUtil.so.0:_ZN8osgEarth4Util9TileIndexC2Ev
libosgEarthUtil.so.0:_ZN8osgEarth4Util9TileIndexD0Ev
libosgEarthUtil.so.0:_ZN8osgEarth4Util9TileIndexD1Ev
libosgEarthUtil.so.0:_ZN8osgEarth4Util9TileIndexD2Ev
libosgEarthUtil.so.0:_ZNK8osgEarth4Util10ViewFitter15createViewpointERKSt6vectorINS_8GeoPointESaIS3_EERNS_9ViewpointE
libosgEarthUtil.so.0:_ZNK8osgEarth4Util11ClusterNode10getEnabledEv
libosgEarthUtil.so.0:_ZNK8osgEarth4Util11ClusterNode10getMapNodeEv
libosgEarthUtil.so.0:_ZNK8osgEarth4Util11ClusterNode9getRadiusEv
libosgEarthUtil.so.0:_ZNK8osgEarth4Util11DataScanner15findImageLayersERKNSt7__cxx1112basic_stringIcSt11char_traitsIcESaIcEEERKSt6vectorIS7_SaIS7_EERSA_IN3osg7ref_ptrINS_10ImageLayerEEESaISI_EE
libosgEarthUtil.so.0:_ZNK8osgEarth4Util11OceanDriver10getMapNodeEPKN5osgDB7OptionsE
libosgEarthUtil.so.0:_ZNK8osgEarth4Util11OceanDriver15getOceanOptionsEPKN5osgDB7OptionsE
libosgEarthUtil.so.0:_ZNK8osgEarth4Util11SimplePager10getProfileEv
libosgEarthUtil.so.0:_ZNK8osgEarth4Util11SimplePager20getEnableCancalationEv
libosgEarthUtil.so.0:_ZNK8osgEarth4Util11SimplePager9getBoundsERKNS_7TileKeyE
libosgEarthUtil.so.0:_ZNK8osgEarth4Util11TMSPackager10getOptionsEv
libosgEarthUtil.so.0:_ZNK8osgEarth4Util11TMSPackager12getExtensionB5cxx11Ev
libosgEarthUtil.so.0:_ZNK8osgEarth4Util11TMSPackager12getLayerNameB5cxx11Ev
libosgEarthUtil.so.0:_ZNK8osgEarth4Util11TMSPackager12getOverwriteEv
libosgEarthUtil.so.0:_ZNK8osgEarth4Util11TMSPackager13getTileSourceEv
libosgEarthUtil.so.0:_ZNK8osgEarth4Util11TMSPackager14getDestinationB5cxx11Ev
libosgEarthUtil.so.0:_ZNK8osgEarth4Util11TMSPackager14getKeepEmptiesEv
libosgEarthUtil.so.0:_ZNK8osgEarth4Util11TMSPackager14getTileVisitorEv
libosgEarthUtil.so.0:_ZNK8osgEarth4Util11TMSPackager17getApplyAlphaMaskEv
libosgEarthUtil.so.0:_ZNK8osgEarth4Util11TMSPackager22getElevationPixelDepthEv
libosgEarthUtil.so.0:_ZNK8osgEarth4Util12AtlasBuilder5buildEPKNS_9Symbology15ResourceLibraryERKNSt7__cxx1112basic_stringIcSt11char_traitsIcESaIcEEERNS1_5AtlasE
libosgEarthUtil.so.0:_ZNK8osgEarth4Util12OceanOptions9getConfigEv
libosgEarthUtil.so.0:_ZNK8osgEarth4Util12ShadowCaster16releaseGLObjectsEPN3osg5StateE
libosgEarthUtil.so.0:_ZNK8osgEarth4Util12UTMGraticule7getNodeEv
libosgEarthUtil.so.0:_ZNK8osgEarth4Util13ClampCallback13clampGeometryEPN3osg8GeometryERKNS2_7MatrixdES7_
libosgEarthUtil.so.0:_ZNK8osgEarth4Util13ClampCallback19getIntersectionMaskEv
libosgEarthUtil.so.0:_ZNK8osgEarth4Util13ClampCallback5clampERKN3osg5Vec3dERS3_
libosgEarthUtil.so.0:_ZNK8osgEarth4Util13GARSGraticule7getNodeEv
libosgEarthUtil.so.0:_ZNK8osgEarth4Util13MGRSFormatter6formatB5cxx11ERKNS_8GeoPointE
libosgEarthUtil.so.0:_ZNK8osgEarth4Util13MGRSFormatter9transformERKNS_8GeoPointERNS0_9MGRSCoordE
libosgEarthUtil.so.0:_ZNK8osgEarth4Util13MGRSGraticule15loadGZDFeaturesEPKNS_16SpatialReferenceERNSt7__cxx114listIN3osg7ref_ptrINS_8Features7FeatureEEESaISB_EEE
libosgEarthUtil.so.0:_ZNK8osgEarth4Util13MGRSGraticule7getNodeEv
libosgEarthUtil.so.0:_ZNK8osgEarth4Util13MapNodeHelper13configureViewEPN9osgViewer4ViewE
libosgEarthUtil.so.0:_ZNK8osgEarth4Util13MapNodeHelper4loadERN3osg14ArgumentParserEPN9osgViewer10ViewerBaseEPNS0_8Controls9ContainerEPKN5osgDB7OptionsE
libosgEarthUtil.so.0:_ZNK8osgEarth4Util13MapNodeHelper5parseEPNS_7MapNodeERN3osg14ArgumentParserEPN9osgViewer4ViewEPNS4_5GroupEPNS0_8Controls12LabelControlE
libosgEarthUtil.so.0:_ZNK8osgEarth4Util13MapNodeHelper5parseEPNS_7MapNodeERN3osg14ArgumentParserEPN9osgViewer4ViewEPNS4_5GroupEPNS0_8Controls9ContainerE
libosgEarthUtil.so.0:_ZNK8osgEarth4Util13MapNodeHelper5usageB5cxx11Ev
libosgEarthUtil.so.0:_ZNK8osgEarth4Util13TopologyGraph14createBoundaryEjRSt6vectorISt23_Rb_tree_const_iteratorINS1_6VertexEESaIS5_EE
libosgEarthUtil.so.0:_ZNK8osgEarth4Util13TopologyGraph16getNumBoundariesEv
libosgEarthUtil.so.0:_ZNK8osgEarth4Util13VerticalScale9getConfigEv
libosgEarthUtil.so.0:_ZNK8osgEarth4Util14HSLColorFilter12getHSLOffsetEv
libosgEarthUtil.so.0:_ZNK8osgEarth4Util14HSLColorFilter25getEntryPointFunctionNameB5cxx11Ev
libosgEarthUtil.so.0:_ZNK8osgEarth4Util14HSLColorFilter7installEPN3osg8StateSetE
libosgEarthUtil.so.0:_ZNK8osgEarth4Util14HSLColorFilter9getConfigEv
libosgEarthUtil.so.0:_ZNK8osgEarth4Util14RGBColorFilter12getRGBOffsetEv
libosgEarthUtil.so.0:_ZNK8osgEarth4Util14RGBColorFilter25getEntryPointFunctionNameB5cxx11Ev
libosgEarthUtil.so.0:_ZNK8osgEarth4Util14RGBColorFilter7installEPN3osg8StateSetE
libosgEarthUtil.so.0:_ZNK8osgEarth4Util14RGBColorFilter9getConfigEv
libosgEarthUtil.so.0:_ZNK8osgEarth4Util14TerrainProfile11getDistanceEi
libosgEarthUtil.so.0:_ZNK8osgEarth4Util14TerrainProfile12getElevationEi
libosgEarthUtil.so.0:_ZNK8osgEarth4Util14TerrainProfile16getNumElevationsEv
libosgEarthUtil.so.0:_ZNK8osgEarth4Util14TerrainProfile16getTotalDistanceEv
libosgEarthUtil.so.0:_ZNK8osgEarth4Util14TerrainProfile18getElevationRangesERdS2_
libosgEarthUtil.so.0:_ZNK8osgEarth4Util15CMYKColorFilter12getCMYOffsetEv
libosgEarthUtil.so.0:_ZNK8osgEarth4Util15CMYKColorFilter13getCMYKOffsetEv
libosgEarthUtil.so.0:_ZNK8osgEarth4Util15CMYKColorFilter25getEntryPointFunctionNameB5cxx11Ev
libosgEarthUtil.so.0:_ZNK8osgEarth4Util15CMYKColorFilter7installEPN3osg8StateSetE
libosgEarthUtil.so.0:_ZNK8osgEarth4Util15CMYKColorFilter9getConfigEv
libosgEarthUtil.so.0:_ZNK8osgEarth4Util15GLSLColorFilter25getEntryPointFunctionNameB5cxx11Ev
libosgEarthUtil.so.0:_ZNK8osgEarth4Util15GLSLColorFilter7installEPN3osg8StateSetE
libosgEarthUtil.so.0:_ZNK8osgEarth4Util15GLSLColorFilter9getConfigEv
libosgEarthUtil.so.0:_ZNK8osgEarth4Util16EarthManipulator11getRotationERKN3osg5Vec3dE
libosgEarthUtil.so.0:_ZNK8osgEarth4Util16EarthManipulator11getSettingsEv
libosgEarthUtil.so.0:_ZNK8osgEarth4Util16EarthManipulator11isTetheringEv
libosgEarthUtil.so.0:_ZNK8osgEarth4Util16EarthManipulator12getViewpointEv
libosgEarthUtil.so.0:_ZNK8osgEarth4Util16EarthManipulator12isMouseClickEPKN5osgGA15GUIEventAdapterE
libosgEarthUtil.so.0:_ZNK8osgEarth4Util16EarthManipulator13getQuaternionEdd
libosgEarthUtil.so.0:_ZNK8osgEarth4Util16EarthManipulator13screenToWorldEffPN3osg4ViewERNS2_5Vec3dE
libosgEarthUtil.so.0:_ZNK8osgEarth4Util16EarthManipulator14dumpActionInfoERKNS1_6ActionEN3osg14NotifySeverityE
libosgEarthUtil.so.0:_ZNK8osgEarth4Util16EarthManipulator14getEulerAnglesERKN3osg4QuatEPdS6_
libosgEarthUtil.so.0:_ZNK8osgEarth4Util16EarthManipulator14getWorldMatrixEv
libosgEarthUtil.so.0:_ZNK8osgEarth4Util16EarthManipulator16getInverseMatrixEv
libosgEarthUtil.so.0:_ZNK8osgEarth4Util16EarthManipulator18isSettingViewpointEv
libosgEarthUtil.so.0:_ZNK8osgEarth4Util16EarthManipulator19intersectLookVectorERN3osg5Vec3dES4_S4_
libosgEarthUtil.so.0:_ZNK8osgEarth4Util16EarthManipulator21computeCenterRotationERKN3osg5Vec3dE
libosgEarthUtil.so.0:_ZNK8osgEarth4Util16EarthManipulator21createLocalCoordFrameERKN3osg5Vec3dERNS2_7MatrixdE
libosgEarthUtil.so.0:_ZNK8osgEarth4Util16EarthManipulator21getWorldInverseMatrixEv
libosgEarthUtil.so.0:_ZNK8osgEarth4Util16EarthManipulator23getCompositeEulerAnglesEPdS2_
libosgEarthUtil.so.0:_ZNK8osgEarth4Util16EarthManipulator6Action12getIntOptionEii
libosgEarthUtil.so.0:_ZNK8osgEarth4Util16EarthManipulator6Action13getBoolOptionEib
libosgEarthUtil.so.0:_ZNK8osgEarth4Util16EarthManipulator6Action15getDoubleOptionEid
libosgEarthUtil.so.0:_ZNK8osgEarth4Util16EarthManipulator8Settings10expandSpecERKNS1_9InputSpecERNSt7__cxx114listIS3_SaIS3_EEE
libosgEarthUtil.so.0:_ZNK8osgEarth4Util16EarthManipulator8Settings9getActionEiii
libosgEarthUtil.so.0:_ZNK8osgEarth4Util16EarthManipulator8getUsageERN3osg16ApplicationUsageE
libosgEarthUtil.so.0:_ZNK8osgEarth4Util16EarthManipulator9getMatrixEv
libosgEarthUtil.so.0:_ZNK8osgEarth4Util16EarthManipulator9intersectERKN3osg5Vec3dES5_RS3_S6_
libosgEarthUtil.so.0:_ZNK8osgEarth4Util16GammaColorFilter25getEntryPointFunctionNameB5cxx11Ev
libosgEarthUtil.so.0:_ZNK8osgEarth4Util16GammaColorFilter7installEPN3osg8StateSetE
libosgEarthUtil.so.0:_ZNK8osgEarth4Util16GammaColorFilter8getGammaEv
libosgEarthUtil.so.0:_ZNK8osgEarth4Util16GammaColorFilter9getConfigEv
libosgEarthUtil.so.0:_ZNK8osgEarth4Util16LatLongFormatter6formatB5cxx11ERKNS_5AngleEbiRKNS1_13AngularFormatE
libosgEarthUtil.so.0:_ZNK8osgEarth4Util16LatLongFormatter6formatB5cxx11ERKNS_8GeoPointE
libosgEarthUtil.so.0:_ZNK8osgEarth4Util16NightColorFilter25getEntryPointFunctionNameB5cxx11Ev
libosgEarthUtil.so.0:_ZNK8osgEarth4Util16NightColorFilter7installEPN3osg8StateSetE
libosgEarthUtil.so.0:_ZNK8osgEarth4Util16NightColorFilter9getConfigEv
libosgEarthUtil.so.0:_ZNK8osgEarth4Util16SimpleOceanLayer11getSeaLevelEv
libosgEarthUtil.so.0:_ZNK8osgEarth4Util16SimpleOceanLayer14getMaxAltitudeEv
libosgEarthUtil.so.0:_ZNK8osgEarth4Util16SimpleOceanLayer21modifyTileBoundingBoxERKNS_7TileKeyERN3osg15BoundingBoxImplINS5_5Vec3fEEE
libosgEarthUtil.so.0:_ZNK8osgEarth4Util16SimpleOceanLayer8getColorEv
libosgEarthUtil.so.0:_ZNK8osgEarth4Util17GeodeticGraticule10CameraData16releaseGLObjectsEPN3osg5StateE
libosgEarthUtil.so.0:_ZNK8osgEarth4Util17GeodeticGraticule13getCameraDataEPN3osg6CameraE
libosgEarthUtil.so.0:_ZNK8osgEarth4Util17GeodeticGraticule13getViewExtentEPN7osgUtil11CullVisitorE
libosgEarthUtil.so.0:_ZNK8osgEarth4Util17GeodeticGraticule16releaseGLObjectsEPN3osg5StateE
libosgEarthUtil.so.0:_ZNK8osgEarth4Util17GeodeticGraticule19getGridLinesVisibleEv
libosgEarthUtil.so.0:_ZNK8osgEarth4Util17GeodeticGraticule20getEdgeLabelsVisibleEv
libosgEarthUtil.so.0:_ZNK8osgEarth4Util17GeodeticGraticule20getGridLabelsVisibleEv
libosgEarthUtil.so.0:_ZNK8osgEarth4Util17GeodeticGraticule7getNodeEv
libosgEarthUtil.so.0:_ZNK8osgEarth4Util18MeasureToolHandler14getMouseButtonEv
libosgEarthUtil.so.0:_ZNK8osgEarth4Util18MeasureToolHandler19getGeoInterpolationEv
libosgEarthUtil.so.0:_ZNK8osgEarth4Util18MeasureToolHandler9getIsPathEv
libosgEarthUtil.so.0:_ZNK8osgEarth4Util19WriteTMSTileHandler16getProcessStringB5cxx11Ev
libosgEarthUtil.so.0:_ZNK8osgEarth4Util19WriteTMSTileHandler7hasDataERKNS_7TileKeyE
libosgEarthUtil.so.0:_ZNK8osgEarth4Util20ChromaKeyColorFilter11getDistanceEv
libosgEarthUtil.so.0:_ZNK8osgEarth4Util20ChromaKeyColorFilter25getEntryPointFunctionNameB5cxx11Ev
libosgEarthUtil.so.0:_ZNK8osgEarth4Util20ChromaKeyColorFilter7installEPN3osg8StateSetE
libosgEarthUtil.so.0:_ZNK8osgEarth4Util20ChromaKeyColorFilter8getColorEv
libosgEarthUtil.so.0:_ZNK8osgEarth4Util20ChromaKeyColorFilter9getConfigEv
libosgEarthUtil.so.0:_ZNK8osgEarth4Util20MGRSGraticuleOptions9getConfigEv
libosgEarthUtil.so.0:_ZNK8osgEarth4Util21FractalElevationLayer10getMappingEPKNS_14LandCoverClassE
libosgEarthUtil.so.0:_ZNK8osgEarth4Util21LinearLineOfSightNode11getBadColorEv
libosgEarthUtil.so.0:_ZNK8osgEarth4Util21LinearLineOfSightNode11getEndWorldEv
libosgEarthUtil.so.0:_ZNK8osgEarth4Util21LinearLineOfSightNode11getHitWorldEv
libosgEarthUtil.so.0:_ZNK8osgEarth4Util21LinearLineOfSightNode12getGoodColorEv
libosgEarthUtil.so.0:_ZNK8osgEarth4Util21LinearLineOfSightNode13getStartWorldEv
libosgEarthUtil.so.0:_ZNK8osgEarth4Util21LinearLineOfSightNode14getDisplayModeEv
libosgEarthUtil.so.0:_ZNK8osgEarth4Util21LinearLineOfSightNode14getTerrainOnlyEv
libosgEarthUtil.so.0:_ZNK8osgEarth4Util21LinearLineOfSightNode6getEndEv
libosgEarthUtil.so.0:_ZNK8osgEarth4Util21LinearLineOfSightNode6getHitEv
libosgEarthUtil.so.0:_ZNK8osgEarth4Util21LinearLineOfSightNode8getStartEv
libosgEarthUtil.so.0:_ZNK8osgEarth4Util21LinearLineOfSightNode9getHasLOSEv
libosgEarthUtil.so.0:_ZNK8osgEarth4Util21RadialLineOfSightNode11getBadColorEv
libosgEarthUtil.so.0:_ZNK8osgEarth4Util21RadialLineOfSightNode12getGoodColorEv
libosgEarthUtil.so.0:_ZNK8osgEarth4Util21RadialLineOfSightNode12getNumSpokesEv
libosgEarthUtil.so.0:_ZNK8osgEarth4Util21RadialLineOfSightNode14getCenterWorldEv
libosgEarthUtil.so.0:_ZNK8osgEarth4Util21RadialLineOfSightNode14getDisplayModeEv
libosgEarthUtil.so.0:_ZNK8osgEarth4Util21RadialLineOfSightNode14getTerrainOnlyEv
libosgEarthUtil.so.0:_ZNK8osgEarth4Util21RadialLineOfSightNode15getOutlineColorEv
libosgEarthUtil.so.0:_ZNK8osgEarth4Util21RadialLineOfSightNode7getFillEv
libosgEarthUtil.so.0:_ZNK8osgEarth4Util21RadialLineOfSightNode9getCenterEv
libosgEarthUtil.so.0:_ZNK8osgEarth4Util21RadialLineOfSightNode9getRadiusEv
libosgEarthUtil.so.0:_ZNK8osgEarth4Util22GeodeticLabelingEngine13getResolutionEv
libosgEarthUtil.so.0:_ZNK8osgEarth4Util24TerrainProfileCalculator10getProfileEv
libosgEarthUtil.so.0:_ZNK8osgEarth4Util24TerrainProfileCalculator6getEndENS_12AltitudeModeE
libosgEarthUtil.so.0:_ZNK8osgEarth4Util24TerrainProfileCalculator6getEndEv
libosgEarthUtil.so.0:_ZNK8osgEarth4Util24TerrainProfileCalculator8getStartENS_12AltitudeModeE
libosgEarthUtil.so.0:_ZNK8osgEarth4Util24TerrainProfileCalculator8getStartEv
libosgEarthUtil.so.0:_ZNK8osgEarth4Util25AttributionControlFactory6createEPNS_7MapNodeE
libosgEarthUtil.so.0:_ZNK8osgEarth4Util25MouseCoordsControlFactory6createEPNS_7MapNodeEPN9osgViewer4ViewE
libosgEarthUtil.so.0:_ZNK8osgEarth4Util26MultiElevationLayerOptions9getConfigEv
libosgEarthUtil.so.0:_ZNK8osgEarth4Util28FractalElevationLayerOptions9getConfigEv
libosgEarthUtil.so.0:_ZNK8osgEarth4Util29AnnotationGraphControlFactory6createEPN3osg4NodeEPN9osgViewer4ViewE
libosgEarthUtil.so.0:_ZNK8osgEarth4Util29BrightnessContrastColorFilter21getBrightnessContrastEv
libosgEarthUtil.so.0:_ZNK8osgEarth4Util29BrightnessContrastColorFilter25getEntryPointFunctionNameB5cxx11Ev
libosgEarthUtil.so.0:_ZNK8osgEarth4Util29BrightnessContrastColorFilter7installEPN3osg8StateSetE
libosgEarthUtil.so.0:_ZNK8osgEarth4Util29BrightnessContrastColorFilter9getConfigEv
libosgEarthUtil.so.0:_ZNK8osgEarth4Util3TMS7TileMap10getExtentsERdS3_S3_S3_
libosgEarthUtil.so.0:_ZNK8osgEarth4Util3TMS7TileMap13createProfileEv
libosgEarthUtil.so.0:_ZNK8osgEarth4Util6ArcGIS12RESTResponse10getFoldersB5cxx11Ev
libosgEarthUtil.so.0:_ZNK8osgEarth4Util6ArcGIS12RESTResponse11getServicesB5cxx11Ev
libosgEarthUtil.so.0:_ZNK8osgEarth4Util6ArcGIS12RESTResponse13getServiceURLB5cxx11Ev
libosgEarthUtil.so.0:_ZNK8osgEarth4Util6ArcGIS12RESTResponse17getCurrentVersionB5cxx11Ev
libosgEarthUtil.so.0:_ZNK8osgEarth4Util7GeoCell12computeBoundEv
libosgEarthUtil.so.0:_ZNK8osgEarth4Util7HTMNode10PolytopeDP13containsAnyOfERKSt6vectorIN3osg5Vec3dESaIS5_EE
libosgEarthUtil.so.0:_ZNK8osgEarth4Util7HTMNode10PolytopeDP8containsERKN3osg5Vec3dE
libosgEarthUtil.so.0:_ZNK8osgEarth4Util7HTMNode8Triangle12getMidpointsEPN3osg5Vec3dE
libosgEarthUtil.so.0:_ZNK8osgEarth4Util7SkyNode12getEphemerisEv
libosgEarthUtil.so.0:_ZNK8osgEarth4Util8Controls11ControlNode12computeBoundEv
libosgEarthUtil.so.0:_ZNK8osgEarth4Util8Controls12ImageControl18calculateImageSizeEv
libosgEarthUtil.so.0:_ZNK8osgEarth4Util8Controls4Grid10getNumRowsEv
libosgEarthUtil.so.0:_ZNK8osgEarth4Util8Controls4Grid13getNumColumnsEv
libosgEarthUtil.so.0:_ZNK8osgEarth4Util8Controls6UVec2f1xERKN3osg5Vec2fE
libosgEarthUtil.so.0:_ZNK8osgEarth4Util8Controls6UVec2f1xERKNS1_14ControlContextE
libosgEarthUtil.so.0:_ZNK8osgEarth4Util8Controls6UVec2f1yERKN3osg5Vec2fE
libosgEarthUtil.so.0:_ZNK8osgEarth4Util8Controls6UVec2f1yERKNS1_14ControlContextE
libosgEarthUtil.so.0:_ZNK8osgEarth4Util8Controls6UVec2f8asPixelsERKN3osg5Vec2fE
libosgEarthUtil.so.0:_ZNK8osgEarth4Util8Controls6UVec2f8asPixelsERKNS1_14ControlContextE
libosgEarthUtil.so.0:_ZNK8osgEarth4Util8Controls7Control10intersectsEff
libosgEarthUtil.so.0:_ZNK8osgEarth4Util8Controls7Control15parentIsVisibleEv
libosgEarthUtil.so.0:_ZNK8osgEarth4Util9Ephemeris14getSunPositionERKNS_8DateTimeE
libosgEarthUtil.so.0:_ZNK8osgEarth4Util9Ephemeris15getMoonPositionERKNS_8DateTimeE
libosgEarthUtil.so.0:_ZNK8osgEarth4Util9Ephemeris17getECEFfromRADeclEddd
libosgEarthUtil.so.0:_ZNK8osgEarth4Util9SkyDriver13getSkyOptionsEPKN5osgDB7OptionsE
libosgEarthUtil.so.0:_ZThn16_N8osgEarth4Util18MeasureToolHandler10setMapNodeEPNS_7MapNodeE
libosgEarthUtil.so.0:_ZThn16_N8osgEarth4Util18MeasureToolHandlerD0Ev
libosgEarthUtil.so.0:_ZThn16_N8osgEarth4Util18MeasureToolHandlerD1Ev
libosgEarthUtil.so.0:_ZThn232_N8osgEarth4Util21LinearLineOfSightNode10setMapNodeEPNS_7MapNodeE
libosgEarthUtil.so.0:_ZThn232_N8osgEarth4Util21LinearLineOfSightNodeD0Ev
libosgEarthUtil.so.0:_ZThn232_N8osgEarth4Util21LinearLineOfSightNodeD1Ev
libosgEarthUtil.so.0:_ZThn232_N8osgEarth4Util21RadialLineOfSightNode10setMapNodeEPNS_7MapNodeE
libosgEarthUtil.so.0:_ZThn232_N8osgEarth4Util21RadialLineOfSightNodeD0Ev
libosgEarthUtil.so.0:_ZThn232_N8osgEarth4Util21RadialLineOfSightNodeD1Ev
libosgEarthUtil.so.0:_ZThn240_N8osgEarth4Util8Controls13ControlCanvasD0Ev
libosgEarthUtil.so.0:_ZThn240_N8osgEarth4Util8Controls13ControlCanvasD1Ev
libosgEarthUtil.so.0:_ZThn24_N8osgEarth4Util10ContourMapD0Ev
libosgEarthUtil.so.0:_ZThn24_N8osgEarth4Util10ContourMapD1Ev
libosgEarthUtil.so.0:_ZThn296_N8osgEarth4Util19ContourMapExtension10disconnectEPNS_7MapNodeE
libosgEarthUtil.so.0:_ZThn296_N8osgEarth4Util19ContourMapExtension7connectEPNS_7MapNodeE
libosgEarthUtil.so.0:_ZThn8_N8osgEarth4Util16EarthManipulatorD0Ev
libosgEarthUtil.so.0:_ZThn8_N8osgEarth4Util16EarthManipulatorD1Ev
libosgEarthUtil.so.0:_ZThn8_N8osgEarth4Util18MeasureToolHandlerD0Ev
libosgEarthUtil.so.0:_ZThn8_N8osgEarth4Util18MeasureToolHandlerD1Ev
libosgEarthUtil.so.0:_ZThn8_N8osgEarth4Util9RTTPickerD0Ev
libosgEarthUtil.so.0:_ZThn8_N8osgEarth4Util9RTTPickerD1Ev
libosgEarthUtil.so.0:_ZTv0_n32_N8osgEarth4Util16EarthManipulatorD0Ev
libosgEarthUtil.so.0:_ZTv0_n32_N8osgEarth4Util16EarthManipulatorD1Ev
libosgEarthUtil.so.0:_ZTv0_n32_N8osgEarth4Util18MeasureToolHandlerD0Ev
libosgEarthUtil.so.0:_ZTv0_n32_N8osgEarth4Util18MeasureToolHandlerD1Ev
libosgEarthUtil.so.0:_ZTv0_n32_N8osgEarth4Util9RTTPickerD0Ev
libosgEarthUtil.so.0:_ZTv0_n32_N8osgEarth4Util9RTTPickerD1Ev
libosgEarthUtil.so.0:_ZTv0_n80_N8osgEarth4Util16EarthManipulatorD0Ev
libosgEarthUtil.so.0:_ZTv0_n80_N8osgEarth4Util16EarthManipulatorD1Ev
libosgEarthUtil.so.0:_ZTv0_n80_N8osgEarth4Util18MeasureToolHandlerD0Ev
libosgEarthUtil.so.0:_ZTv0_n80_N8osgEarth4Util18MeasureToolHandlerD1Ev
libosgEarthUtil.so.0:_ZTv0_n80_N8osgEarth4Util9RTTPickerD0Ev
libosgEarthUtil.so.0:_ZTv0_n80_N8osgEarth4Util9RTTPickerD1Ev
libosgEarthUtil.so.0:osgdb_flattened_elevation
libosgEarthUtil.so.0:osgdb_fractal_elevation
libosgEarthUtil.so.0:osgdb_gars_graticule
libosgEarthUtil.so.0:osgdb_geodetic_graticule
libosgEarthUtil.so.0:osgdb_mgrs_graticule
libosgEarthUtil.so.0:osgdb_multi_elevation
libosgEarthUtil.so.0:osgdb_ocean
libosgEarthUtil.so.0:osgdb_osgearth_contour_map
libosgEarthUtil.so.0:osgdb_osgearth_contourmap
libosgEarthUtil.so.0:osgdb_osgearth_lod_blending
libosgEarthUtil.so.0:osgdb_osgearth_pseudo_simple
libosgEarthUtil.so.0:osgdb_simple_ocean
libosgEarthUtil.so.0:osgdb_utm_graticule
libosgEarthUtil.so.0:osgearth_colorfilter_brightness_contrast
libosgEarthUtil.so.0:osgearth_colorfilter_chroma_key
libosgEarthUtil.so.0:osgearth_colorfilter_cmyk
libosgEarthUtil.so.0:osgearth_colorfilter_gamma
libosgEarthUtil.so.0:osgearth_colorfilter_glsl
libosgEarthUtil.so.0:osgearth_colorfilter_hsl
libosgEarthUtil.so.0:osgearth_colorfilter_night
libosgEarthUtil.so.0:osgearth_colorfilter_rgb
